00000000  4D                dec bp
00000001  5A                pop dx
00000002  A90158            test ax,0x5801
00000007  0020              add [bx+si],ah
0000000B  00FF              add bh,bh
0000000D  FF00              inc word [bx+si]
00000011  009A22DB          add [bp+si-0x24de],bl
00000015  8E00              mov es,[bx+si]
00000017  001C              add [si],bl
000001FF  00CF              add bh,cl
00000201  0100              add [bx+si],ax
00000203  1400              adc al,0x0
00000205  0800              or [bx+si],al
00000207  0100              add [bx+si],ax
00000209  3C00              cmp al,0x0
0000020B  FE                db 0xfe
0000020C  FF960002          call [bp+0x200]
00000210  0005              add [di],al
00000212  00FA              add dl,bh
00000216  00FD              add ch,bh
00000218  FF0F              dec word [bx]
0000021A  0002              add [bp+si],al
0000021C  0032              add [bp+si],dh
00000222  0001              add [bx+di],al
00000224  001E0028          add [0x2800],bl
0000022C  0001              add [bx+di],al
0000022E  0028              add [bx+si],ch
00000230  001E0000          add [0x0],bl
00000236  0001              add [bx+di],al
00000238  003C              add [si],bh
0000023A  0014              add [si],dl
0000023C  00FF              add bh,bh
0000023E  FF00              inc word [bx+si]
00000240  000A              add [bp+si],cl
00000242  000B              add [bp+di],cl
00000244  0008              add [bx+si],cl
00000246  00FA              add dl,bh
00000248  FF                db 0xff
00000249  FF                db 0xff
0000024A  FF0E0057          dec word [0x5700]
0000024E  0018              add [bx+si],bl
00000296  00BF5100          add [bx+0x51],bh
0000029A  B94600            mov cx,0x46
0000029D  32C0              xor al,al
0000029F  F3AA              rep stosb
000002A1  C3                ret
000002A2  57                push di
000002A3  56                push si
000002A4  51                push cx
000002A5  B90700            mov cx,0x7
000002A8  BF5100            mov di,0x51
000002AB  837D0400          cmp word [di+0x4],byte +0x0
000002AF  7407              jz 0x2b8
000002B1  83C70A            add di,byte +0xa
000002B4  E2F5              loop 0x2ab
000002B6  EB14              jmp short 0x2cc
000002B8  8BC8              mov cx,ax
000002BA  D1E0              shl ax,1
000002BC  D1E0              shl ax,1
000002BE  03C1              add ax,cx
000002C0  D1E0              shl ax,1
000002C2  BE0100            mov si,0x1
000002C5  03F0              add si,ax
000002C7  B90500            mov cx,0x5
000002CA  F3A5              rep movsw
000002CC  59                pop cx
000002CD  5E                pop si
000002CE  5F                pop di
000002CF  C3                ret
000002D0  803EB88D01        cmp byte [0x8db8],0x1
000002D5  7401              jz 0x2d8
000002D7  C3                ret
000002D8  BE5100            mov si,0x51
000002DB  B90700            mov cx,0x7
000002DE  837C0400          cmp word [si+0x4],byte +0x0
000002E2  7419              jz 0x2fd
000002E4  FF4C04            dec word [si+0x4]
000002E7  8B5406            mov dx,[si+0x6]
000002EA  8B5C08            mov bx,[si+0x8]
000002ED  51                push cx
000002EE  E81200            call 0x303
000002F1  59                pop cx
000002F2  8B04              mov ax,[si]
000002F4  014406            add [si+0x6],ax
000002F7  8B4402            mov ax,[si+0x2]
000002FA  014408            add [si+0x8],ax
000002FD  83C60A            add si,byte +0xa
00000300  E2DC              loop 0x2de
00000302  C3                ret
00000303  FA                cli
00000304  B03D              mov al,0x3d
00000306  E63A              out 0x3a,al
00000308  8BCB              mov cx,bx
0000030A  E2FE              loop 0x30a
0000030C  B035              mov al,0x35
0000030E  E63A              out 0x3a,al
00000310  8BCB              mov cx,bx
00000312  E2FE              loop 0x312
00000314  4A                dec dx
00000315  75EC              jnz 0x303
00000317  FB                sti
00000318  C3                ret
00000337  003C              add [si],bh
00000339  001E000E          add [0xe00],bl
0000033D  000E000C          add [0xc00],cl
00000341  000C              add [si],cl
00000343  000C              add [si],cl
00000345  00060000          add [0x0],al
00000349  000E000E          add [0xe00],cl
0000034F  0039              add [bx+di],bh
00000351  C039C0            sar byte [bx+di],byte 0xc0
00000354  10800000          adc [bx+si+0x0],al
00000368  0C60              or al,0x60
0000036A  0C60              or al,0x60
0000036C  18C0              sbb al,al
0000036E  7FE0              jg 0x350
00000370  31803180          xor [bx+si-0x7fcf],ax
00000374  FFC0              inc ax
00000376  6300              arpl [bx+si],ax
00000378  C600C6            mov byte [bx+si],0xc6
0000037F  0012              add [bp+si],dl
00000381  007F80            add [bx-0x80],bh
00000384  D2C0              rol al,cl
00000386  92                xchg ax,dx
00000387  00D2              add dl,dl
00000389  007F80            add [bx-0x80],bh
0000038C  12C0              adc al,al
0000038E  1240D2            adc al,[bx+si-0x2e]
00000391  C07F8012          sar byte [bx-0x80],byte 0x12
00000397  0070C0            add [bx+si-0x40],dh
0000039A  C8C0C980          enter 0xc9c0,0x80
0000039E  7300              jnc 0x3a0
000003A0  06                push es
000003A1  000C              add [si],cl
000003A3  0018              add [bx+si],bl
000003A5  0033              add [bp+di],dh
000003A7  806640C6          and byte [bp+0x40],0xc6
000003AB  40                inc ax
000003AC  C3                ret
000003AD  800000            add byte [bx+si],0x0
000003B0  7F00              jg 0x3b2
000003B2  E180              loope 0x334
000003B4  C0006C            rol byte [bx+si],byte 0x6c
000003B7  0038              add [bx+si],bh
000003B9  2060C0            and [bx+si-0x40],ah
000003BC  C3                ret
000003BD  80C4C0            add ah,0xc0
000003C0  E0C0              loopne 0x382
000003C2  FFC0              inc ax
000003C4  7F80              jg 0x346
000003C8  1C00              sbb al,0x0
000003CA  1C00              sbb al,0x0
000003CC  0800              or [bx+si],al
000003E0  07                pop es
000003E1  001C              add [si],bl
000003E3  0030              add [bx+si],dh
000003E5  0020              add [bx+si],ah
000003E7  006000            add [bx+si+0x0],ah
000003EA  60                pusha
000003EB  006000            add [bx+si+0x0],ah
000003EE  3000              xor [bx+si],al
000003F0  3800              cmp [bx+si],al
000003F2  1E                push ds
000003F3  0007              add [bx],al
000003F5  800000            add byte [bx+si],0x0
000003F8  3800              cmp [bx+si],al
000003FA  0E                push cs
000003FB  0003              add [bp+di],al
000003FD  0001              add [bx+di],al
000003FF  0001              add [bx+di],al
00000401  800180            add byte [bx+di],0x80
00000404  01800300          add [bx+si+0x3],ax
00000408  07                pop es
00000409  001E0078          add [0x7800],bl
00000411  0033              add [bp+di],dh
00000413  001E007F          add [0x7f00],bl
00000417  801E003300        sbb byte [0x3300],0x0
0000042A  0E                push cs
0000042B  000E000E          add [0xe00],cl
0000042F  00FF              add bh,bh
00000431  E0FF              loopne 0x432
00000433  E00E              loopne 0x443
00000435  000E000E          add [0xe00],cl
0000044F  006000            add [bx+si+0x0],ah
00000452  7000              jo 0x454
00000454  60                pusha
00000455  00C0              add al,al
0000045F  00FF              add bh,bh
00000461  C0FFC0            sar bh,byte 0xc0
00000480  3000              xor [bx+si],al
00000482  7800              js 0x484
00000484  3000              xor [bx+si],al
00000488  006000            add [bx+si+0x0],ah
0000048B  E001              loopne 0x48e
0000048D  C00380            rol byte [bp+di],byte 0x80
00000490  07                pop es
00000491  000E001C          add [0x1c00],cl
00000495  0038              add [bx+si],bh
00000497  007000            add [bx+si+0x0],dh
0000049A  E000              loopne 0x49c
0000049C  C00000            rol byte [bx+si],byte 0x0
0000049F  001F              add [bx],bl
000004A1  006300            add [bp+di+0x0],ah
000004A4  C7C0C1C0          mov ax,0xc0c1
000004A8  C0C0C0            rol al,byte 0xc0
000004AB  C0C0C0            rol al,byte 0xc0
000004AE  C0C0E1            rol al,byte 0xe1
000004B1  C07F801E          sar byte [bx-0x80],byte 0x1e
000004B7  0006001E          add [0x1e00],al
000004BB  007E00            add [bp+0x0],bh
000004BE  0E                push cs
000004BF  000E000E          add [0xe00],cl
000004C3  000E000E          add [0xe00],cl
000004C7  000E001F          add [0x1f00],cl
000004CB  003F              add [bx],bh
000004CD  800000            add byte [bx+si],0x0
000004D0  7FC0              jg 0x492
000004D2  80E0C4            and al,0xc4
000004D5  60                pusha
000004D6  78C0              js 0x498
000004D8  01800600          add [bx+si+0x6],ax
000004DC  1800              sbb [bx+si],al
000004DE  60                pusha
000004DF  00C0              add al,al
000004E1  40                inc ax
000004E2  FFE0              jmp ax
000004E4  7FC0              jg 0x4a6
000004E8  7FC0              jg 0x4aa
000004EA  C0E070            shl al,byte 0x70
000004ED  60                pusha
000004EE  00C0              add al,al
000004F0  07                pop es
000004F1  0001              add [bx+di],al
000004F3  8000C0            add byte [bx+si],0xc0
000004F6  40                inc ax
000004F7  60                pusha
000004F8  E0E0              loopne 0x4da
000004FA  FFE0              jmp ax
000004FC  7FC0              jg 0x4be
00000500  3F                aas
00000501  801300            adc byte [bp+di],0x0
00000504  1300              adc ax,[bx+si]
00000506  2300              and ax,[bx+si]
00000508  43                inc bx
00000509  00FF              add bh,bh
0000050B  E0FF              loopne 0x50c
0000050D  C00300            rol byte [bp+di],byte 0x0
00000510  0300              add ax,[bx+si]
00000512  07                pop es
00000513  000F              add [bx],cl
00000515  800000            add byte [bx+si],0x0
00000518  FFC0              inc ax
0000051A  FF00              inc word [bx+si]
0000051C  40                inc ax
0000051D  004000            add [bx+si+0x0],al
00000520  FE00              inc byte [bx+si]
00000522  C3                ret
00000523  8001C0            add byte [bx+di],0xc0
00000526  00C0              add al,al
00000528  41                inc cx
00000529  C0FFC0            sar bh,byte 0xc0
0000052C  7F80              jg 0x4ae
00000530  1F                pop ds
00000531  8063C0C0          and byte [bp+di-0x40],0xc0
00000535  80C000            add al,0x0
00000538  DF00              fild word [bx+si]
0000053A  E180              loope 0x4bc
0000053C  C0C0C0            rol al,byte 0xc0
0000053F  C0E1C0            shl cl,byte 0xc0
00000542  7F80              jg 0x4c4
00000544  1E                push ds
00000547  007FC0            add [bx-0x40],bh
0000054A  FFE0              jmp ax
0000054C  60                pusha
0000054D  C02180            shl byte [bx+di],byte 0x80
00000550  43                inc bx
00000551  0003              add [bp+di],al
00000553  00060006          add [0x600],al
00000557  00060006          add [0x600],al
0000055B  000F              add [bx],cl
0000055F  007F80            add [bx-0x80],bh
00000562  E1C0              loope 0x524
00000564  C0C040            rol al,byte 0x40
00000567  803F00            cmp byte [bx],0x0
0000056A  40                inc ax
0000056B  8080408040        add byte [bx+si-0x7fc0],0x40
00000570  C0C0FF            rol al,byte 0xff
00000573  C07F8000          sar byte [bx-0x80],byte 0x0
00000577  001E0061          add [0x6100],bl
0000057B  80C0C0            add al,0xc0
0000057E  C0C061            rol al,byte 0x61
00000581  C03EC000C0        sar byte [0xc0],byte 0xc0
00000586  00C0              add al,al
00000588  41                inc cx
00000589  C0FF80            sar bh,byte 0x80
0000058C  7E00              jng 0x58e
00000594  3000              xor [bx+si],al
00000596  7800              js 0x598
00000598  3000              xor [bx+si],al
000005A0  3000              xor [bx+si],al
000005A2  7800              js 0x5a4
000005A4  3000              xor [bx+si],al
000005AC  3000              xor [bx+si],al
000005AE  7800              js 0x5b0
000005B0  3000              xor [bx+si],al
000005B8  3000              xor [bx+si],al
000005BA  3800              cmp [bx+si],al
000005BC  3000              xor [bx+si],al
000005BE  60                pusha
000005C1  00FE              add dh,bh
000005C3  E0BD              loopne 0x582
000005C5  20BEA09D          and [bp-0x6260],bh
000005C9  204E40            and [bp+0x40],cl
000005CC  0400              add al,0x0
000005CE  0400              add al,0x0
000005D0  0400              add al,0x0
000005D2  0E                push cs
000005D3  007D40            add [di+0x40],bh
000005DC  FFC0              inc ax
000005DE  FFC0              inc ax
000005E4  FFC0              inc ax
000005E6  FFC0              inc ax
000005F0  CE                into
000005F1  60                pusha
000005F2  99                cwd
000005F3  20CA              and dl,cl
000005F5  60                pusha
000005F6  7FC0              jg 0x5b8
000005F8  1F                pop ds
000005F9  000F              add [bx],cl
000005FB  001D              add [di],bl
000005FD  001B              add [bp+di],bl
000005FF  001B              add [bp+di],bl
00000601  0013              add [bp+di],dl
00000603  0039              add [bx+di],bh
00000605  C00000            rol byte [bx+si],byte 0x0
00000608  7FC0              jg 0x5ca
0000060A  E1E0              loope 0x5ec
0000060C  C0E063            shl al,byte 0x63
0000060F  C00F00            ror byte [bx],byte 0x0
00000612  1C00              sbb al,0x0
00000614  1C00              sbb al,0x0
00000616  0E                push cs
00000619  000E000E          add [0xe00],cl
00000621  001F              add [bx],bl
00000623  0060C0            add [bx+si-0x40],ah
00000626  CE                into
00000627  60                pusha
00000628  9B209960CF        wait and [bx+di-0x30a0],bl
0000062D  C060001F          shl byte [bx+si+0x0],byte 0x1f
00000631  800000            add byte [bx+si],0x0
00000638  7FC0              jg 0x5fa
0000063A  93                xchg ax,bx
0000063B  205340            and [bp+di+0x40],dl
0000063E  23802D80          and ax,[bx+si-0x7fd3]
00000642  7180              jno 0x5c4
00000644  41                inc cx
00000645  8080C0C0C0        add byte [bx+si-0x3f40],0xc0
0000064A  E0C0              loopne 0x60c
0000064C  61                popa
0000064D  E000              loopne 0x64f
0000064F  007FC0            add [bx-0x40],bh
00000652  B0E0              mov al,0xe0
00000654  70C0              jo 0x616
00000656  39803700          cmp [bx+si+0x37],ax
0000065A  318030C0          xor [bx+si-0x3fd0],ax
0000065E  306030            xor [bx+si+0x30],ah
00000661  E07F              loopne 0x6e2
00000663  C0FF00            sar bh,byte 0x0
00000668  1F                pop ds
00000669  C0                db 0xc0
0000066A  306066            xor [bx+si+0x66],ah
0000066D  E043              loopne 0x6b2
0000066F  C0C000            rol al,byte 0x0
00000672  C000E0            rol byte [bx+si],byte 0xe0
00000675  006000            add [bx+si+0x0],ah
00000678  7840              js 0x6ba
0000067A  3F                aas
0000067B  E01F              loopne 0x69c
0000067D  C00000            rol byte [bx+si],byte 0x0
00000680  7E00              jng 0x682
00000682  B180              mov cl,0x80
00000684  7040              jo 0x6c6
00000686  3C40              cmp al,0x40
00000688  3220              xor ah,[bx+si]
0000068A  3C20              cmp al,0x20
0000068C  3020              xor [bx+si],ah
0000068E  306030            xor [bx+si+0x30],ah
00000691  E07F              loopne 0x712
00000693  C0FF00            sar bh,byte 0x0
00000698  FF8070C0          inc word [bx+si-0x3f90]
0000069C  31803200          xor [bx+si+0x32],ax
000006A0  3C00              cmp al,0x0
000006A2  3F                aas
000006A3  803000            xor byte [bx+si],0x0
000006A6  3000              xor [bx+si],al
000006A8  30407F            xor [bx+si+0x7f],al
000006AB  C0FF80            sar bh,byte 0x80
000006B0  FF8070C0          inc word [bx+si-0x3f90]
000006B4  31803200          xor [bx+si+0x32],ax
000006B8  3C00              cmp al,0x0
000006BA  3F                aas
000006BB  803000            xor byte [bx+si],0x0
000006BE  3000              xor [bx+si],al
000006C0  3000              xor [bx+si],al
000006C2  7800              js 0x6c4
000006C4  FC                cld
000006C7  001F              add [bx],bl
000006C9  8030C0            xor byte [bx+si],0xc0
000006CC  60                pusha
000006CD  804100C0          add byte [bx+di+0x0],0xc0
000006D1  00C1              add cl,al
000006D3  E0E0              loopne 0x6b5
000006D5  C060C078          shl byte [bx+si-0x40],byte 0x78
000006D9  C03FC0            sar byte [bx],byte 0xc0
000006DC  1F                pop ds
000006DD  E000              loopne 0x6df
000006DF  0079C0            add [bx+di-0x40],bh
000006E2  B180              mov cl,0x80
000006E4  7180              jno 0x666
000006E6  31803F80          xor [bx+si-0x7fc1],ax
000006EA  31803180          xor [bx+si-0x7fcf],ax
000006EE  31803180          xor [bx+si-0x7fcf],ax
000006F2  70C0              jo 0x6b4
000006F4  F8                clc
000006F5  60                pusha
000006F8  3F                aas
000006F9  8060C027          and byte [bx+si-0x40],0x27
000006FD  C00380            rol byte [bp+di],byte 0x80
00000700  0300              add ax,[bx+si]
00000702  0300              add ax,[bx+si]
00000704  0300              add ax,[bx+si]
00000706  0300              add ax,[bx+si]
00000708  23803780          and ax,[bx+si-0x7fc9]
0000070C  1F                pop ds
0000070F  003F              add [bx],bh
00000711  8060C027          and byte [bx+si-0x40],0x27
00000715  C02380            shl byte [bp+di],byte 0x80
00000718  1300              adc ax,[bx+si]
0000071A  0300              add ax,[bx+si]
0000071C  0300              add ax,[bx+si]
0000071E  830043            add word [bx+si],byte +0x43
00000721  8067803F          and byte [bx-0x80],0x3f
00000727  0078E0            add [bx+si-0x20],bh
0000072A  B0C0              mov al,0xc0
0000072C  7180              jno 0x6ae
0000072E  3300              xor ax,[bx+si]
00000730  3E0033            add [ds:bp+di],dh
00000733  0031              add [bx+di],dh
00000735  803180            xor byte [bx+di],0x80
00000738  318071C0          xor [bx+si-0x3f8f],ax
0000073C  F8                clc
0000073D  E000              loopne 0x73f
0000073F  00F8              add al,bh
00000741  007000            add [bx+si+0x0],dh
00000744  3000              xor [bx+si],al
00000746  3000              xor [bx+si],al
00000748  3000              xor [bx+si],al
0000074A  3000              xor [bx+si],al
0000074C  30C0              xor al,al
0000074E  308060C0          xor [bx+si-0x3fa0],al
00000752  87E0              xchg ax,sp
00000754  7FC0              jg 0x716
00000758  7FC0              jg 0x71a
0000075A  BFA06D            mov di,0x6da0
0000075D  C04CC0C6          ror byte [si-0x40],byte 0xc6
00000761  60                pusha
00000762  C6                db 0xc6
00000763  60                pusha
00000764  C6                db 0xc6
00000765  60                pusha
00000766  C6                db 0xc6
00000767  60                pusha
00000768  C6                db 0xc6
00000769  60                pusha
0000076A  E660              out 0x60,al
0000076C  6C                insb
0000076D  C00000            rol byte [bx+si],byte 0x0
00000770  7F80              jg 0x6f2
00000772  B3C0              mov bl,0xc0
00000774  70E0              jo 0x756
00000776  386036            cmp [bx+si+0x36],ah
00000779  60                pusha
0000077A  306030            xor [bx+si+0x30],ah
0000077D  C0                db 0xc0
0000077E  30C0              xor al,al
00000780  308070C0          xor [bx+si-0x3f90],al
00000784  F8                clc
00000785  60                pusha
00000788  1E                push ds
00000789  006380            add [bp+di-0x80],ah
0000078C  C2C0C2            ret 0xc2c0
0000078F  C0C4C0            rol ah,byte 0xc0
00000792  C8C0D0C0          enter 0xd0c0,0xc0
00000796  D0C0              rol al,1
00000798  F1                int1
00000799  C07F801E          sar byte [bx-0x80],byte 0x1e
0000079F  007F00            add [bx+0x0],bh
000007A2  B0C0              mov al,0xc0
000007A4  7060              jo 0x806
000007A6  30603C            xor [bx+si+0x3c],ah
000007A9  E037              loopne 0x7e2
000007AB  C0                db 0xc0
000007AC  3000              xor [bx+si],al
000007AE  3000              xor [bx+si],al
000007B0  3000              xor [bx+si],al
000007B2  7000              jo 0x7b4
000007B4  F8                clc
000007B7  001E0061          add [0x6100],bl
000007BB  80C0C0            add al,0xc0
000007BE  C0C0C0            rol al,byte 0xc0
000007C1  C0C0C0            rol al,byte 0xc0
000007C4  C0C0DE            rol al,byte 0xde
000007C7  C0                db 0xc0
000007C8  F1                int1
000007C9  C07F801E          sar byte [bx-0x80],byte 0x1e
000007CD  E000              loopne 0x7cf
000007CF  007F80            add [bx-0x80],bh
000007D2  B0C0              mov al,0xc0
000007D4  7040              jo 0x816
000007D6  31803E00          xor [bx+si+0x3e],ax
000007DA  3300              xor ax,[bx+si]
000007DC  31803180          xor [bx+si-0x7fcf],ax
000007E0  318071C0          xor [bx+si-0x3f8f],ax
000007E4  F8                clc
000007E5  E000              loopne 0x7e7
000007E7  007F00            add [bx+0x0],bh
000007EA  E1C0              loope 0x7ac
000007EC  C0406000          rol byte [bx+si+0x60],byte 0x0
000007F0  1800              sbb [bx+si],al
000007F2  06                push es
000007F3  0001              add [bx+di],al
000007F5  8078C0C4          cmp byte [bx+si-0x40],0xc4
000007F9  C0FFC0            sar bh,byte 0xc0
000007FC  7F80              jg 0x77e
00000800  7FC0              jg 0x7c2
00000802  E660              out 0x60,al
00000804  6640              inc eax
00000806  C6                db 0xc6
00000807  20060006          and [0x600],al
0000080B  00060006          add [0x600],al
0000080F  0006000E          add [0xe00],al
00000813  001F              add [bx],bl
00000817  0071E0            add [bx+di-0x20],dh
0000081A  98                cbw
0000081B  C058C038          rcr byte [bx+si-0x40],byte 0x38
0000081F  C0                db 0xc0
00000820  30C0              xor al,al
00000822  68C066            push word 0x66c0
00000825  C061C078          shl byte [bx+di-0x40],byte 0x78
00000829  C03FC0            sar byte [bx],byte 0xc0
0000082C  0FE000            pavgb mm0,[bx+si]
0000082F  0079C0            add [bx+di-0x40],bh
00000832  CC                int3
00000833  E078              loopne 0x8ad
00000835  60                pusha
00000836  60                pusha
00000837  60                pusha
00000838  306030            xor [bx+si+0x30],ah
0000083B  40                inc ax
0000083C  184018            sbb [bx+si+0x18],al
0000083F  800D80            or byte [di],0x80
00000842  0F00060000        sldt [0x0]
00000847  00E0              add al,ah
00000849  E0C0              loopne 0x80b
0000084B  60                pusha
0000084C  C060C060          shl byte [bx+si-0x40],byte 0x60
00000850  C060C060          shl byte [bx+si-0x40],byte 0x60
00000854  C06064C0          shl byte [bx+si+0x64],byte 0xc0
00000858  6E                outsb
00000859  C07BC031          sar byte [bp+di-0x40],byte 0x31
0000085D  800000            add byte [bx+si],0x0
00000860  71C0              jno 0x822
00000862  E0C0              loopne 0x824
00000864  60                pusha
00000865  803100            xor byte [bx+di],0x0
00000868  1A00              sbb al,[bx+si]
0000086A  0C00              or al,0x0
0000086C  16                push ss
0000086D  0023              add [bp+di],ah
0000086F  006180            add [bx+di-0x80],ah
00000872  E0C0              loopne 0x834
00000874  70E0              jo 0x856
00000878  71C0              jno 0x83a
0000087A  E660              out 0x60,al
0000087C  686030            push word 0x3060
0000087F  C01980            rcr byte [bx+di],byte 0x80
00000882  0F00060006        sldt [0x600]
00000887  0006000E          add [0xe00],al
0000088B  001F              add [bx],bl
0000088F  00FF              add bh,bh
00000891  C060E021          shl byte [bx+si-0x20],byte 0x21
00000895  C0638007          shl byte [bp+di-0x80],byte 0x7
00000899  000E001C          add [0x1c00],cl
0000089D  C03880            sar byte [bx+si],byte 0x80
000008A0  70C0              jo 0x862
000008A2  FFE0              jmp ax
000008A4  7FC0              jg 0x866
000008B0  00FF              add bh,bh
000008B2  FF                db 0xff
000008B3  FF                db 0xff
000008B4  FF                db 0xff
000008B5  FF5053            call [bx+si+0x53]
000008B8  51                push cx
000008B9  52                push dx
000008BA  55                push bp
000008BB  56                push si
000008BC  57                push di
000008BD  06                push es
000008BE  E89D02            call 0xb5e
000008C1  50                push ax
000008C2  E87A02            call 0xb3f
000008C5  58                pop ax
000008C6  E8C501            call 0xa8e
000008C9  E81402            call 0xae0
000008CC  7303              jnc 0x8d1
000008CE  E98E00            jmp 0x95f
000008D1  BF0200            mov di,0x2
000008D4  9C                pushf
000008D5  52                push dx
000008D6  57                push di
000008D7  06                push es
000008D8  FA                cli
000008D9  FC                cld
000008DA  8AC6              mov al,dh
000008DC  E60C              out 0xc,al
000008DE  BA0800            mov dx,0x8
000008E1  BE0D07            mov si,0x70d
000008E4  8BEB              mov bp,bx
000008E6  8BFB              mov di,bx
000008E8  8CD8              mov ax,ds
000008EA  8EC0              mov es,ax
000008EC  B702              mov bh,0x2
000008EE  B396              mov bl,0x96
000008F0  B400              mov ah,0x0
000008F2  B080              mov al,0x80
000008F4  E608              out 0x8,al
000008F6  D40A              aam
000008F8  D40A              aam
000008FA  D40A              aam
000008FC  D40A              aam
000008FE  EC                in al,dx
000008FF  D0F8              sar al,1
00000901  731C              jnc 0x91f
00000903  75F9              jnz 0x8fe
00000905  EC                in al,dx
00000906  22C3              and al,bl
00000908  74FB              jz 0x905
0000090A  E40E              in al,0xe
0000090C  AA                stosb
0000090D  EC                in al,dx
0000090E  48                dec ax
0000090F  74FC              jz 0x90d
00000911  3AC7              cmp al,bh
00000913  750A              jnz 0x91f
00000915  E40E              in al,0xe
00000917  AA                stosb
00000918  EC                in al,dx
00000919  3AC7              cmp al,bh
0000091B  74F8              jz 0x915
0000091D  FFE6              jmp si
0000091F  8BDF              mov bx,di
00000921  07                pop es
00000922  5F                pop di
00000923  5A                pop dx
00000924  9D                popf
00000925  E408              in al,0x8
00000927  24FF              and al,0xff
00000929  751C              jnz 0x947
0000092B  E20D              loop 0x93a
0000092D  07                pop es
0000092E  5F                pop di
0000092F  5E                pop si
00000930  5D                pop bp
00000931  5A                pop dx
00000932  59                pop cx
00000933  5B                pop bx
00000934  58                pop ax
00000935  E81F02            call 0xb57
00000938  F8                clc
00000939  C3                ret
0000093A  FEC6              inc dh
0000093C  80FE09            cmp dh,0x9
0000093F  7290              jc 0x8d1
00000941  FEC2              inc dl
00000943  B601              mov dh,0x1
00000945  EB82              jmp short 0x8c9
00000947  8BDD              mov bx,bp
00000949  4F                dec di
0000094A  7418              jz 0x964
0000094C  A83C              test al,0x3c
0000094E  740C              jz 0x95c
00000950  F7C70100          test di,0x1
00000954  7506              jnz 0x95c
00000956  E8E601            call 0xb3f
00000959  E96DFF            jmp 0x8c9
0000095C  E975FF            jmp 0x8d4
0000095F  A880              test al,0x80
00000961  7401              jz 0x964
00000963  F8                clc
00000964  07                pop es
00000965  5F                pop di
00000966  5E                pop si
00000967  5D                pop bp
00000968  5A                pop dx
00000969  59                pop cx
0000096A  5B                pop bx
0000096B  9F                lahf
0000096C  83C402            add sp,byte +0x2
0000096F  9E                sahf
00000970  E8E401            call 0xb57
00000973  721A              jc 0x98f
00000975  A880              test al,0x80
00000977  750E              jnz 0x987
00000979  A810              test al,0x10
0000097B  7516              jnz 0x993
0000097D  A80C              test al,0xc
0000097F  750A              jnz 0x98b
00000981  EB18              jmp short 0x99b
00000983  B000              mov al,0x0
00000985  EB16              jmp short 0x99d
00000987  B002              mov al,0x2
00000989  EB12              jmp short 0x99d
0000098B  B004              mov al,0x4
0000098D  EB0E              jmp short 0x99d
0000098F  B006              mov al,0x6
00000991  EB0A              jmp short 0x99d
00000993  B008              mov al,0x8
00000995  EB06              jmp short 0x99d
00000997  B00A              mov al,0xa
00000999  EB02              jmp short 0x99d
0000099B  B00C              mov al,0xc
0000099D  F9                stc
0000099E  C3                ret
0000099F  50                push ax
000009A0  53                push bx
000009A1  51                push cx
000009A2  52                push dx
000009A3  55                push bp
000009A4  57                push di
000009A5  06                push es
000009A6  E8B501            call 0xb5e
000009A9  E8E200            call 0xa8e
000009AC  E83101            call 0xae0
000009AF  7303              jnc 0x9b4
000009B1  E99C00            jmp 0xa50
000009B4  BF0A00            mov di,0xa
000009B7  51                push cx
000009B8  52                push dx
000009B9  56                push si
000009BA  57                push di
000009BB  FA                cli
000009BC  FC                cld
000009BD  8AC6              mov al,dh
000009BF  E60C              out 0xc,al
000009C1  BA0800            mov dx,0x8
000009C4  BFF607            mov di,0x7f6
000009C7  8BEB              mov bp,bx
000009C9  8BF3              mov si,bx
000009CB  8CD8              mov ax,ds
000009CD  8EC0              mov es,ax
000009CF  B0A0              mov al,0xa0
000009D1  E608              out 0x8,al
000009D3  D40A              aam
000009D5  D40A              aam
000009D7  D40A              aam
000009D9  D40A              aam
000009DB  B40C              mov ah,0xc
000009DD  B500              mov ch,0x0
000009DF  B702              mov bh,0x2
000009E1  B3F6              mov bl,0xf6
000009E3  AC                lodsb
000009E4  91                xchg ax,cx
000009E5  EC                in al,dx
000009E6  D0F8              sar al,1
000009E8  7320              jnc 0xa0a
000009EA  75F9              jnz 0x9e5
000009EC  EC                in al,dx
000009ED  22C3              and al,bl
000009EF  74FB              jz 0x9ec
000009F1  91                xchg ax,cx
000009F2  E60E              out 0xe,al
000009F4  EB0B              jmp short 0xa01
000009F6  EC                in al,dx
000009F7  48                dec ax
000009F8  74FC              jz 0x9f6
000009FA  3AC7              cmp al,bh
000009FC  750C              jnz 0xa0a
000009FE  91                xchg ax,cx
000009FF  E60E              out 0xe,al
00000A01  AC                lodsb
00000A02  91                xchg ax,cx
00000A03  EC                in al,dx
00000A04  22C7              and al,bh
00000A06  75F6              jnz 0x9fe
00000A08  FFE7              jmp di
00000A0A  8BDD              mov bx,bp
00000A0C  81C30002          add bx,0x200
00000A10  5F                pop di
00000A11  5E                pop si
00000A12  5A                pop dx
00000A13  59                pop cx
00000A14  E408              in al,0x8
00000A16  24FF              and al,0xff
00000A18  751E              jnz 0xa38
00000A1A  E20C              loop 0xa28
00000A1C  07                pop es
00000A1D  5F                pop di
00000A1E  5D                pop bp
00000A1F  5A                pop dx
00000A20  59                pop cx
00000A21  5B                pop bx
00000A22  58                pop ax
00000A23  E83101            call 0xb57
00000A26  F8                clc
00000A27  C3                ret
00000A28  FEC6              inc dh
00000A2A  80FE09            cmp dh,0x9
00000A2D  7302              jnc 0xa31
00000A2F  EB83              jmp short 0x9b4
00000A31  FEC2              inc dl
00000A33  B601              mov dh,0x1
00000A35  E974FF            jmp 0x9ac
00000A38  8BDD              mov bx,bp
00000A3A  4F                dec di
00000A3B  7418              jz 0xa55
00000A3D  A83C              test al,0x3c
00000A3F  740C              jz 0xa4d
00000A41  F7C70100          test di,0x1
00000A45  7506              jnz 0xa4d
00000A47  E8F500            call 0xb3f
00000A4A  E95FFF            jmp 0x9ac
00000A4D  E967FF            jmp 0x9b7
00000A50  A880              test al,0x80
00000A52  7401              jz 0xa55
00000A54  F8                clc
00000A55  07                pop es
00000A56  5F                pop di
00000A57  5D                pop bp
00000A58  5A                pop dx
00000A59  59                pop cx
00000A5A  5B                pop bx
00000A5B  9F                lahf
00000A5C  83C402            add sp,byte +0x2
00000A5F  9E                sahf
00000A60  E8F400            call 0xb57
00000A63  7303              jnc 0xa68
00000A65  E927FF            jmp 0x98f
00000A68  A880              test al,0x80
00000A6A  7403              jz 0xa6f
00000A6C  E918FF            jmp 0x987
00000A6F  A840              test al,0x40
00000A71  7403              jz 0xa76
00000A73  E90DFF            jmp 0x983
00000A76  A820              test al,0x20
00000A78  7403              jz 0xa7d
00000A7A  E91AFF            jmp 0x997
00000A7D  A810              test al,0x10
00000A7F  7403              jz 0xa84
00000A81  E90FFF            jmp 0x993
00000A84  A80C              test al,0xc
00000A86  7403              jz 0xa8b
00000A88  E900FF            jmp 0x98b
00000A8B  E90DFF            jmp 0x99b
00000A8E  53                push bx
00000A8F  50                push ax
00000A90  E41C              in al,0x1c
00000A92  2403              and al,0x3
00000A94  2EC606B006FC      mov byte [cs:0x6b0],0xfc
00000A9A  2E0806B006        or [cs:0x6b0],al
00000A9F  58                pop ax
00000AA0  B700              mov bh,0x0
00000AA2  2E8A1EB006        mov bl,[cs:0x6b0]
00000AA7  2EA2B006          mov [cs:0x6b0],al
00000AAB  2403              and al,0x3
00000AAD  80E303            and bl,0x3
00000AB0  3AC3              cmp al,bl
00000AB2  741D              jz 0xad1
00000AB4  50                push ax
00000AB5  E40A              in al,0xa
00000AB7  2E8887B106        mov [cs:bx+0x6b1],al
00000ABC  58                pop ax
00000ABD  8AD8              mov bl,al
00000ABF  2403              and al,0x3
00000AC1  E61C              out 0x1c,al
00000AC3  2E8A87B106        mov al,[cs:bx+0x6b1]
00000AC8  E60A              out 0xa,al
00000ACA  3C28              cmp al,0x28
00000ACC  7203              jc 0xad1
00000ACE  E86E00            call 0xb3f
00000AD1  8BC2              mov ax,dx
00000AD3  B208              mov dl,0x8
00000AD5  F6F2              div dl
00000AD7  FEC4              inc ah
00000AD9  8BD0              mov dx,ax
00000ADB  80E60F            and dh,0xf
00000ADE  5B                pop bx
00000ADF  C3                ret
00000AE0  53                push bx
00000AE1  51                push cx
00000AE2  52                push dx
00000AE3  02D2              add dl,dl
00000AE5  BB0A00            mov bx,0xa
00000AE8  2E3A16B506        cmp dl,[cs:0x6b5]
00000AED  7405              jz 0xaf4
00000AEF  B94D01            mov cx,0x14d
00000AF2  E2FE              loop 0xaf2
00000AF4  8AC2              mov al,dl
00000AF6  D0E8              shr al,1
00000AF8  E60E              out 0xe,al
00000AFA  B018              mov al,0x18
00000AFC  E608              out 0x8,al
00000AFE  E41C              in al,0x1c
00000B00  8AE2              mov ah,dl
00000B02  D0E4              shl ah,1
00000B04  D0E4              shl ah,1
00000B06  80E404            and ah,0x4
00000B09  24FB              and al,0xfb
00000B0B  0AC4              or al,ah
00000B0D  E61C              out 0x1c,al
00000B0F  E408              in al,0x8
00000B11  A801              test al,0x1
00000B13  75FA              jnz 0xb0f
00000B15  B91482            mov cx,0x8214
00000B18  E408              in al,0x8
00000B1A  A880              test al,0x80
00000B1C  7407              jz 0xb25
00000B1E  E2F8              loop 0xb18
00000B20  4B                dec bx
00000B21  75C5              jnz 0xae8
00000B23  EB11              jmp short 0xb36
00000B25  2E3A16B506        cmp dl,[cs:0x6b5]
00000B2A  7405              jz 0xb31
00000B2C  B94D01            mov cx,0x14d
00000B2F  E2FE              loop 0xb2f
00000B31  2E8816B506        mov [cs:0x6b5],dl
00000B36  5A                pop dx
00000B37  59                pop cx
00000B38  5B                pop bx
00000B39  2490              and al,0x90
00000B3B  7401              jz 0xb3e
00000B3D  F9                stc
00000B3E  C3                ret
00000B3F  B008              mov al,0x8
00000B41  E608              out 0x8,al
00000B43  E408              in al,0x8
00000B45  A801              test al,0x1
00000B47  75FA              jnz 0xb43
00000B49  51                push cx
00000B4A  B9511B            mov cx,0x1b51
00000B4D  E2FE              loop 0xb4d
00000B4F  59                pop cx
00000B50  2EC606B50600      mov byte [cs:0x6b5],0x0
00000B56  C3                ret
00000B57  50                push ax
00000B58  B027              mov al,0x27
00000B5A  E62A              out 0x2a,al
00000B5C  58                pop ax
00000B5D  C3                ret
00000B5E  50                push ax
00000B5F  B005              mov al,0x5
00000B61  E62A              out 0x2a,al
00000B63  58                pop ax
00000B64  C3                ret
00003C2F  0030              add [bx+si],dh
00003C31  2B4E43            sub cx,[bp+0x43]
00003C34  4E                dec si
00003C35  40                inc ax
00003C36  4E                dec si
00003C37  4C                dec sp
00003C38  4E                dec si
00003C39  4F                dec di
00003C3A  4E                dec si
00003C3B  52                push dx
00003C3C  4E                dec si
00003C3D  55                push bp
00003C3E  4E                dec si
00003C3F  46                inc si
00003C40  4E                dec si
00003C41  49                dec cx
00003C42  3031              xor [bx+di],dh
00003C44  0303              add ax,[bp+di]
00003C46  0303              add ax,[bp+di]
00003C48  050505            add ax,0x505
00003C4B  0303              add ax,[bp+di]
00003C4D  07                pop es
00005A50  82                db 0x82
00005A51  58                pop ax
00005A52  AF                scasw
00005A53  58                pop ax
00005A54  DC5808            fcomp qword [bx+si+0x8]
00005A57  59                pop cx
00005A58  355962            xor ax,0x6259
00005A5B  59                pop cx
00005A5C  8F                db 0x8f
00005A5D  59                pop cx
00005A5E  BC59E9            mov sp,0xe959
00005A61  59                pop cx
00005A62  16                push ss
00005A63  5A                pop dx
00005A64  43                inc bx
00005A65  5A                pop dx
00005A66  6F                outsw
00005A67  5A                pop dx
00005A68  9B5A              wait pop dx
00005A6A  C85AF45A          enter 0xf45a,0x5a
00005A6E  205B4C            and [bp+di+0x4c],bl
00005A71  5B                pop bx
00005A72  795B              jns 0x5acf
00005A74  A6                cmpsb
00005A75  5B                pop bx
00005A76  D25BFF            rcr byte [bp+di-0x1],cl
00005A79  5B                pop bx
00005A7A  2C5C              sub al,0x5c
00005A7C  59                pop cx
00005A7D  5C                pop sp
00005A7E  865C86            xchg [si-0x7a],bl
00005A81  5C                pop sp
00005A82  E000              loopne 0x5a84
00005A88  0007              add [bx],al
00005A8A  C10000            rol word [bx+si],byte 0x0
00005A99  2005              and [di],al
00005AA3  036D5B            add bp,[di+0x5b]
00005AA6  8B5460            mov dx,[si+0x60]
00005AA9  001D              add [di],bl
00005AAB  5E                pop si
00005AAC  AF                scasw
00005AAD  D7                xlatb
00005AAE  AF                scasw
00005AAF  FFF0              push ax
00005AB1  20F7              and bh,dh
00005AB3  7821              js 0x5ad6
00005AB5  A013BC            mov al,[0xbc13]
00005AB8  A91AB1            test ax,0xb11a
00005ABB  807B7197          cmp byte [bp+di+0x71],0x97
00005ABF  58                pop ax
00005AC0  01FE              add si,di
00005AC2  F8                clc
00005AC3  219F5915          and [bx+0x1559],bx
00005AC7  801FD5            sbb byte [bx],0xd5
00005ACA  094881            or [bx+si-0x7f],cx
00005ACD  AF                scasw
00005ACE  F8                clc
00005ACF  41                inc cx
00005AD0  240F              and al,0xf
00005AD2  DF885885          fisttp word [bx+si-0x7aa8]
00005AD6  A1DAB1            mov ax,[0xb1da]
00005AD9  A01BFF            mov al,[0xff1b]
00005ADC  FF                db 0xff
00005ADD  FFF7              push di
00005ADF  BF8810            mov di,0x1088
00005AE2  1001              adc [bx+di],al
00005AE4  82                db 0x82
00005AE5  47                inc di
00005AE6  DF                db 0xdf
00005AE7  FF881110          dec word [bx+si+0x1011]
00005AEB  208EF5FE          and [bp-0x10b],cl
00005AEF  AF                scasw
00005AF0  D84442            fadd dword [si+0x42]
00005AF3  21884502          and [bx+si+0x245],cx
00005AF7  F9                stc
00005AF8  8D                db 0x8d
00005AF9  FF4281            inc word [bp+si-0x7f]
00005AFC  804076AF          add byte [bx+si+0x76],0xaf
00005B00  8A05              mov al,[di]
00005B02  0081FBFD          add [bx+di-0x205],al
00005B06  F7BFFC24          idiv word [bx+0x24fc]
00005B0A  3F                aas
00005B0B  87E7              xchg di,sp
00005B0D  E180              loope 0x5a8f
00005B0F  81018418          add word [bx+di],0x1884
00005B13  21848121          and [si+0x2181],ax
00005B17  DC813B88          fadd qword [bx+di-0x77c5]
00005B1B  EF                out dx,ax
00005B1C  11D9              adc cx,bx
00005B1E  819B51008AD9      sbb word [bp+di+0x51],0xd98a
00005B24  009B8900          add [bp+di+0x89],bl
00005B28  91                xchg ax,cx
00005B29  8900              mov [bx+si],ax
00005B2B  91                xchg ax,cx
00005B2C  8101C18F          add word [bx+di],0x8fc1
00005B30  0071F9            add [bx+di-0x7],dh
00005B33  FF5FFD            call far [bx-0x3]
00005B36  FF                db 0xff
00005B37  FF                db 0xff
00005B38  BE1024            mov si,0x2410
00005B3B  0019              add [bx+di],bl
00005B3D  1415              adc al,0x15
00005B3F  7A6D              jpe 0x5bae
00005B41  5F                pop di
00005B42  04ED              add al,0xed
00005B44  95                xchg ax,bp
00005B45  C7                db 0xc7
00005B46  F006              lock push es
00005B48  104046            adc [bx+si+0x46],al
00005B4B  7A15              jpe 0x5b62
00005B4D  1F                pop ds
00005B4E  316D44            xor [di+0x44],bp
00005B51  43                inc bx
00005B52  95                xchg ax,bp
00005B53  A5                movsw
00005B54  5D                pop bp
00005B55  0CC6              or al,0xc6
00005B57  114426            adc [si+0x26],ax
00005B5A  5A                pop dx
00005B5B  50                push ax
00005B5C  40                inc ax
00005B5D  307F7F            xor [bx+0x7f],bh
00005B60  FF                db 0xff
00005B61  EF                out dx,ax
00005B62  7FFF              jg 0x5b63
00005B64  FF                db 0xff
00005B65  FF                db 0xff
00005B66  EC                in al,dx
00005B67  7188              jno 0x5af1
00005B69  007382            add [bp+di-0x7e],dh
00005B6C  01C7              add di,ax
00005B6E  C21C38            ret 0x381c
00005B71  51                push cx
00005B72  C6                db 0xc6
00005B73  63F8              arpl ax,di
00005B75  2C10              sub al,0x10
00005B77  3C79              cmp al,0x79
00005B79  866071            xchg [bx+si+0x71],ah
00005B7C  1C8C              sbb al,0x8c
00005B7E  43                inc bx
00005B7F  FD                std
00005B80  D7                xlatb
00005B81  1804              sbb [si],al
00005B83  008801C6          add [bx+si-0x39ff],cl
00005B87  C7018737          mov word [bx+di],0x3787
00005B8B  FF                db 0xff
00005B8C  FF                db 0xff
00005B8D  FF                db 0xff
00005B8E  FE                db 0xfe
00005B8F  FF                db 0xff
00005B90  F8                clc
00005B91  7FFF              jg 0x5b92
00005B93  E440              in al,0x40
00005B95  89FE              mov si,di
00005B97  90                nop
00005B98  48                dec ax
00005B99  A5                movsw
00005B9A  F0152A03          lock adc ax,0x32a
00005B9E  F7502B            not word [bx+si+0x2b]
00005BA1  BE5400            mov si,0x54
00005BA4  0A990000          or bl,[bx+di+0x0]
00005BA8  0276D4            add dh,[bp-0x2c]
00005BAB  0ADB              or bl,bl
00005BAD  C214A9            ret 0xa914
00005BB0  0FE112            psraw mm2,[bp+si]
00005BB3  217811            and [bx+si+0x11],di
00005BB6  0227              add ah,[bx]
00005BB8  EF                out dx,ax
00005BB9  FE                db 0xfe
00005BBA  1F                pop ds
00005BBB  FF8A6A44          dec word [bp+si+0x446a]
00005BBF  54                push sp
00005BC0  0801              or [bx+di],al
00005BC2  000B              add [bp+di],cl
00005BC4  E224              loop 0x5bea
00005BC6  0420              add al,0x20
00005BC8  0010              add [bx+si],dl
00005BCA  0004              add [si],al
00005BCE  0400              add al,0x0
00005BD0  A1001F            mov ax,[0x1f00]
00005BD3  0010              add [bx+si],dl
00005BD7  0200              add al,[bx+si]
00005BD9  0100              add [bx+si],ax
00005BDD  00A00004          add [bx+si+0x400],ah
00005BE1  0010              add [bx+si],dl
00005BE5  2448              and al,0x48
00005BE7  844904            test [bx+di+0x4],cl
00005BF2  0001              add [bx+di],al
00005BF4  C00410            rol byte [si],byte 0x10
00005BF7  0004              add [si],al
00005BF9  0007              add [bx],al
00005BFD  60                pusha
00005BFE  001E201E          add [0x1e20],bl
00005C02  004180            add [bx+di-0x80],al
00005C05  0038              add [bx+si],bh
00005C07  0008              add [bx+si],cl
00005C09  0002              add [bp+si],al
00005C0D  E000              loopne 0x5c0f
00005C0F  01F2              add dx,si
00005C11  004000            add [bx+si+0x0],al
00005C14  57                push di
00005C15  80E3FF            and bl,0xff
00005C18  7FFC              jg 0x5c16
00005C1A  82                db 0x82
00005C1B  05001A            add ax,0x1a00
00005C1E  2A04              sub al,[si]
00005C20  7C60              jl 0x5c82
00005C22  A2D001            mov [0x1d0],al
00005C25  82                db 0x82
00005C26  82                db 0x82
00005C27  7D6E              jnl 0x5c97
00005C29  4A                dec dx
00005C2A  8800              mov [bx+si],al
00005C2C  1822              sbb [bp+si],ah
00005C2E  2000              and [bx+si],al
00005C30  60                pusha
00005C31  E09B              loopne 0x5bce
00005C33  5F                pop di
00005C34  82                db 0x82
00005C35  0B4004            or ax,[bx+si+0x4]
00005C38  0C81              or al,0x81
00005C3A  1F                pop ds
00005C3B  1000              adc [bx+si],al
00005C3D  1400              adc al,0x0
00005C3F  40                inc ax
00005C40  FF                db 0xff
00005C41  DF                db 0xdf
00005C42  FF                db 0xff
00005C43  FF                db 0xff
00005C44  FF                db 0xff
00005C45  FF808008          inc word [bx+si+0x880]
00005C49  00808208          add [bx+si+0x882],al
00005C4D  20828208          and [bp+si+0x882],al
00005C51  2081EFBE          and [bx+di-0x4111],al
00005C55  FB                sti
00005C56  8180080081AF      add word [bx+si+0x8],0xaf81
00005C5C  88FB              mov bl,bh
00005C5E  81A8A28801A8      sub word [bx+si-0x775e],0xa801
00005C64  888B80A0          mov [bp+di-0x5f80],cl
00005C68  0800              or [bx+si],al
00005C6A  80BFFFFF88        cmp byte [bx-0x1],0x88
00005C6F  FFF5              push bp
00005C71  56                push si
00005C72  0ADD              or bl,ch
00005C74  1A8A152A          sbb cl,[bp+si+0x2a15]
00005C78  AF                scasw
00005C79  55                push bp
00005C7A  AE                scasb
00005C7B  B016              mov al,0x16
00005C7D  BED558            mov si,0x58d5
00005C80  23556E            and dx,[di+0x6e]
00005C83  BC00AE            mov sp,0xae00
00005C86  F5                cmc
00005C87  56                push si
00005C88  EAC55E8B55        jmp 0x558b:0x5ec5
00005C8D  60                pusha
00005C8E  8D55AA            lea dx,[di-0x56]
00005C91  B576              mov ch,0x76
00005C93  EA810AABDD        jmp 0xddab:0xa81
00005C98  42                inc dx
00005C99  0FFF              ud0
00005C9B  3B7B7F            cmp di,[bp+di+0x7f]
00005C9E  FC                cld
00005C9F  0405              add al,0x5
00005CA1  1010              adc [bx+si],dl
00005CA3  1014              adc [si],dl
00005CA5  006000            add [bx+si+0x0],ah
00005CA8  91                xchg ax,cx
00005CA9  FB                sti
00005CAA  80406C06          add byte [bx+si+0x6c],0x6
00005CB0  0018              add [bx+si],bl
00005CB2  00060060          add [0x6000],al
00005CB6  0110              add [bx+si],dx
00005CB8  01800040          add [bx+si+0x4000],ax
00005CBC  0412              add al,0x12
00005CBE  01E0              add ax,sp
00005CC0  1002              adc [bp+si],al
00005CC2  0400              add al,0x0
00005CC4  4E                dec si
00005CC5  DE                db 0xde
00005CC6  D7                xlatb
00005CC7  FF                db 0xff
00005CC8  FB                sti
00005CC9  FF                db 0xff
00005CCA  DF                db 0xdf
00005CCB  DFE0              fnstsw ax
00005CCD  E3C9              jcxz 0x5c98
00005CCF  87C0              xchg ax,ax
00005CD1  41                inc cx
00005CD2  8083C01B80        add byte [bp+di+0x1bc0],0x80
00005CD7  C3                ret
00005CD8  C00F00            ror byte [bx],byte 0x0
00005CDB  01840000          add [si+0x0],ax
00005CDF  61                popa
00005CE0  800700            add byte [bx],0x0
00005CE3  C1800DE0E1        rol word [bx+si-0x1ff3],byte 0xe1
00005CE8  A004F8            mov al,[0xf804]
00005CEB  71B8              jno 0x5ca5
00005CED  C00D1B            ror byte [di],byte 0x1b
00005CF0  BBFFDF            mov bx,0xdfff
00005CF3  DF10              fist word [bx+si]
00005CF5  07                pop es
00005CF6  01B06309          add [bx+si+0x963],si
00005CFA  2124              and [si],sp
00005CFC  2085C080          and [di-0x7f40],al
00005D00  1DC080            sbb ax,0x80c0
00005D03  94                xchg ax,sp
00005D04  0E                push cs
00005D05  E104              loope 0x5d0b
00005D07  20841082          and [si-0x7df0],al
00005D0B  104208            adc [bp+si+0x8],al
00005D0E  40                inc ax
00005D0F  1E                push ds
00005D10  E050              loopne 0x5d62
00005D12  3B8410B8          cmp ax,[si-0x47f0]
00005D16  1003              adc [bp+di],al
00005D18  38410B            cmp [bx+di+0xb],al
00005D1B  2104              and [si],ax
00005D1D  3B8140FB          cmp ax,[bx+di-0x4c0]
00005D21  FF                db 0xff
00005D22  FFD7              call di
00005D24  0A00              or al,[bx+si]
00005D26  0091AAAA          add [bx+di-0x5556],dl
00005D2A  AA                stosb
00005D2B  91                xchg ax,cx
00005D2C  82                db 0x82
00005D2F  97                xchg ax,di
00005D30  86AAAA91          xchg [bp+si-0x6e56],ch
00005D34  F00000            lock add [bx+si],al
00005D37  DD9EAAAA          fstp qword [bp-0x5556]
00005D3B  818200002DAA      add word [bp+si+0x0],0xaa2d
00005D41  AA                stosb
00005D42  AB                stosw
00005D43  7980              jns 0x5cc5
00005D45  0002              add [bp+si],al
00005D47  41                inc cx
00005D48  FB                sti
00005D49  FF                db 0xff
00005D4A  FE                db 0xfe
00005D4B  D7                xlatb
00005D4C  17                pop ss
00005D4D  1D0307            sbb ax,0x703
00005D52  C78219CC2300      mov word [bp+si-0x33e7],0x23
00005D58  42                inc dx
00005D59  6786A40C3A5E69B4  xchg [dword esp+ecx-0x4b96a1c6],ah
00005D61  B299              mov dl,0x99
00005D63  61                popa
00005D64  2D93B2            sub ax,0xb293
00005D67  5D                pop bp
00005D68  8E654C            mov fs,[di+0x4c]
00005D6B  0444              add al,0x44
00005D6D  18CC              sbb ah,cl
00005D6F  7F38              jg 0x5da9
00005D71  80060001C1        add byte [0x100],0xc1
00005D76  8171D05BEA        xor word [bx+di-0x30],0xea5b
00005D7B  41                inc cx
00005D7C  B058              mov al,0x58
00005D7E  7D5C              jnl 0x5ddc
00005D80  196EB4            sbb [bp-0x4c],bp
00005D83  1805              sbb [di],al
00005D85  57                push di
00005D86  E90972            jmp 0xcf92
00005D89  A820              test al,0x20
00005D8B  BF6845            mov di,0x4568
00005D8E  55                push bp
00005D8F  D101              rol word [bx+di],1
00005D91  5F                pop di
00005D92  D841AD            fadd dword [bx+di-0x53]
00005D95  D204              rol byte [si],cl
00005D97  BFD825            mov di,0x25d8
00005D9A  6A18              push byte +0x18
00005D9C  BAB916            mov dx,0x16b9
00005D9F  3D885B            cmp ax,0x5b88
00005DA2  1100              adc [bx+si],ax
00005DA4  50                push ax
00005DA5  3AFF              cmp bh,bh
00005DA7  FB                sti
00005DA8  DF                db 0xdf
00005DA9  FF820A50          inc word [bp+si+0x500a]
00005DAD  41                inc cx
00005DAE  82                db 0x82
00005DAF  0A5041            or dl,[bx+si+0x41]
00005DB2  800A50            or byte [bp+si],0x50
00005DB5  0192A815          add [bp+si+0x15a8],dx
00005DB9  41                inc cx
00005DBA  92                xchg ax,dx
00005DBB  AE                scasb
00005DBC  7577              jnz 0x5e35
00005DBE  D6                salc
00005DBF  A815              test al,0x15
00005DC1  51                push cx
00005DC2  92                xchg ax,dx
00005DC5  51                push cx
00005DC6  82                db 0x82
00005DC7  0810              or [bx+si],dl
00005DC9  51                push cx
00005DCA  82                db 0x82
00005DCB  0810              or [bx+si],dl
00005DCD  41                inc cx
00005DCE  FF                db 0xff
00005DCF  FB                sti
00005DD0  DF                db 0xdf
00005DD1  FF5BBF            call far [bp+di-0x41]
00005DD4  F5                cmc
00005DD5  2200              and al,[bx+si]
00005DD7  69BB7D44101B      imul di,[bp+di+0x447d],word 0x1b10
00005DDD  AF                scasw
00005DDE  AE                scasb
00005DDF  C00119            rol byte [bx+di],byte 0x19
00005DE2  681AB0            push word 0xb01a
00005DE5  60                pusha
00005DE6  15BE03            adc ax,0x3be
00005DE9  AC                lodsb
00005DEA  40                inc ax
00005DEB  156A00            adc ax,0x6a
00005DEE  AA                stosb
00005DEF  54                push sp
00005DF0  150ABE            adc ax,0xbe0a
00005DF3  AB                stosw
00005DF4  50                push ax
00005DF5  1046FA            adc [bp-0x6],al
00005DF8  FE                db 0xfe
00005DF9  B100              mov cl,0x0
00005DFB  05777F            add ax,0x7f77
00005DFE  90                nop
00005DFF  3ECE              ds into
00005E01  27                daa
00005E02  8B18              mov bx,[bx+si]
00005E04  01F6              add si,si
00005E06  F20476            repne add al,0x76
00005E09  EC                in al,dx
00005E0A  03969809          add dx,[bp+0x998]
00005E0E  D6                salc
00005E0F  35061F            xor ax,0x1f06
00005E12  C00000            rol byte [bx+si],byte 0x0
00005E15  0200              add al,[bx+si]
00005E1B  40                inc ax
00005E20  0002              add [bp+si],al
00005E28  800000            add byte [bx+si],0x0
00005E2B  00FB              add bl,bh
00005E2D  7FDF              jg 0x5e0e
00005E2F  7F80              jg 0x5db1
00005E31  60                pusha
00005E32  001C              add [si],bl
00005E34  B4C0              mov ah,0xc0
00005E36  00721B            add [bp+si+0x1b],dh
00005E39  EBFF              jmp short 0x5e3a
00005E3B  9B46              wait inc si
00005E3D  000E4852          add [0x5248],cl
00005E41  B039              mov al,0x39
00005E43  210A              and [bp+si],cx
00005E45  C026D10003        shl byte [0xd1],byte 0x3
00005E4A  C86FAFFF          enter 0xaf6f,0xff
00005E4E  2D3000            sub ax,0x30
00005E51  1E                push ds
00005E52  0180007E          add [bx+si+0x7e00],ax
00005E56  DFF7              fcomip st7
00005E58  DF00              fild word [bx+si]
00005E5A  3F                aas
00005E5B  D002              rol byte [bp+si],1
00005E5D  2100              and [bx+si],ax
00005E5F  2ED002            rol byte [cs:bp+si],1
00005E62  0100              add [bx+si],ax
00005E64  27                daa
00005E65  D003              rol byte [bp+di],1
00005E67  47                inc di
00005E68  0021              add [bx+di],ah
00005E6A  0003              add [bp+di],al
00005E6C  FFE0              jmp ax
00005E6E  0008              add [bx+si],cl
00005E70  0400              add al,0x0
00005E72  A1401A            mov ax,[0x1a40]
00005E75  1400              adc al,0x0
00005E77  80400F7E          add byte [bx+si+0xf],0x7e
00005E7B  0180600F          add [bx+si+0xf60],ax
00005E7F  7E00              jng 0x5e81
00005E81  1000              adc [bx+si],al
00005E83  01FE              add si,di
00005E85  05FFC0            add ax,0xc0ff
00005EB0  0FFC00            paddb mm0,[bx+si]
00006243  0008              add [bx+si],cl
00006245  000A              add [bp+si],cl
00006247  020A              add cl,[bp+si]
00006249  0008              add [bx+si],cl
0000624B  0209              add cl,[bx+di]
0000624D  0108              add [bx+si],cx
0000624F  010A              add [bp+si],cx
00006251  0109              add [bx+di],cx
00006253  0009              add [bx+di],cl
00006255  0203              add al,[bp+di]
00006257  0F1E09            hint_nop49 word [bx+di]
0000625A  1203              adc al,[bp+di]
0000625C  0902              or [bp+si],ax
0000625E  0C05              or al,0x5
00006260  0911              or [bx+di],dx
00006262  07                pop es
00006263  091A              or [bp+si],bx
00006265  0215              add dl,[di]
00006267  0A04              or al,[si]
00006269  0108              add [bx+si],cx
0000626B  0B07              or ax,[bx]
0000626D  0111              add [bx+di],dx
0000626F  0B11              or dx,[bx+di]
00006271  0E                push cs
00006272  140F              adc al,0xf
00006274  0301              add ax,[bx+di]
00006276  090D              or [di],cx
00006278  051231            add ax,0x3112
0000627B  3233              xor dh,[bp+di]
0000627D  3435              xor al,0x35
0000627F  3637              ss aaa
00006281  3839              cmp [bx+di],bh
00006283  3031              xor [bx+di],dh
00006285  3233              xor dh,[bp+di]
00006287  3435              xor al,0x35
00006289  3637              ss aaa
0000628B  3839              cmp [bx+di],bh
0000628D  3031              xor [bx+di],dh
0000628F  3233              xor dh,[bp+di]
00006291  3435              xor al,0x35
000062BD  0004              add [si],al
000062BF  1205              adc al,[di]
000062C1  1006120A          adc [0xa12],al
000062C5  100B              adc [bp+di],cl
000062C7  120C              adc cl,[si]
000062C9  100D              adc [di],cl
000062CB  1203              adc al,[bp+di]
000062CD  0D010D            or ax,0xd01
000062D0  0109              add [bx+di],cx
000062D2  0107              add [bx],ax
000062D4  02060307          add al,[0x703]
000062D8  0409              add al,0x9
000062DA  100D              adc [di],cl
000062DC  0D0D0F            or ax,0xf0d
000062DF  06                push es
000062E0  1007              adc [bx],al
000062E2  0C09              or al,0x9
000062E4  0D080E            or ax,0xe08
000062E7  07                pop es
0000632A  50                push ax
0000632B  3005              xor [di],al
0000632D  0D0610            or ax,0x1006
00006330  59                pop cx
00006331  660000            o32 add [bx+si],al
00006334  52                push dx
00006335  A05908            mov al,[0x859]
0000633A  52                push dx
0000633B  AC                lodsb
0000633C  1A6250            sbb ah,[bp+si+0x50]
0000633F  1805              sbb [di],al
00006341  0D0406            or ax,0x604
00006344  59                pop cx
00006345  035980            add bx,[bx+di-0x80]
00006348  52                push dx
00006349  AE                scasb
0000634A  59                pop cx
0000634B  30802052          xor [bx+si+0x5220],al
0000634F  BA3862            mov dx,0x6238
00006352  60                pusha
00006353  28061005          sub [0x510],al
00006357  0D6468            or ax,0x6864
0000635C  04A5              add al,0xa5
0000635E  640800            or [fs:bx+si],al
00006361  0054A5            add [si-0x5b],dl
00006364  60                pusha
00006365  6230              bound si,[bx+si]
00006367  260406            es add al,0x6
0000636A  050D02            add ax,0x20d
0000636D  9C                pushf
0000636E  709C              jo 0x630c
00006370  3461              xor al,0x61
00006372  3407              xor al,0x7
00006374  E000              loopne 0x6376
00006376  34A4              xor al,0xa4
00006378  866280            xchg [bp+si-0x80],ah
0000637B  1E                push ds
0000637C  08160409          or [0x904],dl
00006380  027C00            add bh,[si+0x0]
00006383  0002              add [bp+si],al
00006385  AC                lodsb
00006386  4C                dec sp
00006387  7B00              jpo 0x6389
00006389  0002              add [bp+si],al
0000638B  BAAC62            mov dx,0x62ac
0000638E  40                inc ax
0000638F  1A05              sbb al,[di]
00006391  0904              or [si],ax
00006393  07                pop es
00006394  037E70            add di,[bp+0x70]
00006397  7E04              jng 0x639d
00006399  6B337A            imul si,[bp+di],byte +0x7a
0000639C  B000              mov al,0x0
0000639E  54                push sp
0000639F  6BC962            imul cx,cx,byte +0x62
000063A2  90                nop
000063A3  180A              sbb [bp+si],cl
000063A5  1A04              sbb al,[si]
000063A7  06                push es
000063A8  026400            add ah,[si+0x0]
000063AB  0002              add [bp+si],al
000063AD  94                xchg ax,sp
000063AE  4C                dec sp
000063AF  6300              arpl [bx+si],ax
000063B1  0002              add [bp+si],al
000063B3  A0EE62            mov al,[0x62ee]
000063B6  4C                dec sp
000063B7  1805              sbb [di],al
000063B9  0D0406            or ax,0x604
000063BC  037670            add si,[bp+0x70]
000063BF  7604              jna 0x63c5
000063C1  6333              arpl [bp+di],si
000063C3  72A8              jc 0x636d
000063C5  005463            add [si+0x63],dl
000063C8  0B6358            or sp,[bp+di+0x58]
000063CB  2C03              sub al,0x3
000063CD  11060E5F          adc [0x5f0e],ax
000063D1  5D                pop bp
000063D4  58                pop ax
000063D5  98                cbw
000063D6  5F                pop di
000063D7  0400              add al,0x0
000063D9  0058A4            add [bx+si-0x5c],bl
000063DC  306330            xor [bp+di+0x30],ah
000063DF  260406            es add al,0x6
000063E2  06                push es
000063E3  0B02              or ax,[bp+si]
000063E5  9C                pushf
000063E6  6C                insb
000063E7  6446              fs inc si
000063E9  A36608            mov [0x866],ax
000063EC  680046            push word 0x4600
000063EF  AF                scasw
000063F0  49                dec cx
000063F1  635024            arpl [bx+si+0x24],dx
000063F4  0111              add [bx+di],dx
000063F6  010F              add [bx],cx
000063F8  6C                insb
000063F9  8C00              mov [bx+si],es
000063FB  008DA666          add [di+0x66a6],cl
000063FF  0300              add ax,[bx+si]
00006401  006656            add [bp+0x56],ah
00006404  6F                outsw
00006405  63602C            arpl [bx+si+0x2c],sp
00006408  0113              add [bp+di],dx
0000640A  0114              add [si],dx
0000640C  6C                insb
0000640D  8C00              mov [bx+si],es
0000640F  008DA666          add [di+0x66a6],cl
00006413  0300              add ax,[bx+si]
00006415  006656            add [bp+0x56],ah
00006418  6F                outsw
00006419  634201            arpl [bp+si+0x1],ax
0000641C  6A02              push byte +0x2
0000641E  004201            add [bp+si+0x1],al
00006421  6A02              push byte +0x2
00006423  5C                pop sp
00006424  42                inc dx
00006425  016A02            add [bp+si+0x2],bp
00006428  98                cbw
00006429  42                inc dx
0000642A  016A02            add [bp+si+0x2],bp
0000642D  BEFF00            mov si,0xff
00006430  BE4201            mov si,0x142
00006433  00BE6A02          add [bp+0x26a],bh
00006437  FF4201            inc word [bp+si+0x1]
0000643A  6A02              push byte +0x2
0000643C  004201            add [bp+si+0x1],al
0000643F  6A02              push byte +0x2
00006441  2C00              sub al,0x0
00006443  004201            add [bp+si+0x1],al
00006446  6442              fs inc dx
00006448  016A02            add [bp+si+0x2],bp
0000644B  7E42              jng 0x648f
0000644D  016A02            add [bp+si+0x2],bp
00006450  AA                stosb
00006451  42                inc dx
00006452  016A02            add [bp+si+0x2],bp
00006455  C6                db 0xc6
00006456  FF00              inc word [bx+si]
00006458  C6420100          mov byte [bp+si+0x1],0x0
0000645C  C6                db 0xc6
0000645D  6A02              push byte +0x2
0000645F  FF82017E          inc word [bp+si+0x7e01]
00006463  0200              add al,[bx+si]
00006465  82                db 0x82
00006466  017E02            add [bp+0x2],di
00006469  60                pusha
0000646A  0200              add al,[bx+si]
0000646C  7E02              jng 0x6470
0000646E  A20200            mov [0x2],al
00006471  7E02              jng 0x6475
00006473  B2FF              mov dl,0xff
00006475  A2B202            mov [0x2b2],al
00006478  00A2B242          add [bp+si+0x42b2],ah
0000647C  0100              add [bx+si],ax
0000647E  A28201            mov [0x182],al
00006481  00B27E02          add [bp+si+0x27e],dh
00006485  FFC4              inc sp
00006487  00BC0100          add [si+0x1],bh
0000648B  C400              les ax,[bx+si]
0000648D  BC0158            mov sp,0x5801
00006492  7C02              jl 0x6496
00006494  9A00007C02        call 0x27c:0x0
00006499  C6                db 0xc6
0000649A  FF9AC600          call far [bp+si+0xc6]
000064A0  C6C400            mov ah,0x0
000064A3  00C6              add dh,al
000064A5  BC019A            mov sp,0x9a01
000064A8  C6                db 0xc6
000064A9  7C02              jl 0x64ad
000064AB  FF00              inc word [bx+si]
000064AD  0018              add [bx+si],bl
000064AF  027900            add bh,[bx+di+0x0]
000064B2  002C              add [si],ch
000064B4  01A70000          add [bx+0x0],sp
000064B8  1802              sbb [bp+si],al
000064BA  C7                db 0xc7
000064BB  FF                db 0xff
000064BC  79C7              jns 0x6485
000064C0  79C7              jns 0x6489
000064C2  2C01              sub al,0x1
000064C4  79C7              jns 0x648d
000064C6  1802              sbb [bp+si],al
000064C8  FF00              inc word [bx+si]
000064CA  007C02            add [si+0x2],bh
000064CD  6900007C          imul ax,[bx+si],word 0x7c00
000064D1  027700            add dh,[bx+0x0]
000064D4  007C02            add [si+0x2],bh
000064D7  C7                db 0xc7
000064D8  FF69C7            jmp far [bx+di-0x39]
000064DD  77C7              ja 0x64a6
000064DF  C8006977          enter 0x6900,0x77
000064E3  40                inc ax
000064E4  0177C7            add [bx-0x39],si
000064E7  B80169            mov ax,0x6901
000064EA  C7                db 0xc7
000064EB  7C02              jl 0x64ef
000064ED  FF00              inc word [bx+si]
000064EF  0018              add [bx+si],bl
000064F1  026100            add ah,[bx+di+0x0]
000064F4  002C              add [si],ch
000064F6  018F0000          add [bx+0x0],cx
000064FA  1802              sbb [bp+si],al
000064FC  AF                scasw
000064FD  FF61AF            jmp [bx+di-0x51]
00006502  61                popa
00006503  AF                scasw
00006504  2C01              sub al,0x1
00006506  61                popa
00006507  AF                scasw
00006508  1802              sbb [bp+si],al
0000650A  FF00              inc word [bx+si]
0000650C  007C02            add [si+0x2],bh
0000650F  61                popa
00006512  7C02              jl 0x6516
00006514  6F                outsw
00006517  7C02              jl 0x651b
00006519  BFFF61            mov di,0x61ff
0000651C  BF0000            mov di,0x0
0000651F  6F                outsw
00006520  BFC800            mov di,0xc8
00006523  016F40            add [bx+0x40],bp
00006526  016FBF            add [bx-0x41],bp
00006529  B80161            mov ax,0x6101
0000652C  BF7C02            mov di,0x27c
0000652F  FF6201            jmp [bp+si+0x1]
00006532  7A02              jpe 0x6536
00006534  006201            add [bp+si+0x1],ah
00006537  7A02              jpe 0x653b
00006539  54                push sp
0000653A  6201              bound ax,[bx+di]
0000653C  7A02              jpe 0x6540
0000653E  96                xchg ax,si
0000653F  FF00              inc word [bx+si]
00006541  96                xchg ax,si
00006542  6201              bound ax,[bx+di]
00006544  00967A02          add [bp+0x27a],dl
00006548  FF94017E          call [si+0x7e01]
0000654C  0200              add al,[bx+si]
0000654E  96                xchg ax,si
0000654F  017C02            add [si+0x2],di
00006552  5B                pop bx
00006555  7C02              jl 0x6559
00006557  99                cwd
0000655A  7C02              jl 0x655e
0000655C  C7                db 0xc7
0000655D  FF99C700          call far [bx+di+0xc7]
00006561  0001              add [bx+di],al
00006563  C7                db 0xc7
00006564  C8000199          enter 0x100,0x99
00006568  94                xchg ax,sp
00006569  0101              add [bx+di],ax
0000656B  C7                db 0xc7
0000656C  7C02              jl 0x6570
0000656E  FF00              inc word [bx+si]
00006570  00840100          add [si+0x1],al
00006574  94                xchg ax,sp
00006575  017C02            add [si+0x2],di
00006578  0004              add [si],al
0000657A  00800102          add [bx+si+0x201],al
0000657E  94                xchg ax,sp
0000657F  017C02            add [si+0x2],di
00006582  50                push ax
00006583  94                xchg ax,sp
00006584  017C02            add [si+0x2],di
00006587  54                push sp
00006588  94                xchg ax,sp
00006589  017C02            add [si+0x2],di
0000658C  86A4016C          xchg [si+0x6c01],ah
00006590  028A0400          add cl,[bp+si+0x4]
00006594  8001B6            add byte [bx+di],0xb6
00006599  8401              test [bx+di],al
0000659B  B8A401            mov ax,0x1a4
0000659E  6C                insb
0000659F  02B8FF00          add bh,[bx+si+0xff]
000065A3  B80000            mov ax,0x0
000065A6  02B60400          add dh,[bp+0x4]
000065AA  02B61400          add dh,[bp+0x14]
000065AE  02B61800          add dh,[bp+0x18]
000065B2  02B66C01          add dh,[bp+0x16c]
000065B6  02B67001          add dh,[bp+0x170]
000065BA  02B68001          add dh,[bp+0x180]
000065BE  00B88401          add [bx+si+0x184],bh
000065C2  005094            add [bx+si-0x6c],dl
000065C5  015486            add [si-0x7a],dx
000065C8  94                xchg ax,sp
000065C9  018AB8A4          add [bp+si-0x5b48],cx
000065CD  0100              add [bx+si],ax
000065CF  50                push ax
000065D0  7C02              jl 0x65d4
000065D2  54                push sp
000065D3  877C02            xchg [si+0x2],di
000065D6  8AB86C02          mov bh,[bx+si+0x26c]
000065DA  FF12              call [bp+si]
000065DC  1403              adc al,0x3
000065DE  02550C            add dl,[di+0xc]
000065E1  1E                push ds
000065E2  0302              add ax,[bp+si]
000065E4  55                push bp
000065E5  200B              and [bp+di],cl
000065E7  0908              or [bx+si],cx
000065E9  55                push bp
000065EA  180F              sbb [bx],cl
000065EC  050455            add ax,0x5504
000065EF  1E                push ds
000065F0  0C01              or al,0x1
000065F2  005524            add [di+0x24],dl
000065F5  0A07              or al,[bx]
000065F7  06                push es
000065F8  55                push bp
000065F9  1E                push ds
000065FA  0C01              or al,0x1
000065FC  00551E            add [di+0x1e],dl
000065FF  0C01              or al,0x1
00006601  005512            add [di+0x12],dl
00006604  1409              adc al,0x9
00006606  08581E            or [bx+si+0x1e],bl
00006609  0C01              or al,0x1
0000660B  005820            add [bx+si+0x20],bl
0000660E  0B09              or cx,[bx+di]
00006610  08580B            or [bx+si+0xb],bl
00006613  2009              and [bx+di],cl
00006615  08581E            or [bx+si+0x1e],bl
00006618  0C01              or al,0x1
0000661A  005820            add [bx+si+0x20],bl
0000661D  0B09              or cx,[bx+di]
0000661F  08580B            or [bx+si+0xb],bl
00006622  2009              and [bx+di],cl
00006624  085820            or [bx+si+0x20],bl
00006627  0B09              or cx,[bx+di]
00006629  085B14            or [bp+di+0x14],bl
0000662C  1205              adc al,[di]
0000662E  046D              add al,0x6d
00006630  0C1E              or al,0x1e
00006632  0302              add ax,[bp+si]
00006634  7220              jc 0x6656
00006636  0B09              or cx,[bx+di]
00006638  085B15            or [bp+di+0x15],bl
0000663B  1105              adc [di],ax
0000663D  08720C            or [bp+si+0xc],dh
00006640  1E                push ds
00006641  0902              or [bp+si],ax
00006643  5B                pop bx
00006644  1E                push ds
00006645  0C01              or al,0x1
00006647  005B14            add [bp+di+0x14],bl
0000664A  120A              adc cl,[bp+si]
0000664C  0A550A            or dl,[di+0xa]
0000664F  240A              and al,0xa
00006651  0A5B0A            or bl,[bp+di+0xa]
00006654  240A              and al,0xa
00006656  0A5B8A            or bl,[bp+di-0x76]
00006659  649C              fs pushf
0000665B  64AE              fs scasb
0000665D  64BE64CE          fs mov si,0xce64
00006661  64E864FA          fs call 0x60c9
00006665  640E              fs push cs
00006667  651E              gs push ds
00006669  652E653E654E      gs dec si
0000666F  655E              gs pop si
00006671  656E              gs outsb
00006673  657E65            gs jng 0x66db
00006676  8E65AE            mov fs,[di-0x52]
00006679  65BE65CE          gs mov si,0xce65
0000667D  65DE65F2          fisub word [gs:di-0xe]
00006681  65026612          add ah,[gs:bp+0x12]
00006685  661E              o32 push ds
00006687  661E              o32 push ds
00006689  660100            add [bx+si],eax
0000668C  010B              add [bp+di],cx
0000668E  0112              add [bp+si],dx
00006690  06                push es
00006691  0A09              or cl,[bx+di]
00006693  040E              add al,0xe
00006695  0F1012            movups xmm2,oword [bp+si]
00006698  1103              adc [bp+di],ax
0000669A  110A              adc [bp+si],cx
0000669C  06                push es
0000669D  0100              add [bx+si],ax
0000669F  07                pop es
000066A0  0B07              or ax,[bx]
000066A2  06                push es
000066A3  090A              or [bp+si],cx
000066A5  0C02              or al,0x2
000066A7  1108              adc [bx+si],cx
000066A9  1404              adc al,0x4
000066AB  1808              sbb [bx+si],cl
000066AD  1A04              sbb al,[si]
000066AF  06                push es
000066B0  07                pop es
000066B1  0009              add [bx+di],cl
000066B3  0A0A              or cl,[bp+si]
000066B5  0411              add al,0x11
000066B7  0A160016          or dl,[0x1600]
000066BB  07                pop es
000066BC  1F                pop ds
000066BD  07                pop es
000066BE  040A              add al,0xa
000066C0  050407            add ax,0x704
000066C3  0908              or [bx+si],cx
000066C5  020F              add cl,[bx]
000066C7  0410              add al,0x10
000066C9  0912              or [bp+si],dx
000066CB  0413              add al,0x13
000066CD  0A00              or al,[bx+si]
000066CF  07                pop es
000066D0  05090B            add ax,0xb09
000066D3  000B              add [bp+di],cl
000066D5  06                push es
000066D6  1407              adc al,0x7
000066D8  17                pop ss
000066D9  021D              add bl,[di]
000066DB  021D              add bl,[di]
000066DD  0801              or [bx+di],al
000066DF  0009              add [bx+di],cl
000066E1  0B11              or dx,[bx+di]
000066E3  0017              add [bx],dl
000066E5  0818              or [bx+si],bl
000066E7  050508            add ax,0x805
000066EA  06                push es
000066EB  0209              add cl,[bx+di]
000066ED  07                pop es
000066EE  0E                push cs
000066EF  0011              add [bx+di],dl
000066F1  06                push es
000066F2  17                pop ss
000066F3  021B              add bl,[bp+di]
000066F5  051B09            add ax,0x91b
000066F8  2302              and ax,[bp+si]
000066FA  03060800          add ax,[0x8]
000066FE  080B              or [bp+di],cl
00006700  0B04              or ax,[si]
00006702  0B07              or ax,[bx]
00006704  1204              adc al,[si]
00006706  1207              adc al,[bx]
00006708  150015            adc ax,0x1500
0000670B  0B1A              or bx,[bp+si]
0000670D  06                push es
0000670E  01060504          add [0x405],ax
00006712  0900              or [bx+si],ax
00006714  0F06              clts
00006716  1101              adc [bx+di],ax
00006718  07                pop es
00006719  0A19              or bl,[bx+di]
0000671B  021A              add bl,[bp+si]
0000671D  0A00              or al,[bx+si]
0000671F  0903              or [bp+di],ax
00006721  1305              adc ax,[di]
00006723  00060A0B          add [0xb0a],al
00006727  050B0B            add ax,0xb0b
0000672A  0C11              or al,0x11
0000672C  110B              adc [bp+di],cx
0000672E  0305              add ax,[di]
00006730  07                pop es
00006731  07                pop es
00006732  0E                push cs
00006733  040E              add al,0xe
00006735  07                pop es
00006736  17                pop ss
00006737  0017              add [bx],dl
00006739  0417              add al,0x17
0000673B  07                pop es
0000673C  17                pop ss
0000673D  0B060606          or ax,[0x606]
00006741  0A09              or cl,[bx+di]
00006743  000E070F          add [0xf07],cl
00006747  0012              add [bp+si],dl
00006749  0A1C              or bl,[si]
0000674B  0A1E0200          or bl,[0x2]
0000674F  1901              sbb [bx+di],ax
00006751  07                pop es
00006752  0210              add dl,[bx+si]
00006754  06                push es
00006755  0D061A            or ax,0x1a06
00006758  07                pop es
00006759  0008              add [bx+si],cl
0000675B  090A              or [bp+si],cx
0000675D  16                push ss
0000675E  00060904          add [0x409],al
00006762  0D070E            or ax,0xe07
00006765  0314              add dx,[si]
00006767  00160B19          add [0x190b],dl
0000676B  031D              add bx,[di]
0000676D  07                pop es
0000676E  0104              add [si],ax
00006770  0409              add al,0x9
00006772  050509            add ax,0x905
00006775  0209              add cl,[bx+di]
00006777  0912              or [bp+si],dx
00006779  07                pop es
0000677A  1802              sbb [bp+si],al
0000677C  1F                pop ds
0000677D  050005            add ax,0x500
00006780  000F              add [bx],cl
00006782  0318              add bx,[bx+si]
00006784  06                push es
00006785  05060E            add ax,0xe06
00006788  06                push es
00006789  1C0A              sbb al,0xa
0000678B  0A0A              or cl,[bp+si]
0000678D  1302              adc ax,[bp+si]
0000678F  050607            add ax,0x706
00006792  0A00              or al,[bx+si]
00006794  0C0A              or al,0xa
00006796  120A              adc cl,[bp+si]
00006798  1400              adc al,0x0
0000679A  1B03              sbb ax,[bp+di]
0000679C  1B08              sbb cx,[bx+si]
0000679E  0804              or [si],al
000067A0  0A060C04          or al,[0x40c]
000067A4  0E                push cs
000067A5  06                push es
000067A6  1004              adc [si],al
000067A8  12061404          adc al,[0x414]
000067AC  16                push ss
000067AD  06                push es
000067AE  0205              add al,[di]
000067B0  020E080D          add cl,[0xd08]
000067B4  0A05              or al,[di]
000067B6  0C00              or al,0x0
000067B8  0E                push cs
000067B9  0911              or [bx+di],dx
000067BB  0411              add al,0x11
000067BD  0C00              or al,0x0
000067BF  0C01              or al,0x1
000067C1  16                push ss
000067C2  0305              add ax,[di]
000067C4  051106            add ax,0x611
000067C7  0B08              or cx,[bx+si]
000067C9  0308              add cx,[bx+si]
000067CB  0E                push cs
000067CC  0819              or [bx+di],bl
000067CE  0307              add ax,[bx]
000067D0  0805              or [di],al
000067D2  0A05              or al,[di]
000067D4  0E                push cs
000067D5  0311              add dx,[bx+di]
000067D7  0315              add dx,[di]
000067D9  051705            add ax,0x517
000067DC  1909              sbb [bx+di],cx
000067DE  000B              add [bp+di],cl
000067E0  02060605          add al,[0x506]
000067E4  06                push es
000067E5  0A08              or cl,[bx+si]
000067E7  0F0B              ud2
000067E9  0A0E020F          or cl,[0xf02]
000067ED  06                push es
000067EE  1110              adc [bx+si],dx
000067F0  140B              adc al,0xb
000067F2  0008              add [bx+si],cl
000067F4  020F              add cl,[bx]
000067F6  0217              add dl,[bx]
000067F8  041B              add al,0x1b
000067FA  050006            add ax,0x600
000067FD  0C09              or al,0x9
000067FF  120B              adc cl,[bp+di]
00006801  0304              add ax,[si]
00006803  0304              add ax,[si]
00006805  0809              or [bx+di],cl
00006807  040F              add al,0xf
00006809  030F              add cx,[bx]
0000680B  0812              or [bp+si],dl
0000680D  051903            add ax,0x319
00006810  1908              sbb [bx+si],cx
00006812  000E090E          add [0xe09],cl
00006816  0411              add al,0x11
00006818  0A02              or al,[bp+si]
0000681A  0A060F04          or al,[0x40f]
0000681E  0023              add [bp+di],ah
00006820  52                push dx
00006821  6658              pop eax
00006823  6662666C          bound esp,[bp+0x6c]
00006827  667866            o32 js 0x6890
0000682A  82                db 0x82
0000682B  668C6694          o32 mov [bp-0x6c],fs
0000682F  66A066AA          o32 mov al,[0xaa66]
00006833  66B666            o32 mov dh,0x66
00006836  C066C866          shl byte [bp-0x38],byte 0x66
0000683A  D466              aam 0x66
0000683C  DC66E4            fsub qword [bp-0x1c]
0000683F  66F066F8          lock o32 clc
00006843  6600670A          o32 add [bx+0xa],ah
00006847  6712671C          adc ah,[edi+0x1c]
0000684B  672467            and al,0x67
0000684E  266726670102      add [es:edx],ax
00006854  0907              or [bx],ax
00006856  1004              adc [si],al
00006858  03060806          add ax,[0x608]
0000685C  050D04            add ax,0x40d
0000685F  16                push ss
00006860  0A18              or bl,[bx+si]
00006862  0301              add ax,[bx+di]
00006864  05050E            add ax,0xe05
00006867  06                push es
00006868  1003              adc [bp+di],al
0000686A  1403              adc al,0x3
0000686C  01060306          add [0x603],ax
00006870  0408              add al,0x8
00006872  080D              or [di],cl
00006874  1406              adc al,0x6
00006876  16                push ss
00006877  06                push es
00006878  010A              add [bp+si],cx
0000687A  0308              add cx,[bx+si]
0000687C  0803              or [bp+di],al
0000687E  1B02              sbb ax,[bp+si]
00006880  1C06              sbb al,0x6
00006882  0A08              or cl,[bx+si]
00006884  16                push ss
00006885  06                push es
00006886  1B03              sbb ax,[bp+di]
00006888  1C01              sbb al,0x1
0000688A  2101              and [bx+di],ax
0000688C  0203              add al,[bp+di]
0000688E  0901              or [bx+di],ax
00006890  17                pop ss
00006891  051A09            add ax,0x91a
00006894  0208              add cl,[bx+si]
00006896  0B060D08          or ax,[0x80d]
0000689A  0E                push cs
0000689B  0A1A              or bl,[bp+si]
0000689D  011C              add [si],bx
0000689F  0A02              or al,[bp+si]
000068A1  1102              adc [bp+si],ax
000068A3  010D              add [di],cx
000068A5  0209              add cl,[bx+di]
000068A7  06                push es
000068A8  1002              adc [bp+si],al
000068AA  0109              add [bx+di],cx
000068AC  0E                push cs
000068AD  0112              add [bp+si],dx
000068AF  0212              add dl,[bp+si]
000068B1  031C              add bx,[si]
000068B3  091C              or [si],bx
000068B5  0A01              or al,[bx+di]
000068B7  0305              add ax,[di]
000068B9  07                pop es
000068BA  1307              adc ax,[bx]
000068BC  17                pop ss
000068BD  031E0809          add bx,[0x908]
000068C1  0101              add [bx+di],ax
000068C3  0105              add [di],ax
000068C5  0B07              or ax,[bx]
000068C7  1804              sbb [si],al
000068C9  08060307          or [0x703],al
000068CD  0812              or [bp+si],dl
000068CF  0116011C          add [0x1c01],dx
000068D3  0216010D          add dl,[0xd01]
000068D7  031D              add bx,[di]
000068D9  091A              or [bp+si],bx
000068DB  06                push es
000068DC  051509            add ax,0x915
000068DF  0209              add cl,[bx+di]
000068E1  1809              sbb [bx+di],cl
000068E3  1D0104            sbb ax,0x401
000068E6  01060308          add [0x803],ax
000068EA  0C03              or al,0x3
000068EC  1E                push ds
000068ED  011E0201          add [0x102],bx
000068F1  0F07              sysret
000068F3  020B              add cl,[bp+di]
000068F5  0F1102            movups oword [bp+si],xmm0
000068F8  0301              add ax,[bx+di]
000068FA  0109              add [bx+di],cx
000068FC  0A0D              or cl,[di]
000068FE  0118              add [bx+si],bx
00006900  0109              add [bx+di],cx
00006902  050905            add ax,0x509
00006905  010B              add [bp+di],cx
00006907  0110              add [bx+si],dx
00006909  0101              add [bx+di],ax
0000690B  0101              add [bx+di],ax
0000690D  0F1301            movlps qword [bx+di],xmm0
00006910  130F              adc cx,[bx]
00006912  0A08              or cl,[bx+si]
00006914  0910              or [bx+si],dx
00006916  0212              add dl,[bp+si]
00006918  0414              add al,0x14
0000691A  0417              add al,0x17
0000691C  0104              add [si],ax
0000691E  0406              add al,0x6
00006920  1C02              sbb al,0x2
00006922  1C09              sbb al,0x9
00006924  1208              adc cl,[bx+si]
00006926  0123              add [bp+di],sp
00006928  5A                pop dx
00006929  675C              a32 pop sp
0000692B  6766677067        o32 jo 0x6997
00006930  7C67              jl 0x6999
00006932  866790            xchg [bx-0x70],ah
00006935  6798              a32 cbw
00006937  67A4              a32 movsb
00006939  67AE              a32 scasb
0000693B  67BA67C4          mov dx,0xc467
0000693F  67CC              a32 int3
00006941  67D867E0          fsub dword [edi-0x20]
00006945  67E867F4          call 0x5db0
00006949  67FC              a32 cld
0000694B  670468            add al,0x68
0000694E  106818            adc [bx+si+0x18],ch
00006951  682268            push word 0x6822
00006954  2A682C            sub ch,[bx+si+0x2c]
00006957  682C68            push word 0x682c
0000695A  080A              or [bp+si],cl
0000695C  011C              add [si],bx
0000695E  07                pop es
0000695F  0C01              or al,0x1
00006961  1B061701          sbb ax,[0x117]
00006965  1A1E031D          sbb bl,[0x1d03]
00006969  031C              add bx,[si]
0000696B  031B              add bx,[bp+di]
0000696D  031B              add bx,[bp+di]
0000696F  0410              add al,0x10
00006971  0D0F0D            or ax,0xd0f
00006974  05020B            add ax,0xb02
00006977  06                push es
00006978  0C0C              or al,0xc
0000697A  130C              adc cx,[si]
0000697C  1105              adc [di],ax
0000697E  0F0310            lsl dx,[bx+si]
00006981  050506            add ax,0x605
00006984  0F05              syscall
00006986  2205              and al,[di]
00006988  1305              adc ax,[di]
0000698A  0E                push cs
0000698B  031A              add bx,[bp+si]
0000698D  06                push es
0000698E  1E                push ds
0000698F  07                pop es
00006990  010A              add [bp+si],cx
00006992  020A              add cl,[bp+si]
00006994  030A              add cx,[bp+si]
00006996  040A              add al,0xa
00006998  0B00              or ax,[bx+si]
0000699A  0401              add al,0x1
0000699C  1104              adc [si],ax
0000699E  0807              or [bx],al
000069A0  0102              add [bp+si],ax
000069A2  0305              add ax,[di]
000069A4  06                push es
000069A5  1207              adc al,[bx]
000069A7  1208              adc cl,[bx+si]
000069A9  1209              adc cl,[bx+di]
000069AB  120A              adc cl,[bp+si]
000069AD  1201              adc al,[bx+di]
000069AF  0113              add [bp+di],dx
000069B1  07                pop es
000069B2  06                push es
000069B3  0107              add [bx],ax
000069B5  041B              add al,0x1b
000069B7  0401              add al,0x1
000069B9  0201              add al,[bx+di]
000069BB  0901              or [bx+di],ax
000069BD  0817              or [bx],dl
000069BF  07                pop es
000069C0  0107              add [bx],ax
000069C2  0106011E          add [0x1e01],ax
000069C6  021E031E          add bl,[0x1e03]
000069CA  031D              add bx,[di]
000069CC  120A              adc cl,[bp+si]
000069CE  1105              adc [di],ax
000069D0  130A              adc cx,[bp+si]
000069D2  1B03              sbb ax,[bp+di]
000069D4  1205              adc al,[di]
000069D6  140A              adc al,0xa
000069D8  0109              add [bx+di],cx
000069DA  1909              sbb [bx+di],cx
000069DC  0E                push cs
000069DD  050108            add ax,0x801
000069E0  031E0314          add bx,[0x1403]
000069E4  030C              add cx,[si]
000069E6  03161709          add dx,[0x917]
000069EA  1809              sbb [bx+di],cl
000069EC  05011C            add ax,0x1c01
000069EF  06                push es
000069F0  06                push es
000069F1  051808            add ax,0x818
000069F4  0809              or [bx+di],cl
000069F6  07                pop es
000069F7  0907              or [bx],ax
000069F9  08060804          or [0x408],al
000069FD  1C03              sbb al,0x3
000069FF  1C02              sbb al,0x2
00006A01  1C01              sbb al,0x1
00006A03  1C1A              sbb al,0x1a
00006A05  07                pop es
00006A06  1307              adc ax,[bx]
00006A08  0C07              or al,0x7
00006A0A  1C05              sbb al,0x5
00006A0C  1903              sbb [bp+di],ax
00006A0E  06                push es
00006A0F  0309              add cx,[bx+di]
00006A11  0809              or [bx+di],cl
00006A13  07                pop es
00006A14  0A07              or al,[bx]
00006A16  0B07              or ax,[bx]
00006A18  07                pop es
00006A19  0108              add [bx+si],cx
00006A1B  17                pop ss
00006A1C  020B              add cl,[bp+di]
00006A1E  0801              or [bx+di],al
00006A20  07                pop es
00006A21  051C06            add ax,0x61c
00006A24  0D0615            or ax,0x1506
00006A27  07                pop es
00006A28  1303              adc ax,[bp+di]
00006A2A  0C05              or al,0x5
00006A2C  0223              add ah,[bp+di]
00006A2E  60                pusha
00006A2F  686668            push word 0x6866
00006A32  7468              jz 0x6a9c
00006A34  7E68              jng 0x6a9e
00006A36  8C6898            mov [bx+si-0x68],gs
00006A39  68A668            push word 0x68a6
00006A3C  B668              mov dh,0x68
00006A3E  C468D2            les bp,[bx+si-0x2e]
00006A41  68DE68            push word 0x68de
00006A44  EE                out dx,al
00006A45  68FA68            push word 0x68fa
00006A48  0A6918            or ch,[bx+di+0x18]
00006A4B  69286938          imul bp,[bx+si],word 0x3869
00006A4F  6944695069        imul ax,[si+0x69],word 0x6950
00006A54  5C                pop sp
00006A55  696C697C69        imul bp,[si+0x69],word 0x697c
00006A5A  8A6994            mov ch,[bx+di-0x6c]
00006A5D  699469010209      imul dx,[si+0x169],word 0x902
00006A63  07                pop es
00006A64  1004              adc [si],al
00006A66  0A03              or al,[bp+di]
00006A68  06                push es
00006A69  06                push es
00006A6A  020A              add cl,[bp+si]
00006A6C  010D              add [di],cx
00006A6E  0A0F              or cl,[bx]
00006A70  051205            add ax,0x512
00006A73  1B01              sbb ax,[bx+di]
00006A75  0302              add ax,[bp+si]
00006A77  07                pop es
00006A78  0A061505          or al,[0x515]
00006A7C  1E                push ds
00006A7D  0101              add [bx+di],ax
00006A7F  0101              add [bx+di],ax
00006A81  0D0706            or ax,0x607
00006A84  0F0B              ud2
00006A86  1308              adc cx,[bx+si]
00006A88  16                push ss
00006A89  01160D02          add [0x20d],dx
00006A8D  0403              add al,0x3
00006A8F  0A09              or cl,[bx+di]
00006A91  07                pop es
00006A92  1107              adc [bx],ax
00006A94  150318            adc ax,0x1803
00006A97  0A07              or al,[bx]
00006A99  050801            add ax,0x108
00006A9C  0C08              or al,0x8
00006A9E  17                pop ss
00006A9F  07                pop es
00006AA0  1908              sbb [bx+si],cx
00006AA2  1D0221            sbb ax,0x2102
00006AA5  0301              add ax,[bx+di]
00006AA7  06                push es
00006AA8  050109            add ax,0x901
00006AAB  0A060513          or al,[0x1305]
00006AAF  0817              or [bx],dl
00006AB1  0118              add [bx+si],bx
00006AB3  0A1C              or bl,[si]
00006AB5  06                push es
00006AB6  0207              add al,[bx]
00006AB8  0804              or [si],al
00006ABA  0D010D            or ax,0xd01
00006ABD  0910              or [bx+si],dx
00006ABF  0817              or [bx],dl
00006AC1  0A1B              or bl,[bp+di]
00006AC3  0401              add al,0x1
00006AC5  0B060608          or ax,[0x806]
00006AC9  0A0E110C          or cl,[0xc11]
00006ACD  07                pop es
00006ACE  1005              adc [di],al
00006AD0  1009              adc [bx+di],cl
00006AD2  0407              add al,0x7
00006AD4  0E                push cs
00006AD5  0A12              or dl,[bp+si]
00006AD7  0112              add [bp+si],dx
00006AD9  0A1C              or bl,[si]
00006ADB  011C              add [si],bx
00006ADD  0807              or [bx],al
00006ADF  0307              add ax,[bx]
00006AE1  07                pop es
00006AE2  0B01              or ax,[bx+di]
00006AE4  0B09              or cx,[bx+di]
00006AE6  0D0111            or ax,0x1101
00006AE9  0311              add dx,[bx+di]
00006AEB  07                pop es
00006AEC  1E                push ds
00006AED  0403              add al,0x3
00006AEF  0405              add al,0x5
00006AF1  07                pop es
00006AF2  0311              add dx,[bx+di]
00006AF4  051103            add ax,0x311
00006AF7  1905              sbb [di],ax
00006AF9  1E                push ds
00006AFA  06                push es
00006AFB  06                push es
00006AFC  0B03              or ax,[bp+di]
00006AFE  0B09              or cx,[bx+di]
00006B00  180A              sbb [bp+si],cl
00006B02  1203              adc al,[bp+di]
00006B04  180A              sbb [bp+si],cl
00006B06  1B08              sbb cx,[bx+si]
00006B08  1802              sbb [bp+si],al
00006B0A  0301              add ax,[bx+di]
00006B0C  09060E02          or [0x20e],ax
00006B10  0E                push cs
00006B11  07                pop es
00006B12  1404              adc al,0x4
00006B14  16                push ss
00006B15  091E0401          or [0x104],bx
00006B19  1202              adc al,[bp+si]
00006B1B  1A03              sbb al,[bp+di]
00006B1D  06                push es
00006B1E  041C              add al,0x1c
00006B20  051008            add ax,0x810
00006B23  0308              add cx,[bx+si]
00006B25  1D0919            sbb ax,0x1909
00006B28  0301              add ax,[bx+di]
00006B2A  0803              or [bp+di],al
00006B2C  0B08              or cx,[bx+si]
00006B2E  0E                push cs
00006B2F  051207            add ax,0x712
00006B32  1302              adc ax,[bp+si]
00006B34  1902              sbb [bp+si],ax
00006B36  1E                push ds
00006B37  0901              or [bx+di],ax
00006B39  0105              add [di],ax
00006B3B  0406              add al,0x6
00006B3D  100E0C12          adc [0x120c],cl
00006B41  0312              add dx,[bp+si]
00006B43  07                pop es
00006B44  0101              add [bx+di],ax
00006B46  0A09              or cl,[bx+di]
00006B48  0813              or [bp+di],dl
00006B4A  07                pop es
00006B4B  150618            adc ax,0x1806
00006B4E  0A1C              or bl,[si]
00006B50  0101              add [bx+di],ax
00006B52  0309              add cx,[bx+di]
00006B54  07                pop es
00006B55  0914              or [si],dx
00006B57  091E011E          or [0x1e01],bx
00006B5B  0901              or [bx+di],ax
00006B5D  0D0303            or ax,0x303
00006B60  050F06            add ax,0x60f
00006B63  010F              add [bx],cx
00006B65  0A11              or dl,[bx+di]
00006B67  0113              add [bp+di],dx
00006B69  0413              add al,0x13
00006B6B  06                push es
00006B6C  0A02              or al,[bp+si]
00006B6E  0103              add [bp+di],ax
00006B70  080B              or [bp+di],cl
00006B72  07                pop es
00006B73  0E                push cs
00006B74  0A15              or dl,[di]
00006B76  0116051A          add [0x1a05],dx
00006B7A  031C              add bx,[si]
00006B7C  0107              add [bx],ax
00006B7E  07                pop es
00006B7F  050D01            add ax,0x10d
00006B82  0D0A15            or ax,0x150a
00006B85  01160A1A          add [0x1a0a],dx
00006B89  040A              add al,0xa
00006B8B  0C0D              or al,0xd
00006B8D  010F              add [bx],cx
00006B8F  0B10              or dx,[bx+si]
00006B91  1012              adc [bp+si],dl
00006B93  0400              add al,0x0
00006B95  0305              add ax,[di]
00006B97  010D              add [di],cx
00006B99  0101              add [bx+di],ax
00006B9B  010A              add [bp+si],cx
00006B9D  010E0905          add [0x509],cx
00006BA1  090B              or [bp+di],cx
00006BA3  010C              add [si],cx
00006BA5  040D              add al,0xd
00006BA7  050B0A            add ax,0xa0b
00006BAA  0102              add [bp+si],ax
00006BAC  01060E03          add [0x30e],ax
00006BB0  0F08              invd
00006BB2  1A061606          sbb al,[0x616]
00006BB6  0C0E              or al,0xe
00006BB8  06                push es
00006BB9  0D0106            or ax,0x601
00006BBC  05041B            add ax,0x1b04
00006BBF  021B              add bl,[bp+di]
00006BC1  05090F            add ax,0xf09
00006BC4  030D              add cx,[di]
00006BC6  0103              add [bp+di],ax
00006BC8  0208              add cl,[bx+si]
00006BCA  0407              add al,0x7
00006BCC  0804              or [si],al
00006BCE  0204              add al,[si]
00006BD0  0404              add al,0x4
00006BD2  0101              add [bx+di],ax
00006BD4  0204              add al,[si]
00006BD6  0A0C              or cl,[si]
00006BD8  09060A0B          or [0xb0a],ax
00006BDC  010F              add [bx],cx
00006BDE  050501            add ax,0x105
00006BE1  05090B            add ax,0xb09
00006BE4  0A05              or al,[di]
00006BE6  0B19              or bx,[bx+di]
00006BE8  0B1C              or bx,[si]
00006BEA  07                pop es
00006BEB  0307              add ax,[bx]
00006BED  0804              or [si],al
00006BEF  0204              add al,[si]
00006BF1  0209              add cl,[bx+di]
00006BF3  0109              add [bx+di],cx
00006BF5  0109              add [bx+di],cx
00006BF7  0109              add [bx+di],cx
00006BF9  017404            add [si+0x4],si
00006BFC  1305              adc ax,[di]
00006BFE  0F06              clts
00006C00  130A              adc cx,[bp+si]
00006C02  0F0B              ud2
00006C04  130C              adc cx,[si]
00006C06  0F0D13            prefetchwt1 byte [bp+di]
00006C09  7504              jnz 0x6c0f
00006C0B  0D000D            or ax,0xd00
00006C0E  0009              add [bx+di],cl
00006C10  0007              add [bx],al
00006C12  0205              add al,[di]
00006C14  0407              add al,0x7
00006C16  050976            add ax,0x7609
00006C19  110D              adc [di],cx
00006C1B  0C0D              or al,0xd
00006C1D  0F05              syscall
00006C1F  1107              adc [bx],ax
00006C21  0B09              or cx,[bx+di]
00006C23  0D0758            or ax,0x5807
00006C26  0006000A          add [0xa00],al
00006C2A  000C              add [si],cl
00006C2C  010E0305          add [0x503],cx
00006C30  0308              add cx,[bx+si]
00006C32  0408              add al,0x8
00006C34  040A              add al,0xa
00006C36  07                pop es
00006C37  0A5900            or bl,[bx+di+0x0]
00006C3A  0800              or [bx+si],al
00006C3C  0B01              or ax,[bx+di]
00006C3E  05010C            add ax,0xc01
00006C41  0306030C          add ax,[0xc03]
00006C45  040E              add al,0xe
00006C47  050805            add ax,0x508
00006C4A  0A06095A          or al,[0x5a09]
00006C4E  000E0106          add [0x601],cl
00006C52  0108              add [bx+si],cx
00006C54  010A              add [bp+si],cx
00006C56  030A              add cx,[bp+si]
00006C58  030E0406          add cx,[0x604]
00006C5C  040C              add al,0xc
00006C5E  07                pop es
00006C5F  095B09            or [bp+di+0x9],bx
00006C62  0A0E0510          or cl,[0x1005]
00006C66  051105            add ax,0x511
00006C69  0D060E            or ax,0xe06
00006C6C  06                push es
00006C6D  10061106          adc [0x611],al
00006C71  0C07              or al,0x7
00006C73  0B08              or cx,[bx+si]
00006C75  0C08              or al,0x8
00006C77  0E                push cs
00006C78  0810              or [bx+si],dl
00006C7A  0811              or [bx+di],dl
00006C7C  080A              or [bp+si],cl
00006C7E  0910              or [bx+si],dx
00006C80  0911              or [bx+di],dx
00006C82  090A              or [bp+si],cx
00006C84  0A0B              or cl,[bp+di]
00006C86  0A0C              or cl,[si]
00006C88  0A0D              or cl,[di]
00006C8A  0A0F              or cl,[bx]
00006C8C  0B10              or dx,[bx+si]
00006C8E  0B11              or dx,[bx+di]
00006C90  0B0C              or cx,[si]
00006C92  0C0D              or al,0xd
00006C94  0C10              or al,0x10
00006C96  0C11              or al,0x11
00006C98  0C0C              or al,0xc
00006C9A  0E                push cs
00006C9B  0D0E0E            or ax,0xe0e
00006C9E  0E                push cs
00006C9F  100E110E          adc [0xe11],cl
00006CA3  0F                db 0x0f
00006CA4  0468              add al,0x68
00006CA6  0400              add al,0x0
00006CA8  0C00              or al,0x0
00006CAA  6208              bound cx,[bx+si]
00006CAC  051000            add ax,0x10
00006CAF  06                push es
00006CB0  0C09              or al,0x9
00006CB2  0C66              or al,0x66
00006CB4  0002              add [bp+si],al
00006CB6  0103              add [bp+di],ax
00006CB8  0301              add ax,[bx+di]
00006CBA  050606            add ax,0x606
00006CBD  07                pop es
00006CBE  5C                pop sp
00006CBF  0001              add [bx+di],al
00006CC1  1102              adc [bp+si],ax
00006CC3  1104              adc [si],ax
00006CC5  07                pop es
00006CC6  0007              add [bx],al
00006CC8  0107              add [bx],ax
00006CCA  020B              add cl,[bp+di]
00006CCC  000B              add [bp+di],cl
00006CCE  010B              add [bp+di],cx
00006CD0  025D03            add bl,[di+0x3]
00006CD3  000F              add [bx],cl
00006CD5  006C08            add [si+0x8],ch
00006CD8  0008              add [bx+si],cl
00006CDA  0108              add [bx+si],cx
00006CDC  0209              add cl,[bx+di]
00006CDE  0009              add [bx+di],cl
00006CE0  0109              add [bx+di],cx
00006CE2  020A              add cl,[bp+si]
00006CE4  000A              add [bp+si],cl
00006CE6  010A              add [bp+si],cx
00006CE8  024002            add al,[bx+si+0x2]
00006CEB  0306031A          add ax,[0x1a03]
00006CEF  C0574553          rcl byte [bx+0x45],byte 0x53
00006CF3  54                push sp
00006CF4  037CB0            add di,[si-0x50]
00006CF7  53                push bx
00006CF8  50                push ax
00006CF9  41                inc cx
00006CFA  43                inc bx
00006CFB  45                inc bp
00006CFC  043D              add al,0x3d
00006CFE  0020              add [bx+si],ah
00006D00  014641            add [bp+0x41],ax
00006D03  4E                dec si
00006D04  54                push sp
00006D05  41                inc cx
00006D06  53                push bx
00006D07  59                pop cx
00006D08  034030            add ax,[bx+si+0x30]
00006D0B  2020              and [bx+si],ah
00006D0D  2020              and [bx+si],ah
00006D0F  2020              and [bx+si],ah
00006D11  2020              and [bx+si],ah
00006D13  034031            add ax,[bx+si+0x31]
00006D16  54                push sp
00006D17  52                push dx
00006D18  45                inc bp
00006D19  41                inc cx
00006D1A  53                push bx
00006D1B  55                push bp
00006D1C  52                push dx
00006D1D  59                pop cx
00006D1E  005448            add [si+0x48],dl
00006D21  45                inc bp
00006D22  205449            and [si+0x49],dl
00006D25  4D                dec bp
00006D26  45                inc bp
00006D27  47                inc di
00006D28  41                inc cx
00006D29  54                push sp
00006D2A  45                inc bp
00006D2B  53                push bx
00006D2C  007301            add [bp+di+0x1],dh
00006D2F  1D5C00            sbb ax,0x5c
00006D32  010B              add [bp+di],cx
00006D34  014000            add [bx+si+0x0],ax
00006D37  48                dec ax
00006D38  41                inc cx
00006D39  4C                dec sp
00006D3A  4C                dec sp
00006D3B  53                push bx
00006D3C  204F46            and [bx+0x46],cl
00006D3F  20444F            and [si+0x4f],al
00006D42  4F                dec di
00006D43  4D                dec bp
00006D44  00731F            add [bp+di+0x1f],dh
00006D47  035D05            add bx,[di+0x5]
00006D4A  0A0E0A52          or cl,[0x520a]
00006D4E  17                pop ss
00006D4F  0440              add al,0x40
00006D51  00424C            add [bp+si+0x4c],al
00006D54  41                inc cx
00006D55  43                inc bx
00006D56  4B                dec bx
00006D57  204455            and [si+0x55],al
00006D5A  4E                dec si
00006D5B  47                inc di
00006D5C  45                inc bp
00006D5D  4F                dec di
00006D5E  4E                dec si
00006D5F  005104            add [bx+di+0x4],dl
00006D62  0C73              or al,0x73
00006D64  100E5312          adc [0x1253],cl
00006D68  025D0B            add bl,[di+0xb]
00006D6B  000C              add [si],cl
00006D6D  006209            add [bp+si+0x9],ah
00006D70  090A              or [bp+si],cx
00006D72  0C0C              or al,0xc
00006D74  080D              or [di],cl
00006D76  0B4000            or ax,[bx+si+0x0]
00006D79  43                inc bx
00006D7A  41                inc cx
00006D7B  53                push bx
00006D7C  54                push sp
00006D7D  4C                dec sp
00006D7E  45                inc bp
00006D7F  204752            and [bx+0x52],al
00006D82  45                inc bp
00006D83  59                pop cx
00006D84  4D                dec bp
00006D85  4F                dec di
00006D86  4F                dec di
00006D87  4E                dec si
00006D88  005105            add [bx+di+0x5],dl
00006D8B  02530B            add dl,[bp+di+0xb]
00006D8E  040F              add al,0xf
00006D90  0A500E            or dl,[bx+si+0xe]
00006D93  087312            or [bp+di+0x12],dh
00006D96  054000            add ax,0x40
00006D99  4D                dec bp
00006D9A  59                pop cx
00006D9B  53                push bx
00006D9C  54                push sp
00006D9D  49                dec cx
00006D9E  43                inc bx
00006D9F  204D41            and [di+0x41],cl
00006DA2  5A                pop dx
00006DA3  45                inc bp
00006DA4  007323            add [bp+di+0x23],dh
00006DA7  055C00            add ax,0x5c
00006DAA  0200              add al,[bx+si]
00006DAC  06                push es
00006DAD  40                inc ax
00006DAE  004348            add [bp+di+0x48],al
00006DB1  41                inc cx
00006DB2  4F                dec di
00006DB3  53                push bx
00006DB4  204341            and [bp+di+0x41],al
00006DB7  56                push si
00006DB8  45                inc bp
00006DB9  52                push dx
00006DBA  4E                dec si
00006DBB  53                push bx
00006DBC  007301            add [bp+di+0x1],dh
00006DBF  0B5D0D            or bx,[di+0xd]
00006DC2  000E000F          add [0xf00],cl
00006DC6  0010              add [bx+si],dl
00006DC8  000D              add [di],cl
00006DCA  0B0E0B0F          or cx,[0xf0b]
00006DCE  0B10              or dx,[bx+si]
00006DD0  0B0E020F          or cx,[0xf02]
00006DD4  020E090F          add cl,[0xf09]
00006DD8  094000            or [bx+si+0x0],ax
00006DDB  55                push bp
00006DDC  4E                dec si
00006DDD  44                inc sp
00006DDE  45                inc bp
00006DDF  52                push dx
00006DE0  57                push di
00006DE1  4F                dec di
00006DE2  52                push dx
00006DE3  4C                dec sp
00006DE4  44                inc sp
00006DE5  204152            and [bx+di+0x52],al
00006DE8  45                inc bp
00006DE9  4E                dec si
00006DEA  41                inc cx
00006DEB  007305            add [bp+di+0x5],dh
00006DEE  005D01            add [di+0x1],bl
00006DF1  0002              add [bp+si],al
00006DF3  0003              add [bp+di],al
00006DF5  000D              add [di],cl
00006DF7  0012              add [bp+si],dl
00006DF9  0013              add [bp+di],dl
00006DFB  0014              add [si],dl
00006DFD  001A              add [bp+si],bl
00006DFF  001C              add [si],bl
00006E01  000F              add [bx],cl
00006E03  0210              add dl,[bx+si]
00006E05  020B              add cl,[bp+di]
00006E07  050D05            add ax,0x50d
00006E0A  0E                push cs
00006E0B  050F05            add ax,0x50f
00006E0E  07                pop es
00006E0F  0008              add [bx+si],cl
00006E11  0010              add [bx+si],dl
00006E13  050309            add ax,0x903
00006E16  010B              add [bp+di],cx
00006E18  020B              add cl,[bp+di]
00006E1A  040B              add al,0xb
00006E1C  050B06            add ax,0x60b
00006E1F  0B08              or cx,[bx+si]
00006E21  0B09              or cx,[bx+di]
00006E23  0B0F              or cx,[bx]
00006E25  0B10              or dx,[bx+si]
00006E27  0B11              or dx,[bx+di]
00006E29  0B12              or dx,[bp+si]
00006E2B  0B18              or bx,[bx+si]
00006E2D  0B19              or bx,[bx+di]
00006E2F  0B1B              or bx,[bp+di]
00006E31  0B1C              or bx,[si]
00006E33  0B5C00            or bx,[si+0x0]
00006E36  0100              add [bx+si],ax
00006E38  07                pop es
00006E39  0008              add [bx+si],cl
00006E3B  0009              add [bx+di],cl
00006E3D  000A              add [bp+si],cl
00006E3F  0A01              or al,[bx+di]
00006E41  0C06              or al,0x6
00006E43  0E                push cs
00006E44  0119              add [bx+di],bx
00006E46  011D              add [di],bx
00006E48  011D              add [di],bx
00006E4A  021D              add bl,[di]
00006E4C  031D              add bx,[di]
00006E4E  051D06            add ax,0x61d
00006E51  1D081D            sbb ax,0x1d08
00006E54  091D              or [di],bx
00006E56  0A5E19            or bl,[bp+0x19]
00006E59  056200            add ax,0x62
00006E5C  0403              add al,0x3
00006E5E  0303              add ax,[bp+di]
00006E60  07                pop es
00006E61  06                push es
00006E62  0407              add al,0x7
00006E64  0808              or [bx+si],cl
00006E66  050B08            add ax,0x80b
00006E69  0C0A              or al,0xa
00006E6B  0D060F            or ax,0xf06
00006E6E  0010              add [bx+si],dl
00006E70  06                push es
00006E71  1108              adc [bx+si],cx
00006E73  1304              adc ax,[si]
00006E75  1307              adc ax,[bx]
00006E77  1401              adc al,0x1
00006E79  140A              adc al,0xa
00006E7B  16                push ss
00006E7C  0416              add al,0x16
00006E7E  07                pop es
00006E7F  17                pop ss
00006E80  0019              add [bx+di],bl
00006E82  0319              add bx,[bx+di]
00006E84  084000            or [bx+si+0x0],al
00006E87  46                inc si
00006E88  4F                dec di
00006E89  52                push dx
00006E8A  47                inc di
00006E8B  4F                dec di
00006E8C  54                push sp
00006E8D  54                push sp
00006E8E  45                inc bp
00006E8F  4E                dec si
00006E90  205255            and [bp+si+0x55],dl
00006E93  49                dec cx
00006E94  4E                dec si
00006E95  53                push bx
00006E96  007306            add [bp+di+0x6],dh
00006E99  135D02            adc bx,[di+0x2]
00006E9C  0003              add [bp+di],al
00006E9E  0008              add [bx+si],cl
00006EA0  010A              add [bp+si],cx
00006EA2  000B              add [bp+di],cl
00006EA4  000D              add [di],cl
00006EA6  010F              add [bx],cx
00006EA8  010C              add [si],cx
00006EAA  120F              adc cl,[bx]
00006EAC  125C00            adc bl,[si+0x0]
00006EAF  0300              add ax,[bx+si]
00006EB1  0411              add al,0x11
00006EB3  0311              add dx,[bx+di]
00006EB5  106600            adc [bp+0x0],ah
00006EB8  0100              add [bx+si],ax
00006EBA  050007            add ax,0x700
00006EBD  0100              add [bx+si],ax
00006EBF  01060111          add [0x1101],ax
00006EC3  0203              add al,[bp+di]
00006EC5  0212              add dl,[bp+si]
00006EC7  03060400          add ax,[0x4]
00006ECB  0412              add al,0x12
00006ECD  050305            add ax,0x503
00006ED0  09060006          or [0x600],ax
00006ED4  0F07              sysret
00006ED6  0107              add [bx],ax
00006ED8  0A08              or cl,[bx+si]
00006EDA  0B09              or cx,[bx+di]
00006EDC  0009              add [bx+di],cl
00006EDE  0309              add cx,[bx+di]
00006EE0  07                pop es
00006EE1  090E0A04          or [0x40a],cx
00006EE5  0A060B01          or al,[0x10b]
00006EE9  0B12              or dx,[bp+si]
00006EEB  0C00              or al,0x0
00006EED  0C04              or al,0x4
00006EEF  0D070D            or ax,0xd07
00006EF2  110E010E          adc [0xe01],cx
00006EF6  0A0E1210          or cl,[0x1012]
00006EFA  0010              add [bx+si],dl
00006EFC  0D1012            or ax,0x1210
00006EFF  1101              adc [bx+di],ax
00006F01  110C              adc [si],cx
00006F03  110E1111          adc [0x1111],cx
00006F07  5E                pop si
00006F08  050568            add ax,0x6805
00006F0B  050C0A            add ax,0xa0c
00006F0E  0A710B            or dh,[bx+di+0xb]
00006F11  0D4000            or ax,0x40
00006F14  44                inc sp
00006F15  45                inc bp
00006F16  41                inc cx
00006F17  54                push sp
00006F18  48                dec ax
00006F19  205641            and [bp+0x41],dl
00006F1C  4C                dec sp
00006F1D  4C                dec sp
00006F1E  45                inc bp
00006F1F  59                pop cx
00006F20  007300            add [bp+di+0x0],dh
00006F23  01510A            add [bx+di+0xa],dx
00006F26  0115              add [di],dx
00006F28  0315              add dx,[di]
00006F2A  085306            or [bp+di+0x6],dl
00006F2D  0A0A              or cl,[bp+si]
00006F2F  0A19              or bl,[bx+di]
00006F31  0319              add bx,[bx+di]
00006F33  085D05            or [di+0x5],bl
00006F36  0001              add [bx+di],al
00006F38  0A03              or al,[bp+di]
00006F3A  0B05              or ax,[di]
00006F3C  0B0B              or cx,[bp+di]
00006F3E  050C05            add ax,0x50c
00006F41  0D050B            or ax,0xb05
00006F44  06                push es
00006F45  0C06              or al,0x6
00006F47  0D065C            or ax,0x5c06
00006F4A  0A03              or al,[bp+di]
00006F4C  0A04              or al,[si]
00006F4E  0A07              or al,[bx]
00006F50  0A08              or cl,[bx+si]
00006F52  0C01              or al,0x1
00006F54  0C02              or al,0x2
00006F56  0C09              or al,0x9
00006F58  0C0A              or al,0xa
00006F5A  660009            o32 add [bx+di],cl
00006F5D  0205              add al,[di]
00006F5F  020A              add cl,[bp+si]
00006F61  0301              add ax,[bx+di]
00006F63  0400              add al,0x0
00006F65  0404              add al,0x4
00006F67  040A              add al,0xa
00006F69  40                inc ax
00006F6A  00444F            add [si+0x4f],al
00006F6D  44                inc sp
00006F6E  47                inc di
00006F6F  45                inc bp
00006F70  204349            and [bp+di+0x49],al
00006F73  54                push sp
00006F74  59                pop cx
00006F75  204241            and [bp+si+0x41],al
00006F78  4E                dec si
00006F79  4B                dec bx
00006F7A  007301            add [bp+di+0x1],dh
00006F7D  0A5209            or dl,[bp+si+0x9]
00006F80  040F              add al,0xf
00006F82  0450              add al,0x50
00006F84  0304              add ax,[si]
00006F86  150451            adc ax,0x5104
00006F89  06                push es
00006F8A  0118              add [bx+si],bx
00006F8C  07                pop es
00006F8D  53                push bx
00006F8E  1201              adc al,[bx+di]
00006F90  5D                pop bp
00006F91  1900              sbb [bx+si],ax
00006F93  1B01              sbb ax,[bx+di]
00006F95  1C01              sbb al,0x1
00006F97  1A0A              sbb cl,[bp+si]
00006F99  661909            sbb [bx+di],ecx
00006F9C  1A00              sbb al,[bx+si]
00006F9E  1A061B03          sbb al,[0x31b]
00006FA2  1B09              sbb cx,[bx+di]
00006FA4  1C04              sbb al,0x4
00006FA6  1C06              sbb al,0x6
00006FA8  1D011D            sbb ax,0x1d01
00006FAB  091E001E          or [0x1e00],bx
00006FAF  051E09            add ax,0x91e
00006FB2  1F                pop ds
00006FB3  011F              add [bx],bx
00006FB5  084000            or [bx+si+0x0],al
00006FB8  54                push sp
00006FB9  4F                dec di
00006FBA  4D                dec bp
00006FBB  42                inc dx
00006FBC  53                push bx
00006FBD  54                push sp
00006FBE  4F                dec di
00006FBF  4E                dec si
00006FC0  45                inc bp
00006FC1  204A41            and [bp+si+0x41],cl
00006FC4  49                dec cx
00006FC5  4C                dec sp
00006FC6  005108            add [bx+di+0x8],dl
00006FC9  1E                push ds
00006FCA  7300              jnc 0x6fcc
00006FCC  1E                push ds
00006FCD  5C                pop sp
00006FCE  0A0F              or cl,[bx]
00006FD0  40                inc ax
00006FD1  004C4F            add [si+0x4f],cl
00006FD4  53                push bx
00006FD5  54                push sp
00006FD6  204D41            and [di+0x41],cl
00006FD9  56                push si
00006FDA  45                inc bp
00006FDB  52                push dx
00006FDC  49                dec cx
00006FDD  43                inc bx
00006FDE  4B                dec bx
00006FDF  204D49            and [di+0x49],cl
00006FE2  4E                dec si
00006FE3  45                inc bp
00006FE4  005315            add [bp+di+0x15],dl
00006FE7  027312            add dh,[bp+di+0x12]
00006FEA  0B6803            or bp,[bx+si+0x3]
00006FED  07                pop es
00006FEE  050206            add ax,0x602
00006FF1  07                pop es
00006FF2  0A02              or al,[bp+si]
00006FF4  0A08              or cl,[bx+si]
00006FF6  0D0266            or ax,0x6602
00006FF9  0001              add [bx+di],al
00006FFB  0009              add [bx+di],cl
00006FFD  0100              add [bx+si],ax
00006FFF  010A              add [bp+si],cx
00007001  0302              add ax,[bp+si]
00007003  0902              or [bp+si],ax
00007005  0D080F            or ax,0xf08
00007008  085B17            or [bp+di+0x17],bl
0000700B  051805            add ax,0x518
0000700E  1A05              sbb al,[di]
00007010  1B05              sbb ax,[di]
00007012  1407              adc al,0x7
00007014  150717            adc ax,0x1707
00007017  07                pop es
00007018  1807              sbb [bx],al
0000701A  1A07              sbb al,[bx]
0000701C  1B07              sbb ax,[bx]
0000701E  17                pop ss
0000701F  0918              or [bx+si],bx
00007021  091A              or [bp+si],bx
00007023  091B              or [bp+di],bx
00007025  094000            or [bx+si+0x0],ax
00007028  4F                dec di
00007029  55                push bp
0000702A  54                push sp
0000702B  4C                dec sp
0000702C  41                inc cx
0000702D  57                push di
0000702E  20414C            and [bx+di+0x4c],al
00007031  4C                dec sp
00007032  45                inc bp
00007033  59                pop cx
00007034  005310            add [bp+di+0x10],dl
00007037  0919              or [bx+di],bx
00007039  0473              add al,0x73
0000703B  010A              add [bp+si],cx
0000703D  7112              jno 0x7051
0000703F  036603            add sp,[bp+0x3]
00007042  0303              add ax,[bp+di]
00007044  07                pop es
00007045  0404              add al,0x4
00007047  06                push es
00007048  02060507          add al,[0x705]
0000704C  0808              or [bx+si],cl
0000704E  050904            add ax,0x409
00007051  0B061507          or ax,[0x715]
00007055  16                push ss
00007056  041B              add al,0x1b
00007058  021C              add bl,[si]
0000705A  031D              add bx,[di]
0000705C  06                push es
0000705D  40                inc ax
0000705E  004445            add [si+0x45],al
00007061  41                inc cx
00007062  44                inc sp
00007063  204D41            and [di+0x41],cl
00007066  4E                dec si
00007067  27                daa
00007068  53                push bx
00007069  205041            and [bx+si+0x41],dl
0000706C  53                push bx
0000706D  53                push bx
0000706E  007303            add [bp+di+0x3],dh
00007071  1F                pop ds
00007072  55                push bp
00007073  020E0212          add cl,[0x1202]
00007077  051156            add ax,0x5611
0000707A  0110              add [bx+si],dx
0000707C  0413              add al,0x13
0000707E  050F57            add ax,0x570f
00007081  0310              add dx,[bx+si]
00007083  040D              add al,0xd
00007085  53                push bx
00007086  06                push es
00007087  135C06            adc bx,[si+0x6]
0000708A  07                pop es
0000708B  06                push es
0000708C  08061806          or [0x618],al
00007090  190A              sbb [bp+si],cx
00007092  050A06            add ax,0x60a
00007095  0A09              or cl,[bx+di]
00007097  0A0B              or cl,[bp+di]
00007099  0A0C              or cl,[si]
0000709B  0A11              or dl,[bx+di]
0000709D  0A12              or dl,[bp+si]
0000709F  0A14              or dl,[si]
000070A1  0A15              or dl,[di]
000070A3  0A160A19          or dl,[0x190a]
000070A7  0A1A              or bl,[bp+si]
000070A9  0A1B              or bl,[bp+di]
000070AB  0A1C              or bl,[si]
000070AD  6607              o32 pop es
000070AF  0207              add al,[bx]
000070B1  0B07              or ax,[bx]
000070B3  0F07              sysret
000070B5  1907              sbb [bx],ax
000070B7  1D0801            sbb ax,0x108
000070BA  0805              or [di],al
000070BC  0808              or [bx+si],cl
000070BE  0812              or [bp+si],dl
000070C0  081E0900          or [0x9],bl
000070C4  090E0916          or [0x1609],cx
000070C8  091A              or [bp+si],bx
000070CA  091E0A01          or [0x10a],bx
000070CE  0A03              or al,[bp+di]
000070D0  0A07              or al,[bx]
000070D2  0A0D              or cl,[di]
000070D4  0A0F              or cl,[bx]
000070D6  0A17              or dl,[bx]
000070D8  0A1D              or bl,[di]
000070DA  40                inc ax
000070DB  004752            add [bx+0x52],al
000070DE  45                inc bp
000070DF  41                inc cx
000070E0  54                push sp
000070E1  205452            and [si+0x52],dl
000070E4  41                inc cx
000070E5  49                dec cx
000070E6  4E                dec si
000070E7  20524F            and [bp+si+0x4f],dl
000070EA  42                inc dx
000070EB  42                inc dx
000070EC  45                inc bp
000070ED  52                push dx
000070EE  59                pop cx
000070EF  005005            add [bx+si+0x5],dl
000070F2  021C              add bl,[si]
000070F4  001E051E          add [0x1e05],bl
000070F8  07                pop es
000070F9  51                push cx
000070FA  06                push es
000070FB  09521A            or [bp+si+0x1a],dx
000070FE  057317            add ax,0x1773
00007101  0A5C00            or bl,[si+0x0]
00007104  014000            add [bx+si+0x0],ax
00007107  54                push sp
00007108  48                dec ax
00007109  45                inc bp
0000710A  20494E            and [bx+di+0x4e],cl
0000710D  53                push bx
0000710E  49                dec cx
0000710F  44                inc sp
00007110  49                dec cx
00007111  4F                dec di
00007112  55                push bp
00007113  53                push bx
00007114  204752            and [bx+0x52],al
00007117  49                dec cx
00007118  44                inc sp
00007119  007309            add [bp+di+0x9],dh
0000711C  095203            or [bp+si+0x3],dx
0000711F  0304              add ax,[si]
00007121  0305              add ax,[di]
00007123  03060303          add ax,[0x303]
00007127  06                push es
00007128  0406              add al,0x6
0000712A  0409              add al,0x9
0000712C  50                push ax
0000712D  0F08              invd
0000712F  0F0B              ud2
00007131  100B              adc [bp+di],cl
00007133  0D0E0E            or ax,0xe0e
00007136  0E                push cs
00007137  0F0E              femms
00007139  51                push cx
0000713A  0202              add al,[bp+si]
0000713C  0B02              or ax,[bp+si]
0000713E  0F015303          lgdt [bp+di+0x3]
00007142  0F0310            lsl dx,[bx+si]
00007145  07                pop es
00007146  0F100F            movups xmm1,oword [bx]
00007149  40                inc ax
0000714A  005448            add [si+0x48],dl
0000714D  45                inc bp
0000714E  20564F            and [bp+0x4f],dl
00007151  52                push dx
00007152  54                push sp
00007153  45                inc bp
00007154  58                pop ax
00007155  007304            add [bp+di+0x4],dh
00007158  1D5C00            sbb ax,0x5c
0000715B  0F0B              ud2
0000715D  0B5400            or dx,[si+0x0]
00007162  0400              add al,0x0
00007164  0800              or [bx+si],al
00007166  0A00              or al,[bx+si]
00007168  0E                push cs
00007169  0010              add [bx+si],dl
0000716B  00160019          add [0x1900],dl
0000716F  001C              add [si],bl
00007171  001D              add [di],bl
00007173  011D              add [di],bx
00007175  0200              add al,[bx+si]
00007177  021D              add bl,[di]
00007179  031D              add bx,[di]
0000717B  041B              add al,0x1b
0000717D  050005            add ax,0x500
00007180  1B05              sbb ax,[di]
00007182  1C05              sbb al,0x5
00007184  1D091D            sbb ax,0x1d09
00007187  0B00              or ax,[bx+si]
00007189  0B05              or ax,[di]
0000718B  0B08              or cx,[bx+si]
0000718D  0B0A              or cx,[bp+si]
0000718F  0B0C              or cx,[si]
00007191  0B17              or dx,[bx]
00007193  0B1D              or bx,[di]
00007195  0803              or [bp+di],al
00007197  0305              add ax,[di]
00007199  06                push es
0000719A  0B00              or ax,[bx+si]
0000719C  0C08              or al,0x8
0000719E  0E                push cs
0000719F  051101            add ax,0x111
000071A2  16                push ss
000071A3  0819              or [bx+di],bl
000071A5  7708              ja 0x71af
000071A7  00060307          add [0x703],al
000071AB  0307              add ax,[bx]
000071AD  080A              or [bp+si],cl
000071AF  0801              or [bx+di],al
000071B1  0A061005          or al,[0x510]
000071B5  1407              adc al,0x7
000071B7  1407              adc al,0x7
000071B9  1B4000            sbb ax,[bx+si+0x0]
000071BC  4C                dec sp
000071BD  49                dec cx
000071BE  47                inc di
000071BF  48                dec ax
000071C0  54                push sp
000071C1  204241            and [bp+si+0x41],al
000071C4  52                push dx
000071C5  52                push dx
000071C6  49                dec cx
000071C7  45                inc bp
000071C8  52                push dx
000071C9  53                push bx
000071CA  00731A            add [bp+di+0x1a],dh
000071CD  06                push es
000071CE  40                inc ax
000071CF  004741            add [bx+0x41],al
000071D2  4D                dec bp
000071D3  4D                dec bp
000071D4  41                inc cx
000071D5  205354            and [bp+di+0x54],dl
000071D8  41                inc cx
000071D9  54                push sp
000071DA  49                dec cx
000071DB  4F                dec di
000071DC  4E                dec si
000071DD  007309            add [bp+di+0x9],dh
000071E0  095400            or [si+0x0],dx
000071E5  06                push es
000071E6  000B              add [bp+di],cl
000071E8  0010              add [bx+si],dl
000071EA  0200              add al,[bx+si]
000071EC  02060410          add al,[0x1004]
000071F0  050006            add ax,0x600
000071F3  05060A            add ax,0xa06
000071F6  08060807          or [0x708],al
000071FA  0808              or [bx+si],cl
000071FC  0809              or [bx+di],cl
000071FE  080A              or [bp+si],cl
00007200  080F              or [bx],cl
00007202  0810              or [bx+si],dl
00007204  0900              or [bx+si],ax
00007206  0906090A          or [0xa09],ax
0000720A  0A060A08          or al,[0x80a]
0000720E  0A09              or cl,[bx+di]
00007210  0A0A              or cl,[bp+si]
00007212  0B060B0A          or ax,[0xa0b]
00007216  0C06              or al,0x6
00007218  0C07              or al,0x7
0000721A  0C0A              or al,0xa
0000721C  0E                push cs
0000721D  020F              add cl,[bx]
0000721F  06                push es
00007220  1110              adc [bx+si],dx
00007222  1210              adc dl,[bx+si]
00007224  1400              adc al,0x0
00007226  1402              adc al,0x2
00007228  1405              adc al,0x5
0000722A  140B              adc al,0xb
0000722C  140C              adc al,0xc
0000722E  1410              adc al,0x10
00007230  7704              ja 0x7236
00007232  0904              or [si],ax
00007234  0F05              syscall
00007236  01060407          add [0x704],ax
0000723A  07                pop es
0000723B  0901              or [bx+di],ax
0000723D  0C03              or al,0x3
0000723F  0D060E            or ax,0xe06
00007242  0E                push cs
00007243  1009              adc [bx+di],cl
00007245  1207              adc al,[bx]
00007247  1305              adc ax,[di]
00007249  40                inc ax
0000724A  004D49            add [di+0x49],cl
0000724D  44                inc sp
0000724E  4E                dec si
0000724F  49                dec cx
00007250  47                inc di
00007251  48                dec ax
00007252  54                push sp
00007253  204D41            and [di+0x41],cl
00007256  53                push bx
00007257  53                push bx
00007258  41                inc cx
00007259  43                inc bx
0000725A  52                push dx
0000725B  45                inc bp
0000725C  007307            add [bp+di+0x7],dh
0000725F  005105            add [bx+di+0x5],dl
00007262  185204            sbb [bp+si+0x4],dl
00007265  0407              add al,0x7
00007267  06                push es
00007268  0818              or [bx+si],bl
0000726A  50                push ax
0000726B  07                pop es
0000726C  0404              add al,0x4
0000726E  06                push es
0000726F  5C                pop sp
00007270  07                pop es
00007271  150716            adc ax,0x1607
00007274  07                pop es
00007275  17                pop ss
00007276  07                pop es
00007277  1809              sbb [bx+di],cl
00007279  150916            adc ax,0x1609
0000727C  0917              or [bx],dx
0000727E  0918              or [bx+si],bx
00007280  6D                insw
00007281  000D              add [di],cl
00007283  0213              add dl,[bp+di]
00007285  090F              or [bx],cx
00007287  6E                outsb
00007288  0011              add [bx+di],dl
0000728A  0411              add al,0x11
0000728C  0B0D              or cx,[di]
0000728E  6F                outsw
0000728F  050E07            add ax,0x70e
00007292  137005            adc si,[bx+si+0x5]
00007295  1407              adc al,0x7
00007297  100B              adc [bp+di],cl
00007299  115500            adc [di+0x0],dx
0000729C  1801              sbb [bx+di],al
0000729E  17                pop ss
0000729F  021D              add bl,[di]
000072A1  0316031A          add dx,[0x1a03]
000072A5  0416              add al,0x16
000072A7  051705            add ax,0x517
000072AA  1D071C            sbb ax,0x1c07
000072AD  081A              or [bp+si],bl
000072AF  091D              or [di],bx
000072B1  0A18              or bl,[bx+si]
000072B3  0A1D              or bl,[di]
000072B5  56                push si
000072B6  001A              add [bp+si],bl
000072B8  0317              add dx,[bx]
000072BA  0419              add al,0x19
000072BC  041A              add al,0x1a
000072BE  041C              add al,0x1c
000072C0  051606            add ax,0x616
000072C3  17                pop ss
000072C4  06                push es
000072C5  1D071A            sbb ax,0x1a07
000072C8  081D              or [di],bl
000072CA  091C              or [si],bx
000072CC  0A1A              or bl,[bp+si]
000072CE  0B18              or bx,[bx+si]
000072D0  0B1D              or bx,[di]
000072D2  57                push di
000072D3  001B              add [bp+di],bl
000072D5  001D              add [di],bl
000072D7  0118              add [bx+si],bx
000072D9  011A              add [bp+si],bx
000072DB  011D              add [di],bx
000072DD  021C              add bl,[si]
000072DF  031D              add bx,[di]
000072E1  041D              add al,0x1d
000072E3  051907            add ax,0x719
000072E6  1D0A17            sbb ax,0x170a
000072E9  0B1A              or bx,[bp+si]
000072EB  0B1B              or bx,[bp+di]
000072ED  40                inc ax
000072EE  004553            add [di+0x53],al
000072F1  43                inc bx
000072F2  41                inc cx
000072F3  50                push ax
000072F4  45                inc bp
000072F5  20544F            and [si+0x4f],dl
000072F8  204D4F            and [di+0x4f],cl
000072FB  4F                dec di
000072FC  4E                dec si
000072FD  42                inc dx
000072FE  41                inc cx
000072FF  53                push bx
00007300  45                inc bp
00007301  005011            add [bx+si+0x11],dl
00007304  0813              or [bp+di],dl
00007306  085114            or [bx+di+0x14],dl
00007309  0452              add al,0x52
0000730B  1103              adc [bp+di],ax
0000730D  53                push bx
0000730E  1407              adc al,0x7
00007310  731D              jnc 0x732f
00007312  06                push es
00007313  40                inc ax
00007314  00454E            add [di+0x4e],al
00007317  54                push sp
00007318  45                inc bp
00007319  52                push dx
0000731A  50                push ax
0000731B  52                push dx
0000731C  49                dec cx
0000731D  53                push bx
0000731E  45                inc bp
0000731F  006200            add [bp+si+0x0],ah
00007322  0100              add [bx+si],ax
00007324  0402              add al,0x2
00007326  0004              add [si],al
00007328  0A0E0C0F          or cl,[0xf0c]
0000732C  0912              or [bp+si],dx
0000732E  0B6606            or sp,[bp+0x6]
00007331  0007              add [bx],al
00007333  06                push es
00007334  0805              or [di],al
00007336  0905              or [di],ax
00007338  0B0A              or cx,[bp+si]
0000733A  0B0D              or cx,[di]
0000733C  0C09              or al,0x9
0000733E  0D0D0E            or ax,0xe0d
00007341  080E0A0E          or [0xe0a],cl
00007345  0E                push cs
00007346  5C                pop sp
00007347  0003              add [bp+di],al
00007349  00060007          add [0x700],al
0000734D  0903              or [bp+di],ax
0000734F  0904              or [si],ax
00007351  1308              adc cx,[bx+si]
00007353  1309              adc cx,[bx+di]
00007355  130E130F          adc cx,[0xf13]
00007359  1310              adc dx,[bx+si]
0000735B  5D                pop bp
0000735C  0400              add al,0x0
0000735E  05000B            add ax,0xb00
00007361  110C              adc [si],cx
00007363  110D              adc [di],cx
00007365  110E110F          adc [0xf11],cx
00007369  1110              adc [bx+si],dx
0000736B  115E03            adc [bp+0x3],bx
0000736E  036807            add bp,[bx+si+0x7]
00007371  015201            add [bp+si+0x1],dx
00007374  0A5004            or dl,[bx+si+0x4]
00007377  0D5107            or ax,0x751
0000737A  0C58              or al,0x58
0000737C  0408              add al,0x8
0000737E  050806            add ax,0x608
00007381  085B07            or [bp+di+0x7],bl
00007384  0808              or [bx+si],cl
00007386  0809              or [bx+di],cl
00007388  087313            or [bp+di+0x13],dh
0000738B  06                push es
0000738C  40                inc ax
0000738D  0300              add ax,[bx+si]
0000738F  0202              add al,[bp+si]
00007391  0206FFFF          add al,[0xffff]
00007395  FF                db 0xff
00007396  FF                db 0xff
00007397  FF                db 0xff
00007398  FF                db 0xff
00007399  FF                db 0xff
0000739A  FF                db 0xff
0000739B  FF                db 0xff
0000739C  FF                db 0xff
0000739D  FF                db 0xff
0000739E  FF                db 0xff
0000739F  FF                db 0xff
000073A0  FF                db 0xff
000073A1  FF                db 0xff
000073A2  FF                db 0xff
000073A3  FF                db 0xff
000073A4  FF                db 0xff
000073A5  FF                db 0xff
000073A6  FF                db 0xff
000073A7  FF                db 0xff
000073A8  FF                db 0xff
000073A9  FF                db 0xff
000073AA  FF                db 0xff
000073AB  FF                db 0xff
000073AC  FF                db 0xff
000073AD  FF                db 0xff
000073AE  FF                db 0xff
000073AF  FF                db 0xff
000073B0  FF                db 0xff
000073B1  FF                db 0xff
000073B2  FF                db 0xff
000073B3  FF                db 0xff
000073B4  FF                db 0xff
000073B5  FF                db 0xff
000073B6  FF                db 0xff
000073B7  FF                db 0xff
000073B8  FF                db 0xff
000073B9  FF                db 0xff
000073BA  FF                db 0xff
000073BB  FF                db 0xff
000073BC  FF                db 0xff
000073BD  FF                db 0xff
000073BE  FF                db 0xff
000073BF  FF                db 0xff
000073C0  FF                db 0xff
000073C1  FF                db 0xff
000073C2  FF                db 0xff
000073C3  FF                db 0xff
000073C4  FF                db 0xff
000073C5  FF                db 0xff
000073C6  FF                db 0xff
000073C7  FF                db 0xff
000073C8  FF                db 0xff
000073C9  FF                db 0xff
000073CA  FF                db 0xff
000073CB  FF                db 0xff
000073CC  FF                db 0xff
000073CD  FF                db 0xff
000073CE  FF                db 0xff
000073CF  FF                db 0xff
000073D0  FF                db 0xff
000073D1  FF                db 0xff
000073D2  FF                db 0xff
000073D3  FF                db 0xff
000073D4  FF                db 0xff
000073D5  FF                db 0xff
000073D6  FF                db 0xff
000073D7  FF                db 0xff
000073D8  FF                db 0xff
000073D9  FF                db 0xff
000073DA  FF                db 0xff
000073DB  FF                db 0xff
000073DC  FF                db 0xff
000073DD  FF                db 0xff
000073DE  FF                db 0xff
000073DF  FF                db 0xff
000073E0  FF                db 0xff
000073E1  FF                db 0xff
000073E2  FF                db 0xff
000073E3  FF                db 0xff
000073E4  FF                db 0xff
000073E5  FF                db 0xff
000073E6  FF                db 0xff
000073E7  FF                db 0xff
000073E8  FF                db 0xff
000073E9  FF                db 0xff
000073EA  FF                db 0xff
000073EB  FF                db 0xff
000073EC  FF                db 0xff
000073ED  FF                db 0xff
000073EE  FF                db 0xff
000073EF  FF                db 0xff
000073F0  FF                db 0xff
000073F1  FF                db 0xff
000073F2  FF                db 0xff
000073F3  FF                db 0xff
000073F4  FF                db 0xff
000073F5  FF                db 0xff
000073F6  FF                db 0xff
000073F7  FF                db 0xff
000073F8  FF                db 0xff
000073F9  FF                db 0xff
000073FA  FF                db 0xff
000073FB  FF                db 0xff
000073FC  FF                db 0xff
000073FD  FF                db 0xff
000073FE  FF                db 0xff
000073FF  FF                db 0xff
00007400  FF                db 0xff
00007401  FF                db 0xff
00007402  FF                db 0xff
00007403  FF                db 0xff
00007404  FF                db 0xff
00007405  FF                db 0xff
00007406  FF                db 0xff
00007407  FF                db 0xff
00007408  FF                db 0xff
00007409  FF                db 0xff
0000740A  FF                db 0xff
0000740B  FF                db 0xff
0000740C  FF                db 0xff
0000740D  FF                db 0xff
0000740E  FF                db 0xff
0000740F  FF                db 0xff
00007410  FF                db 0xff
00007411  FF                db 0xff
00007412  FF                db 0xff
00007413  FF                db 0xff
00007414  FF                db 0xff
00007415  FF                db 0xff
00007416  FF                db 0xff
00007417  FF                db 0xff
00007418  FF                db 0xff
00007419  FF                db 0xff
0000741A  FF                db 0xff
0000741B  FF                db 0xff
0000741C  FF                db 0xff
0000741D  FF                db 0xff
0000741E  FF                db 0xff
0000741F  FF                db 0xff
00007420  FF                db 0xff
00007421  FF                db 0xff
00007422  FF                db 0xff
00007423  FF                db 0xff
00007424  FF                db 0xff
00007425  FF                db 0xff
00007426  FF                db 0xff
00007427  FF                db 0xff
00007428  FF                db 0xff
00007429  FF                db 0xff
0000742A  FF                db 0xff
0000742B  FF                db 0xff
0000742C  FF                db 0xff
0000742D  FF                db 0xff
0000742E  FF                db 0xff
0000742F  FF                db 0xff
00007430  FF                db 0xff
00007431  FF                db 0xff
00007432  FF                db 0xff
00007433  FF                db 0xff
00007434  FF                db 0xff
00007435  FF                db 0xff
00007436  FF                db 0xff
00007437  FF                db 0xff
00007438  FF                db 0xff
00007439  FF                db 0xff
0000743A  FF                db 0xff
0000743B  FF                db 0xff
0000743C  FF                db 0xff
0000743D  FF                db 0xff
0000743E  FF                db 0xff
0000743F  FF                db 0xff
00007440  FF                db 0xff
00007441  FF                db 0xff
00007442  FF                db 0xff
00007443  FF                db 0xff
00007444  FF                db 0xff
00007445  FF                db 0xff
00007446  FF                db 0xff
00007447  FF                db 0xff
00007448  FF                db 0xff
00007449  FF                db 0xff
0000744A  FF                db 0xff
0000744B  FF                db 0xff
0000744C  FF                db 0xff
0000744D  FF                db 0xff
0000744E  FF                db 0xff
0000744F  FF                db 0xff
00007450  FF                db 0xff
00007451  FF                db 0xff
00007452  FF                db 0xff
00007453  FF                db 0xff
00007454  FF                db 0xff
00007455  FF                db 0xff
00007456  FF                db 0xff
00007457  FF                db 0xff
00007458  FF                db 0xff
00007459  FF                db 0xff
0000745A  FF                db 0xff
0000745B  FF                db 0xff
0000745C  FF                db 0xff
0000745D  FF                db 0xff
0000745E  FF                db 0xff
0000745F  FF                db 0xff
00007460  FF                db 0xff
00007461  FF                db 0xff
00007462  FF                db 0xff
00007463  FF                db 0xff
00007464  FF                db 0xff
00007465  FF                db 0xff
00007466  FF                db 0xff
00007467  FF                db 0xff
00007468  FF                db 0xff
00007469  FF                db 0xff
0000746A  FF                db 0xff
0000746B  FF                db 0xff
0000746C  FF                db 0xff
0000746D  FF                db 0xff
0000746E  FF                db 0xff
0000746F  FF                db 0xff
00007470  FF                db 0xff
00007471  FF                db 0xff
00007472  FF                db 0xff
00007473  FF                db 0xff
00007474  FF                db 0xff
00007475  FF                db 0xff
00007476  FF                db 0xff
00007477  FF                db 0xff
00007478  FF                db 0xff
00007479  FF                db 0xff
0000747A  FF                db 0xff
0000747B  FF                db 0xff
0000747C  FF                db 0xff
0000747D  FF                db 0xff
0000747E  FF                db 0xff
0000747F  FF                db 0xff
00007480  FF                db 0xff
00007481  FF                db 0xff
00007482  FF                db 0xff
00007483  FF                db 0xff
00007484  FF                db 0xff
00007485  FF                db 0xff
00007486  FF                db 0xff
00007487  FF                db 0xff
00007488  FF                db 0xff
00007489  FF                db 0xff
0000748A  FF                db 0xff
0000748B  FF                db 0xff
0000748C  FF                db 0xff
0000748D  FF                db 0xff
0000748E  FF                db 0xff
0000748F  FF                db 0xff
00007490  FF                db 0xff
00007491  FF                db 0xff
00007492  FF                db 0xff
00007493  FF                db 0xff
00007494  FF                db 0xff
00007495  FF                db 0xff
00007496  FF                db 0xff
00007497  FF                db 0xff
00007498  FF                db 0xff
00007499  FF                db 0xff
0000749A  FF                db 0xff
0000749B  FF                db 0xff
0000749C  FF                db 0xff
0000749D  FF                db 0xff
0000749E  FF                db 0xff
0000749F  FF                db 0xff
000074A0  FF                db 0xff
000074A1  FF                db 0xff
000074A2  FF                db 0xff
000074A3  FF                db 0xff
000074A4  FF                db 0xff
000074A5  FF                db 0xff
000074A6  FF                db 0xff
000074A7  FF                db 0xff
000074A8  FF                db 0xff
000074A9  FF                db 0xff
000074AA  FF                db 0xff
000074AB  FF                db 0xff
000074AC  FF                db 0xff
000074AD  FF                db 0xff
000074AE  FF                db 0xff
000074AF  FF                db 0xff
000074B0  FF                db 0xff
000074B1  FF                db 0xff
000074B2  FF                db 0xff
000074B3  FF                db 0xff
000074B4  FF                db 0xff
000074B5  FF                db 0xff
000074B6  FF                db 0xff
000074B7  FF                db 0xff
000074B8  FF                db 0xff
000074B9  FF                db 0xff
000074BA  FF                db 0xff
000074BB  FF                db 0xff
000074BC  FF                db 0xff
000074BD  FF                db 0xff
000074BE  FF                db 0xff
000074BF  FF                db 0xff
000074C0  FF                db 0xff
000074C1  FF                db 0xff
000074C2  FF                db 0xff
000074C3  FF                db 0xff
000074C4  FF                db 0xff
000074C5  FF                db 0xff
000074C6  FF                db 0xff
000074C7  FF                db 0xff
000074C8  FF                db 0xff
000074C9  FF                db 0xff
000074CA  FF                db 0xff
000074CB  FF                db 0xff
000074CC  FF                db 0xff
000074CD  FF                db 0xff
000074CE  FF                db 0xff
000074CF  FF                db 0xff
000074D0  FF                db 0xff
000074D1  FF                db 0xff
000074D2  FF                db 0xff
000074D3  FF                db 0xff
000074D4  FF                db 0xff
000074D5  FF                db 0xff
000074D6  FF                db 0xff
000074D7  FF                db 0xff
000074D8  FF                db 0xff
000074D9  FF                db 0xff
000074DA  FF                db 0xff
000074DB  FF                db 0xff
000074DC  FF                db 0xff
000074DD  FF                db 0xff
000074DE  FF                db 0xff
000074DF  FF                db 0xff
000074E0  FF                db 0xff
000074E1  FF                db 0xff
000074E2  FF                db 0xff
000074E3  FF                db 0xff
000074E4  FF                db 0xff
000074E5  FF                db 0xff
000074E6  FF                db 0xff
000074E7  FF                db 0xff
000074E8  FF                db 0xff
000074E9  FF                db 0xff
000074EA  FF                db 0xff
000074EB  FF                db 0xff
000074EC  FF                db 0xff
000074ED  FF                db 0xff
000074EE  FF                db 0xff
000074EF  FF                db 0xff
000074F0  FF                db 0xff
000074F1  FF                db 0xff
000074F2  FF                db 0xff
000074F3  FF                db 0xff
000074F4  FF                db 0xff
000074F5  FF                db 0xff
000074F6  FF                db 0xff
000074F7  FF                db 0xff
000074F8  FF                db 0xff
000074F9  FF                db 0xff
000074FA  FF                db 0xff
000074FB  FF                db 0xff
000074FC  FF                db 0xff
000074FD  FF                db 0xff
000074FE  FF                db 0xff
000074FF  FF                db 0xff
00007500  FF                db 0xff
00007501  FF                db 0xff
00007502  FF                db 0xff
00007503  FF                db 0xff
00007504  FF                db 0xff
00007505  FF                db 0xff
00007506  FF                db 0xff
00007507  FF                db 0xff
00007508  FF                db 0xff
00007509  FF                db 0xff
0000750A  FF                db 0xff
0000750B  FF                db 0xff
0000750C  FF                db 0xff
0000750D  FF                db 0xff
0000750E  FF                db 0xff
0000750F  FF                db 0xff
00007510  FF                db 0xff
00007511  FF                db 0xff
00007512  FF                db 0xff
00007513  FF                db 0xff
00007514  FF                db 0xff
00007515  FF                db 0xff
00007516  FF                db 0xff
00007517  FF                db 0xff
00007518  FF                db 0xff
00007519  FF                db 0xff
0000751A  FF                db 0xff
0000751B  FF                db 0xff
0000751C  FF                db 0xff
0000751D  FF                db 0xff
0000751E  FF                db 0xff
0000751F  FF                db 0xff
00007520  FF                db 0xff
00007521  FF                db 0xff
00007522  FF                db 0xff
00007523  FF                db 0xff
00007524  FF                db 0xff
00007525  FF                db 0xff
00007526  FF                db 0xff
00007527  FF                db 0xff
00007528  FF                db 0xff
00007529  FF                db 0xff
0000752A  FF                db 0xff
0000752B  FF                db 0xff
0000752C  FF                db 0xff
0000752D  FF                db 0xff
0000752E  FF                db 0xff
0000752F  FF                db 0xff
00007530  FF                db 0xff
00007531  FF                db 0xff
00007532  FF                db 0xff
00007533  FF                db 0xff
00007534  FF                db 0xff
00007535  FF                db 0xff
00007536  FF                db 0xff
00007537  FF                db 0xff
00007538  FF                db 0xff
00007539  FF                db 0xff
0000753A  FF                db 0xff
0000753B  FF                db 0xff
0000753C  FF                db 0xff
0000753D  FF                db 0xff
0000753E  FF                db 0xff
0000753F  FF                db 0xff
00007540  FF                db 0xff
00007541  FF                db 0xff
00007542  FF                db 0xff
00007543  FF                db 0xff
00007544  FF                db 0xff
00007545  FF                db 0xff
00007546  FF                db 0xff
00007547  FF                db 0xff
00007548  FF                db 0xff
00007549  FF                db 0xff
0000754A  FF                db 0xff
0000754B  FF                db 0xff
0000754C  FF                db 0xff
0000754D  FF                db 0xff
0000754E  FF                db 0xff
0000754F  FF                db 0xff
00007550  FF                db 0xff
00007551  FF                db 0xff
00007552  FF                db 0xff
00007553  FF                db 0xff
00007554  FF                db 0xff
00007555  FF                db 0xff
00007556  FF                db 0xff
00007557  FF                db 0xff
00007558  FF                db 0xff
00007559  FF                db 0xff
0000755A  FF                db 0xff
0000755B  FF                db 0xff
0000755C  FF                db 0xff
0000755D  FF                db 0xff
0000755E  FF                db 0xff
0000755F  FF                db 0xff
00007560  FF                db 0xff
00007561  FF                db 0xff
00007562  FF                db 0xff
00007563  FF                db 0xff
00007564  FF                db 0xff
00007565  FF                db 0xff
00007566  FF                db 0xff
00007567  FF                db 0xff
00007568  FF                db 0xff
00007569  FF                db 0xff
0000756A  FF                db 0xff
0000756B  FF                db 0xff
0000756C  FF                db 0xff
0000756D  FF                db 0xff
0000756E  FF                db 0xff
0000756F  FF                db 0xff
00007570  FF                db 0xff
00007571  FF                db 0xff
00007572  FF                db 0xff
00007573  FF                db 0xff
00007574  FF                db 0xff
00007575  FF                db 0xff
00007576  FF                db 0xff
00007577  FF                db 0xff
00007578  FF                db 0xff
00007579  FF                db 0xff
0000757A  FF                db 0xff
0000757B  FF                db 0xff
0000757C  FF                db 0xff
0000757D  FF                db 0xff
0000757E  FF                db 0xff
0000757F  FF                db 0xff
00007580  FF                db 0xff
00007581  FF                db 0xff
00007582  FF                db 0xff
00007583  FF                db 0xff
00007584  FF                db 0xff
00007585  FF                db 0xff
00007586  FF                db 0xff
00007587  FF                db 0xff
00007588  FF                db 0xff
00007589  FF                db 0xff
0000758A  FF                db 0xff
0000758B  FF                db 0xff
0000758C  FF                db 0xff
0000758D  FF                db 0xff
0000758E  FF                db 0xff
0000758F  FF                db 0xff
00007590  FF                db 0xff
00007591  FF                db 0xff
00007592  FF                db 0xff
00007593  FF                db 0xff
00007594  FF                db 0xff
00007595  FF                db 0xff
00007596  FF                db 0xff
00007597  FF                db 0xff
00007598  FF                db 0xff
00007599  FF                db 0xff
0000759A  FF                db 0xff
0000759B  FF                db 0xff
0000759C  FF                db 0xff
0000759D  FF                db 0xff
0000759E  FF                db 0xff
0000759F  FF                db 0xff
000075A0  FF                db 0xff
000075A1  FF                db 0xff
000075A2  FF                db 0xff
000075A3  FF                db 0xff
000075A4  FF                db 0xff
000075A5  FF                db 0xff
000075A6  FF                db 0xff
000075A7  FF                db 0xff
000075A8  FF                db 0xff
000075A9  FF                db 0xff
000075AA  FF                db 0xff
000075AB  FF                db 0xff
000075AC  FF                db 0xff
000075AD  FF                db 0xff
000075AE  FF                db 0xff
000075AF  FF                db 0xff
000075B0  FF                db 0xff
000075B1  FF                db 0xff
000075B2  FF                db 0xff
000075B3  FF                db 0xff
000075B4  FF                db 0xff
000075B5  FF                db 0xff
000075B6  FF                db 0xff
000075B7  FF                db 0xff
000075B8  FF                db 0xff
000075B9  FF                db 0xff
000075BA  FF                db 0xff
000075BB  FF                db 0xff
000075BC  FF                db 0xff
000075BD  FF                db 0xff
000075BE  FF                db 0xff
000075BF  FF                db 0xff
000075C0  FF                db 0xff
000075C1  FF                db 0xff
000075C2  FF                db 0xff
000075C3  FF                db 0xff
000075C4  FF                db 0xff
000075C5  FF                db 0xff
000075C6  FF                db 0xff
000075C7  FF                db 0xff
000075C8  FF                db 0xff
000075C9  FF                db 0xff
000075CA  FF                db 0xff
000075CB  FF                db 0xff
000075CC  FF                db 0xff
000075CD  FF                db 0xff
000075CE  FF                db 0xff
000075CF  FF                db 0xff
000075D0  FF                db 0xff
000075D1  FF                db 0xff
000075D2  FF                db 0xff
000075D3  FF                db 0xff
000075D4  FF                db 0xff
000075D5  FF                db 0xff
000075D6  FF                db 0xff
000075D7  FF                db 0xff
000075D8  FF                db 0xff
000075D9  FF                db 0xff
000075DA  FF                db 0xff
000075DB  FF                db 0xff
000075DC  FF                db 0xff
000075DD  FF                db 0xff
000075DE  FF                db 0xff
000075DF  FF                db 0xff
000075E0  FF                db 0xff
000075E1  FF                db 0xff
000075E2  FF                db 0xff
000075E3  FF                db 0xff
000075E4  FF                db 0xff
000075E5  FF                db 0xff
000075E6  FF                db 0xff
000075E7  FF                db 0xff
000075E8  FF                db 0xff
000075E9  FF                db 0xff
000075EA  FF                db 0xff
000075EB  FF                db 0xff
000075EC  FF                db 0xff
000075ED  FF                db 0xff
000075EE  FF                db 0xff
000075EF  FF                db 0xff
000075F0  FF                db 0xff
000075F1  FF                db 0xff
000075F2  FF                db 0xff
000075F3  FF                db 0xff
000075F4  FF                db 0xff
000075F5  FF                db 0xff
000075F6  FF                db 0xff
000075F7  FF                db 0xff
000075F8  FF                db 0xff
000075F9  FF                db 0xff
000075FA  FF                db 0xff
000075FB  FF                db 0xff
000075FC  FF                db 0xff
000075FD  FF                db 0xff
000075FE  FF                db 0xff
000075FF  FF                db 0xff
00007600  FF                db 0xff
00007601  FF                db 0xff
00007602  FF                db 0xff
00007603  FF                db 0xff
00007604  FF                db 0xff
00007605  FF                db 0xff
00007606  FF                db 0xff
00007607  FF                db 0xff
00007608  FF                db 0xff
00007609  FF                db 0xff
0000760A  FF                db 0xff
0000760B  FF                db 0xff
0000760C  FF                db 0xff
0000760D  FF                db 0xff
0000760E  FF                db 0xff
0000760F  FF                db 0xff
00007610  FF                db 0xff
00007611  FF                db 0xff
00007612  FF                db 0xff
00007613  FF                db 0xff
00007614  FF                db 0xff
00007615  FF                db 0xff
00007616  FF                db 0xff
00007617  FF                db 0xff
00007618  FF                db 0xff
00007619  FF                db 0xff
0000761A  FF                db 0xff
0000761B  FF                db 0xff
0000761C  FF                db 0xff
0000761D  FF                db 0xff
0000761E  FF                db 0xff
0000761F  FF                db 0xff
00007620  FF                db 0xff
00007621  FF                db 0xff
00007622  FF                db 0xff
00007623  FF                db 0xff
00007624  FF                db 0xff
00007625  FF                db 0xff
00007626  FF                db 0xff
00007627  FF                db 0xff
00007628  FF                db 0xff
00007629  FF                db 0xff
0000762A  FF                db 0xff
0000762B  FF                db 0xff
0000762C  FF                db 0xff
0000762D  FF                db 0xff
0000762E  FF                db 0xff
0000762F  FF                db 0xff
00007630  FF                db 0xff
00007631  FF                db 0xff
00007632  FF                db 0xff
00007633  FF                db 0xff
00007634  FF                db 0xff
00007635  FF                db 0xff
00007636  FF                db 0xff
00007637  FF                db 0xff
00007638  FF                db 0xff
00007639  FF                db 0xff
0000763A  FF                db 0xff
0000763B  FF                db 0xff
0000763C  FF                db 0xff
0000763D  FF                db 0xff
0000763E  FF                db 0xff
0000763F  FF                db 0xff
00007640  FF                db 0xff
00007641  FF                db 0xff
00007642  FF                db 0xff
00007643  FF                db 0xff
00007644  FF                db 0xff
00007645  FF                db 0xff
00007646  FF                db 0xff
00007647  FF                db 0xff
00007648  FF                db 0xff
00007649  FF                db 0xff
0000764A  FF                db 0xff
0000764B  FF                db 0xff
0000764C  FF                db 0xff
0000764D  FF                db 0xff
0000764E  FF                db 0xff
0000764F  FF                db 0xff
00007650  FF                db 0xff
00007651  FF                db 0xff
00007652  FF                db 0xff
00007653  FF                db 0xff
00007654  FF                db 0xff
00007655  FF                db 0xff
00007656  FF                db 0xff
00007657  FF                db 0xff
00007658  FF                db 0xff
00007659  FF                db 0xff
0000765A  FF                db 0xff
0000765B  FF                db 0xff
0000765C  FF                db 0xff
0000765D  FF                db 0xff
0000765E  FF                db 0xff
0000765F  FF                db 0xff
00007660  FF                db 0xff
00007661  FF                db 0xff
00007662  FF                db 0xff
00007663  FF                db 0xff
00007664  FF                db 0xff
00007665  FF                db 0xff
00007666  FF                db 0xff
00007667  FF                db 0xff
00007668  FF                db 0xff
00007669  FF                db 0xff
0000766A  FF                db 0xff
0000766B  FF                db 0xff
0000766C  FF                db 0xff
0000766D  FF                db 0xff
0000766E  FF                db 0xff
0000766F  FF                db 0xff
00007670  FF                db 0xff
00007671  FF                db 0xff
00007672  FF                db 0xff
00007673  FF                db 0xff
00007674  FF                db 0xff
00007675  FF                db 0xff
00007676  FF                db 0xff
00007677  FF                db 0xff
00007678  FF                db 0xff
00007679  FF                db 0xff
0000767A  FF                db 0xff
0000767B  FF                db 0xff
0000767C  FF                db 0xff
0000767D  FF                db 0xff
0000767E  FF                db 0xff
0000767F  FF                db 0xff
00007680  FF                db 0xff
00007681  FF                db 0xff
00007682  FF                db 0xff
00007683  FF                db 0xff
00007684  FF                db 0xff
00007685  FF                db 0xff
00007686  FF                db 0xff
00007687  FF                db 0xff
00007688  FF                db 0xff
00007689  FF                db 0xff
0000768A  FF                db 0xff
0000768B  FF                db 0xff
0000768C  FF                db 0xff
0000768D  FF                db 0xff
0000768E  FF                db 0xff
0000768F  FF                db 0xff
00007690  FF                db 0xff
00007691  FF                db 0xff
00007692  FF                db 0xff
00007693  FF                db 0xff
00007694  FF                db 0xff
00007695  FF                db 0xff
00007696  FF                db 0xff
00007697  FF                db 0xff
00007698  FF                db 0xff
00007699  FF                db 0xff
0000769A  FF                db 0xff
0000769B  FF                db 0xff
0000769C  FF                db 0xff
0000769D  FF                db 0xff
0000769E  FF                db 0xff
0000769F  FF                db 0xff
000076A0  FF                db 0xff
000076A1  FF                db 0xff
000076A2  FF                db 0xff
000076A3  FF                db 0xff
000076A4  FF                db 0xff
000076A5  FF                db 0xff
000076A6  FF                db 0xff
000076A7  FF                db 0xff
000076A8  FF                db 0xff
000076A9  FF                db 0xff
000076AA  FF                db 0xff
000076AB  FF                db 0xff
000076AC  FF                db 0xff
000076AD  FF                db 0xff
000076AE  FF                db 0xff
000076AF  FF                db 0xff
000076B0  FF                db 0xff
000076B1  FF                db 0xff
000076B2  FF                db 0xff
000076B3  FF                db 0xff
000076B4  FF                db 0xff
000076B5  FF                db 0xff
000076B6  FF                db 0xff
000076B7  FF                db 0xff
000076B8  FF                db 0xff
000076B9  FF                db 0xff
000076BA  FF                db 0xff
000076BB  FF                db 0xff
000076BC  FF                db 0xff
000076BD  FF                db 0xff
000076BE  FF                db 0xff
000076BF  FF                db 0xff
000076C0  FF                db 0xff
000076C1  FF                db 0xff
000076C2  FF                db 0xff
000076C3  FF                db 0xff
000076C4  FF                db 0xff
000076C5  FF                db 0xff
000076C6  FF                db 0xff
000076C7  FF                db 0xff
000076C8  FF                db 0xff
000076C9  FF                db 0xff
000076CA  FF                db 0xff
000076CB  FF                db 0xff
000076CC  FF                db 0xff
000076CD  FF                db 0xff
000076CE  FF                db 0xff
000076CF  FF                db 0xff
000076D0  FF                db 0xff
000076D1  FF                db 0xff
000076D2  FF                db 0xff
000076D3  FF                db 0xff
000076D4  FF                db 0xff
000076D5  FF                db 0xff
000076D6  FF                db 0xff
000076D7  FF                db 0xff
000076D8  FF                db 0xff
000076D9  FF                db 0xff
000076DA  FF                db 0xff
000076DB  FF                db 0xff
000076DC  FF                db 0xff
000076DD  FF                db 0xff
000076DE  FF                db 0xff
000076DF  FF                db 0xff
000076E0  FF                db 0xff
000076E1  FF                db 0xff
000076E2  FF                db 0xff
000076E3  FF                db 0xff
000076E4  FF                db 0xff
000076E5  FF                db 0xff
000076E6  FF                db 0xff
000076E7  FF                db 0xff
000076E8  FF                db 0xff
000076E9  FF                db 0xff
000076EA  FF                db 0xff
000076EB  FF                db 0xff
000076EC  FF                db 0xff
000076ED  FF                db 0xff
000076EE  FF                db 0xff
000076EF  FF                db 0xff
000076F0  FF                db 0xff
000076F1  FF                db 0xff
000076F2  FF                db 0xff
000076F3  FF                db 0xff
000076F4  FF                db 0xff
000076F5  FF                db 0xff
000076F6  FF                db 0xff
000076F7  FF                db 0xff
000076F8  FF                db 0xff
000076F9  FF                db 0xff
000076FA  FF                db 0xff
000076FB  FF                db 0xff
000076FC  FF                db 0xff
000076FD  FF                db 0xff
000076FE  FF                db 0xff
000076FF  FF                db 0xff
00007700  FF                db 0xff
00007701  FF                db 0xff
00007702  FF                db 0xff
00007703  FF                db 0xff
00007704  FF                db 0xff
00007705  FF                db 0xff
00007706  FF                db 0xff
00007707  FF                db 0xff
00007708  FF                db 0xff
00007709  FF                db 0xff
0000770A  FF                db 0xff
0000770B  FF                db 0xff
0000770C  FF                db 0xff
0000770D  FF                db 0xff
0000770E  FF                db 0xff
0000770F  FF                db 0xff
00007710  FF                db 0xff
00007711  FF                db 0xff
00007712  FF                db 0xff
00007713  FF                db 0xff
00007714  FF                db 0xff
00007715  FF                db 0xff
00007716  FF                db 0xff
00007717  FF                db 0xff
00007718  FF                db 0xff
00007719  FF                db 0xff
0000771A  FF                db 0xff
0000771B  FF                db 0xff
0000771C  FF                db 0xff
0000771D  FF                db 0xff
0000771E  FF                db 0xff
0000771F  FF                db 0xff
00007720  FF                db 0xff
00007721  FF                db 0xff
00007722  FF                db 0xff
00007723  FF                db 0xff
00007724  FF                db 0xff
00007725  FF                db 0xff
00007726  FF                db 0xff
00007727  FF                db 0xff
00007728  FF                db 0xff
00007729  FF                db 0xff
0000772A  FF                db 0xff
0000772B  FF                db 0xff
0000772C  FF                db 0xff
0000772D  FF                db 0xff
0000772E  FF                db 0xff
0000772F  FF                db 0xff
00007730  FF                db 0xff
00007731  FF                db 0xff
00007732  FF                db 0xff
00007733  FF                db 0xff
00007734  FF                db 0xff
00007735  FF                db 0xff
00007736  FF                db 0xff
00007737  FF                db 0xff
00007738  FF                db 0xff
00007739  FF                db 0xff
0000773A  FF                db 0xff
0000773B  FF                db 0xff
0000773C  FF                db 0xff
0000773D  FF                db 0xff
0000773E  FF                db 0xff
0000773F  FF                db 0xff
00007740  FF                db 0xff
00007741  FF                db 0xff
00007742  FF                db 0xff
00007743  FF                db 0xff
00007744  FF                db 0xff
00007745  FF                db 0xff
00007746  FF                db 0xff
00007747  FF                db 0xff
00007748  FF                db 0xff
00007749  FF                db 0xff
0000774A  FF                db 0xff
0000774B  FF                db 0xff
0000774C  FF                db 0xff
0000774D  FF                db 0xff
0000774E  FF                db 0xff
0000774F  FF                db 0xff
00007750  FF                db 0xff
00007751  FF                db 0xff
00007752  FF4820            dec word [bx+si+0x20]
00007755  44                inc sp
00007756  52                push dx
00007757  4F                dec di
00007758  49                dec cx
00007759  44                inc sp
0000775C  7308              jnc 0x7766
0000775E  214003            and [bx+si+0x3],ax
00007761  0014              add [si],dl
00007763  0207              add al,[bx]
00007765  06                push es
00007766  54                push sp
00007767  48                dec ax
00007768  45                inc bp
00007769  205449            and [si+0x49],dl
0000776C  4D                dec bp
0000776D  45                inc bp
0000776E  4C                dec sp
0000776F  4F                dec di
00007770  52                push dx
00007771  44                inc sp
00007772  53                push bx
00007773  204841            and [bx+si+0x41],cl
00007776  56                push si
00007777  45                inc bp
00007778  20564F            and [bp+0x4f],dl
0000777B  57                push di
0000777C  45                inc bp
0000777D  44                inc sp
0000777E  0120              add [bx+si],sp
00007780  20544F            and [si+0x4f],dl
00007783  205345            and [bp+di+0x45],dl
00007786  54                push sp
00007787  204556            and [di+0x56],al
0000778A  45                inc bp
0000778B  52                push dx
0000778C  59                pop cx
0000778D  54                push sp
0000778E  48                dec ax
0000778F  49                dec cx
00007790  4E                dec si
00007791  47                inc di
00007792  205249            and [bp+si+0x49],dl
00007795  47                inc di
00007796  48                dec ax
00007797  54                push sp
00007798  2E015448          add [cs:si+0x48],dx
0000779C  45                inc bp
0000779D  59                pop cx
0000779E  27                daa
0000779F  56                push si
000077A0  45                inc bp
000077A1  204152            and [bx+di+0x52],al
000077A4  4D                dec bp
000077A5  45                inc bp
000077A6  44                inc sp
000077A7  205448            and [si+0x48],dl
000077AA  45                inc bp
000077AB  4D                dec bp
000077AC  53                push bx
000077AD  45                inc bp
000077AE  4C                dec sp
000077AF  56                push si
000077B0  45                inc bp
000077B1  53                push bx
000077B2  0120              add [bx+si],sp
000077B4  20414E            and [bx+di+0x4e],al
000077B7  44                inc sp
000077B8  204C45            and [si+0x45],cl
000077BB  41                inc cx
000077BC  52                push dx
000077BD  4E                dec si
000077BE  45                inc bp
000077BF  44                inc sp
000077C0  20544F            and [si+0x4f],dl
000077C3  204649            and [bp+0x49],al
000077C6  47                inc di
000077C7  48                dec ax
000077C8  54                push sp
000077C9  2E015448          add [cs:si+0x48],dx
000077CD  45                inc bp
000077CE  53                push bx
000077CF  45                inc bp
000077D0  2022              and [bp+si],ah
000077D2  54                push sp
000077D3  45                inc bp
000077D4  43                inc bx
000077D5  48                dec ax
000077D6  4E                dec si
000077D7  4F                dec di
000077D8  2D4241            sub ax,0x4142
000077DB  4E                dec si
000077DC  44                inc sp
000077DD  49                dec cx
000077DE  54                push sp
000077DF  53                push bx
000077E0  2220              and ah,[bx+si]
000077E2  4E                dec si
000077E3  4F                dec di
000077E4  57                push di
000077E5  0120              add [bx+si],sp
000077E7  205343            and [bp+di+0x43],dl
000077EA  4F                dec di
000077EB  55                push bp
000077EC  52                push dx
000077ED  205448            and [si+0x48],dl
000077F0  45                inc bp
000077F1  204C41            and [si+0x41],cl
000077F4  4E                dec si
000077F5  44                inc sp
000077F6  53                push bx
000077F7  01414E            add [bx+di+0x4e],ax
000077FA  44                inc sp
000077FB  204241            and [bp+si+0x41],al
000077FE  54                push sp
000077FF  54                push sp
00007800  4C                dec sp
00007801  45                inc bp
00007802  205448            and [si+0x48],dl
00007805  45                inc bp
00007806  204755            and [bx+0x55],al
00007809  41                inc cx
0000780A  52                push dx
0000780B  44                inc sp
0000780C  49                dec cx
0000780D  41                inc cx
0000780E  4E                dec si
0000780F  53                push bx
00007810  0120              add [bx+si],sp
00007812  205748            and [bx+0x48],dl
00007815  45                inc bp
00007816  52                push dx
00007817  45                inc bp
00007818  56                push si
00007819  45                inc bp
0000781A  52                push dx
0000781B  205448            and [si+0x48],dl
0000781E  45                inc bp
0000781F  59                pop cx
00007820  205354            and [bp+di+0x54],dl
00007823  41                inc cx
00007824  4E                dec si
00007825  44                inc sp
00007826  2E0300            add ax,[cs:bx+si]
00007829  7A02              jpe 0x782d
0000782B  0306494E          add ax,[0x4e49]
0000782F  54                push sp
00007830  4F                dec di
00007831  20414C            and [bx+di+0x4c],al
00007834  4C                dec sp
00007835  205448            and [si+0x48],dl
00007838  49                dec cx
00007839  53                push bx
0000783A  20434F            and [bp+di+0x4f],al
0000783D  4E                dec si
0000783E  46                inc si
0000783F  55                push bp
00007840  53                push bx
00007841  49                dec cx
00007842  4F                dec di
00007843  4E                dec si
00007844  0120              add [bx+si],sp
00007846  205448            and [si+0x48],dl
00007849  45                inc bp
0000784A  205449            and [si+0x49],dl
0000784D  4D                dec bp
0000784E  45                inc bp
0000784F  204241            and [bp+si+0x41],al
00007852  4E                dec si
00007853  44                inc sp
00007854  49                dec cx
00007855  54                push sp
00007856  20474F            and [bx+0x4f],al
00007859  45                inc bp
0000785A  53                push bx
0000785B  2E01414D          add [cs:bx+di+0x4d],ax
0000785F  4F                dec di
00007860  4E                dec si
00007861  47                inc di
00007862  205445            and [si+0x45],dl
00007865  43                inc bx
00007866  48                dec ax
00007867  4E                dec si
00007868  4F                dec di
00007869  53                push bx
0000786A  20262047          and [0x4720],ah
0000786E  55                push bp
0000786F  41                inc cx
00007870  52                push dx
00007871  44                inc sp
00007872  49                dec cx
00007873  41                inc cx
00007874  4E                dec si
00007875  53                push bx
00007876  0120              add [bx+si],sp
00007878  204845            and [bx+si+0x45],cl
0000787B  204649            and [bp+0x49],al
0000787E  4E                dec si
0000787F  44                inc sp
00007880  53                push bx
00007881  204F4E            and [bx+0x4e],cl
00007884  4C                dec sp
00007885  59                pop cx
00007886  20464F            and [bp+0x4f],al
00007889  45                inc bp
0000788A  53                push bx
0000788B  2C01              sub al,0x1
0000788D  46                inc si
0000788E  4F                dec di
0000788F  52                push dx
00007890  204845            and [bx+si+0x45],cl
00007893  205441            and [si+0x41],dl
00007896  4B                dec bx
00007897  45                inc bp
00007898  53                push bx
00007899  205448            and [si+0x48],dl
0000789C  45                inc bp
0000789D  205452            and [si+0x52],dl
000078A0  45                inc bp
000078A1  41                inc cx
000078A2  53                push bx
000078A3  55                push bp
000078A4  52                push dx
000078A5  45                inc bp
000078A6  0120              add [bx+si],sp
000078A8  205448            and [si+0x48],dl
000078AB  41                inc cx
000078AC  54                push sp
000078AD  20424F            and [bp+si+0x4f],al
000078B0  54                push sp
000078B1  48                dec ax
000078B2  205749            and [bx+0x49],dl
000078B5  53                push bx
000078B6  48                dec ax
000078B7  20544F            and [si+0x4f],dl
000078BA  204F57            and [bx+0x57],cl
000078BD  4E                dec si
000078BE  01414E            add [bx+di+0x4e],ax
000078C1  44                inc sp
000078C2  204341            and [bp+di+0x41],al
000078C5  52                push dx
000078C6  52                push dx
000078C7  49                dec cx
000078C8  45                inc bp
000078C9  53                push bx
000078CA  204954            and [bx+di+0x54],cl
000078CD  204F46            and [bx+0x46],cl
000078D0  46                inc si
000078D1  20464F            and [bp+0x4f],al
000078D4  52                push dx
000078D5  0120              add [bx+si],sp
000078D7  205245            and [bp+si+0x45],dl
000078DA  41                inc cx
000078DB  53                push bx
000078DC  4F                dec di
000078DD  4E                dec si
000078DE  53                push bx
000078DF  20554E            and [di+0x4e],dl
000078E2  4B                dec bx
000078E3  4E                dec si
000078E4  4F                dec di
000078E5  57                push di
000078E6  4E                dec si
000078E7  2E2E2E0300        add ax,[cs:bx+si]
000078EC  E002              loopne 0x78f0
000078EE  050654            add ax,0x5406
000078F1  48                dec ax
000078F2  45                inc bp
000078F3  204352            and [bp+di+0x52],al
000078F6  45                inc bp
000078F7  41                inc cx
000078F8  54                push sp
000078F9  4F                dec di
000078FA  52                push dx
000078FB  53                push bx
000078FC  204E4F            and [bp+0x4f],cl
000078FF  57                push di
00007900  204F46            and [bx+0x46],cl
00007903  46                inc si
00007904  45                inc bp
00007905  52                push dx
00007906  0120              add [bx+si],sp
00007908  205448            and [si+0x48],dl
0000790B  45                inc bp
0000790C  204241            and [bp+si+0x41],al
0000790F  4E                dec si
00007910  44                inc sp
00007911  49                dec cx
00007912  54                push sp
00007913  204120            and [bx+di+0x20],al
00007916  44                inc sp
00007917  41                inc cx
00007918  52                push dx
00007919  45                inc bp
0000791A  015441            add [si+0x41],dx
0000791D  4B                dec bx
0000791E  49                dec cx
0000791F  4E                dec si
00007920  47                inc di
00007921  204120            and [bx+di+0x20],al
00007924  53                push bx
00007925  54                push sp
00007926  52                push dx
00007927  45                inc bp
00007928  4E                dec si
00007929  47                inc di
0000792A  54                push sp
0000792B  48                dec ax
0000792C  2C20              sub al,0x20
0000792E  53                push bx
0000792F  4B                dec bx
00007930  49                dec cx
00007931  4C                dec sp
00007932  4C                dec sp
00007933  2C01              sub al,0x1
00007935  2020              and [bx+si],ah
00007937  41                inc cx
00007938  4E                dec si
00007939  44                inc sp
0000793A  204355            and [bp+di+0x55],al
0000793D  4E                dec si
0000793E  4E                dec si
0000793F  49                dec cx
00007940  4E                dec si
00007941  47                inc di
00007942  20534F            and [bp+di+0x4f],dl
00007945  205241            and [bp+si+0x41],dl
00007948  52                push dx
00007949  45                inc bp
0000794A  2E015749          add [cs:bx+0x49],dx
0000794E  4C                dec sp
0000794F  4C                dec sp
00007950  205448            and [si+0x48],dl
00007953  45                inc bp
00007954  204348            and [bp+di+0x48],al
00007957  41                inc cx
00007958  4C                dec sp
00007959  4C                dec sp
0000795A  45                inc bp
0000795B  4E                dec si
0000795C  47                inc di
0000795D  45                inc bp
0000795E  204245            and [bp+si+0x45],al
00007961  204D45            and [di+0x45],cl
00007964  54                push sp
00007965  0120              add [bx+si],sp
00007967  204259            and [bp+si+0x59],al
0000796A  204120            and [bx+di+0x20],al
0000796D  54                push sp
0000796E  52                push dx
0000796F  55                push bp
00007970  45                inc bp
00007971  204348            and [bp+di+0x48],al
00007974  41                inc cx
00007975  4D                dec bp
00007976  50                push ax
00007977  49                dec cx
00007978  4F                dec di
00007979  4E                dec si
0000797A  2C01              sub al,0x1
0000797C  4F                dec di
0000797D  52                push dx
0000797E  205749            and [bx+0x49],dl
00007981  4C                dec sp
00007982  4C                dec sp
00007983  205448            and [si+0x48],dl
00007986  45                inc bp
00007987  204241            and [bp+si+0x41],al
0000798A  4E                dec si
0000798B  44                inc sp
0000798C  49                dec cx
0000798D  54                push sp
0000798E  20464C            and [bp+0x4c],al
00007991  45                inc bp
00007992  45                inc bp
00007993  2C01              sub al,0x1
00007995  2020              and [bx+si],ah
00007997  41                inc cx
00007998  44                inc sp
00007999  4D                dec bp
0000799A  49                dec cx
0000799B  54                push sp
0000799C  54                push sp
0000799D  49                dec cx
0000799E  4E                dec si
0000799F  47                inc di
000079A0  205745            and [bx+0x45],dl
000079A3  27                daa
000079A4  56                push si
000079A5  45                inc bp
000079A6  20574F            and [bx+0x4f],dl
000079A9  4E                dec si
000079AA  3F                aas
000079AB  0204              add al,[si]
000079AD  06                push es
000079AE  0400              add al,0x0
000079B0  004601            add [bp+0x1],al
000079B3  54                push sp
000079B4  48                dec ax
000079B5  45                inc bp
000079B6  204649            and [bp+0x49],al
000079B9  52                push dx
000079BA  53                push bx
000079BB  54                push sp
000079BC  205441            and [si+0x41],dl
000079BF  53                push bx
000079C0  4B                dec bx
000079C1  204953            and [bx+di+0x53],cl
000079C4  20544F            and [si+0x4f],dl
000079C7  204649            and [bp+0x49],al
000079CA  4E                dec si
000079CB  44                inc sp
000079CC  0120              add [bx+si],sp
000079CE  205448            and [si+0x48],dl
000079D1  45                inc bp
000079D2  204752            and [bx+0x52],al
000079D5  45                inc bp
000079D6  41                inc cx
000079D7  54                push sp
000079D8  204152            and [bx+di+0x52],al
000079DB  54                push sp
000079DC  49                dec cx
000079DD  46                inc si
000079DE  41                inc cx
000079DF  43                inc bx
000079E0  54                push sp
000079E1  53                push bx
000079E2  015448            add [si+0x48],dx
000079E5  41                inc cx
000079E6  54                push sp
000079E7  205448            and [si+0x48],dl
000079EA  45                inc bp
000079EB  204755            and [bx+0x55],al
000079EE  41                inc cx
000079EF  52                push dx
000079F0  44                inc sp
000079F1  49                dec cx
000079F2  41                inc cx
000079F3  4E                dec si
000079F4  53                push bx
000079F5  205354            and [bp+di+0x54],dl
000079F8  4F                dec di
000079F9  4C                dec sp
000079FA  45                inc bp
000079FB  0120              add [bx+si],sp
000079FD  204652            and [bp+0x52],al
00007A00  4F                dec di
00007A01  4D                dec bp
00007A02  205448            and [si+0x48],dl
00007A05  45                inc bp
00007A06  205452            and [si+0x52],dl
00007A09  45                inc bp
00007A0A  41                inc cx
00007A0B  53                push bx
00007A0C  55                push bp
00007A0D  52                push dx
00007A0E  59                pop cx
00007A0F  205241            and [bp+si+0x41],dl
00007A12  43                inc bx
00007A13  4B                dec bx
00007A14  53                push bx
00007A15  2E014752          add [cs:bx+0x52],ax
00007A19  45                inc bp
00007A1A  41                inc cx
00007A1B  54                push sp
00007A1C  204245            and [bp+si+0x45],al
00007A1F  41                inc cx
00007A20  55                push bp
00007A21  54                push sp
00007A22  59                pop cx
00007A23  20414E            and [bx+di+0x4e],al
00007A26  44                inc sp
00007A27  204D45            and [di+0x45],cl
00007A2A  41                inc cx
00007A2B  4E                dec si
00007A2C  49                dec cx
00007A2D  4E                dec si
00007A2E  47                inc di
00007A2F  0120              add [bx+si],sp
00007A31  205448            and [si+0x48],dl
00007A34  45                inc bp
00007A35  53                push bx
00007A36  45                inc bp
00007A37  204152            and [bx+di+0x52],al
00007A3A  54                push sp
00007A3B  49                dec cx
00007A3C  46                inc si
00007A3D  41                inc cx
00007A3E  43                inc bx
00007A3F  54                push sp
00007A40  53                push bx
00007A41  20484F            and [bx+si+0x4f],cl
00007A44  4C                dec sp
00007A45  44                inc sp
00007A46  2C01              sub al,0x1
00007A48  47                inc di
00007A49  49                dec cx
00007A4A  56                push si
00007A4B  49                dec cx
00007A4C  4E                dec si
00007A4D  47                inc di
00007A4E  205052            and [bx+si+0x52],dl
00007A51  45                inc bp
00007A52  53                push bx
00007A53  54                push sp
00007A54  49                dec cx
00007A55  47                inc di
00007A56  45                inc bp
00007A57  20414E            and [bx+di+0x4e],al
00007A5A  44                inc sp
00007A5B  20504F            and [bx+si+0x4f],dl
00007A5E  57                push di
00007A5F  45                inc bp
00007A60  52                push dx
00007A61  0120              add [bx+si],sp
00007A63  20544F            and [si+0x4f],dl
00007A66  205448            and [si+0x48],dl
00007A69  45                inc bp
00007A6A  204241            and [bp+si+0x41],al
00007A6D  4E                dec si
00007A6E  44                inc sp
00007A6F  49                dec cx
00007A70  54                push sp
00007A71  205448            and [si+0x48],dl
00007A74  49                dec cx
00007A75  53                push bx
00007A76  20424F            and [bp+si+0x4f],al
00007A79  4C                dec sp
00007A7A  44                inc sp
00007A7B  2E0202            add al,[cs:bp+si]
00007A7E  06                push es
00007A7F  0400              add al,0x0
00007A81  00AC0141          add [si+0x4101],ch
00007A85  205245            and [bp+si+0x45],dl
00007A88  41                inc cx
00007A89  4C                dec sp
00007A8A  204D41            and [di+0x41],cl
00007A8D  53                push bx
00007A8E  54                push sp
00007A8F  45                inc bp
00007A90  52                push dx
00007A91  204341            and [bp+di+0x41],al
00007A94  4E                dec si
00007A95  204143            and [bx+di+0x43],al
00007A98  54                push sp
00007A99  55                push bp
00007A9A  41                inc cx
00007A9B  4C                dec sp
00007A9C  4C                dec sp
00007A9D  59                pop cx
00007A9E  0120              add [bx+si],sp
00007AA0  20434F            and [bp+di+0x4f],al
00007AA3  4E                dec si
00007AA4  51                push cx
00007AA5  55                push bp
00007AA6  45                inc bp
00007AA7  52                push dx
00007AA8  204120            and [bx+di+0x20],al
00007AAB  4D                dec bp
00007AAC  41                inc cx
00007AAD  5A                pop dx
00007AAE  45                inc bp
00007AAF  014259            add [bp+si+0x59],ax
00007AB2  204445            and [si+0x45],al
00007AB5  46                inc si
00007AB6  45                inc bp
00007AB7  41                inc cx
00007AB8  54                push sp
00007AB9  49                dec cx
00007ABA  4E                dec si
00007ABB  47                inc di
00007ABC  2034              and [si],dh
00007ABE  44                inc sp
00007ABF  2C20              sub al,0x20
00007AC1  49                dec cx
00007AC2  54                push sp
00007AC3  53                push bx
00007AC4  204D4F            and [di+0x4f],cl
00007AC7  53                push bx
00007AC8  54                push sp
00007AC9  0120              add [bx+si],sp
00007ACB  204F4D            and [bx+0x4d],cl
00007ACE  49                dec cx
00007ACF  4E                dec si
00007AD0  4F                dec di
00007AD1  55                push bp
00007AD2  53                push bx
00007AD3  205048            and [bx+si+0x48],dl
00007AD6  41                inc cx
00007AD7  53                push bx
00007AD8  45                inc bp
00007AD9  2E015448          add [cs:si+0x48],dx
00007ADD  45                inc bp
00007ADE  204741            and [bx+0x41],al
00007AE1  54                push sp
00007AE2  45                inc bp
00007AE3  53                push bx
00007AE4  204341            and [bp+di+0x41],al
00007AE7  4E                dec si
00007AE8  204245            and [bp+si+0x45],al
00007AEB  204252            and [bp+si+0x52],al
00007AEE  4F                dec di
00007AEF  4B                dec bx
00007AF0  45                inc bp
00007AF1  4E                dec si
00007AF2  2C01              sub al,0x1
00007AF4  2020              and [bx+si],ah
00007AF6  4F                dec di
00007AF7  4E                dec si
00007AF8  45                inc bp
00007AF9  204259            and [bp+si+0x59],al
00007AFC  204F4E            and [bx+0x4e],cl
00007AFF  45                inc bp
00007B00  2C01              sub al,0x1
00007B02  42                inc dx
00007B03  55                push bp
00007B04  54                push sp
00007B05  205749            and [bx+0x49],dl
00007B08  4E                dec si
00007B09  4E                dec si
00007B0A  49                dec cx
00007B0B  4E                dec si
00007B0C  47                inc di
00007B0D  205448            and [si+0x48],dl
00007B10  45                inc bp
00007B11  4D                dec bp
00007B12  20414C            and [bx+di+0x4c],al
00007B15  4C                dec sp
00007B16  204841            and [bx+si+0x41],cl
00007B19  53                push bx
00007B1A  0120              add [bx+si],sp
00007B1C  204E45            and [bp+0x45],cl
00007B1F  56                push si
00007B20  45                inc bp
00007B21  52                push dx
00007B22  204245            and [bp+si+0x45],al
00007B25  45                inc bp
00007B26  4E                dec si
00007B27  20444F            and [si+0x4f],al
00007B2A  4E                dec si
00007B2B  45                inc bp
00007B2C  2E2E2E0000        add [cs:bx+si],al
00007B31  FA                cli
00007B32  692D6B45          imul bp,[di],word 0x456b
00007B36  6B606B89          imul sp,[bx+si+0x6b],byte -0x77
00007B3A  6BA56BBD6B        imul sp,[di-0x4295],byte +0x6b
00007B3F  EC                in al,dx
00007B40  6B976C216D        imul dx,[bx+0x216c],byte +0x6d
00007B45  7B6D              jpo 0x7bb4
00007B47  C7                db 0xc7
00007B48  6D                insw
00007B49  E56D              in ax,0x6d
00007B4B  356E6F            xor ax,0x6f6e
00007B4E  6E                outsb
00007B4F  F06E              lock outsb
00007B51  1A6F56            sbb ch,[bx+0x56]
00007B54  6F                outsw
00007B55  CB                retf
00007B56  6F                outsw
00007B57  DE6F5D            fisubr word [bx+0x5d]
00007B5A  7002              jo 0x7b5e
00007B5C  7120              jno 0x7b7e
00007B5E  71F2              jno 0x7b52
00007B60  715C              jno 0x7bbe
00007B62  756B              jnz 0x7bcf
00007B64  7901              jns 0x7b67
00007B66  7A85              jpe 0x7aed
00007B68  7A09              jpe 0x7b73
00007B6A  7B02              jpo 0x7b6e
00007B6C  0005              add [di],al
00007B6E  00FF              add bh,bh
00007B70  0111              add [bx+di],dx
00007B72  0029              add [bx+di],ch
00007B74  00FF              add bh,bh
00007B76  0101              add [bx+di],ax
00007B78  000C              add [si],cl
00007B7A  00FF              add bh,bh
00007B7C  0021              add [bx+di],ah
00007B7E  0025              add [di],ah
00007B80  00FF              add bh,bh
00007B82  0018              add [bx+si],bl
00007B84  000B              add [bp+di],cl
00007B86  00FF              add bh,bh
00007B88  0009              add [bx+di],cl
00007B8A  005900            add [bx+di+0x0],bl
00007B8D  FF01              inc word [bx+di]
00007B8F  0400              add al,0x0
00007B91  8500              test [bx+si],ax
00007B93  FF03              inc word [bp+di]
00007B95  050030            add ax,0x3000
00007B98  00FF              add bh,bh
00007B9A  0010              add [bx+si],dl
00007B9C  0013              add [bp+di],dl
00007B9E  00FF              add bh,bh
00007BA0  0030              add [bx+si],dh
00007BA2  000F              add [bx],cl
00007BA4  00FF              add bh,bh
00007BA6  0008              add [bx+si],cl
00007BA8  008B00FF          add [bp+di-0x100],cl
00007BAC  0001              add [bx+di],al
00007BAE  0025              add [di],ah
00007BB0  00FF              add bh,bh
00007BB2  0014              add [si],dl
00007BB4  0013              add [bp+di],dl
00007BB6  00FF              add bh,bh
00007BB8  0004              add [si],al
00007BBA  0015              add [di],dl
00007BBC  00FF              add bh,bh
00007BBE  0001              add [bx+di],al
00007BC0  006900            add [bx+di+0x0],ch
00007BC3  FF00              inc word [bx+si]
00007BC5  1200              adc al,[bx+si]
00007BC7  A4                movsb
00007BC8  00FF              add bh,bh
00007BCA  0001              add [bx+di],al
00007BCC  001B              add [bp+di],bl
00007BCE  00FF              add bh,bh
00007BD0  0001              add [bx+di],al
00007BD2  000E00FF          add [0xff00],cl
00007BD6  0028              add [bx+si],ch
00007BD8  002A              add [bp+si],ch
00007BDA  00FF              add bh,bh
00007BDC  0009              add [bx+di],cl
00007BDE  006D00            add [di+0x0],ch
00007BE1  FF03              inc word [bp+di]
00007BE3  1100              adc [bx+si],ax
00007BE5  9A00FF0001        call 0x100:0xff00
00007BEA  004600            add [bp+0x0],al
00007BED  FF00              inc word [bx+si]
00007BEF  0100              add [bx+si],ax
00007BF1  1F                pop ds
00007BF2  003F              add [bx],bh
00007BF4  0001              add [bx+di],al
00007BF6  0001              add [bx+di],al
00007BF8  0001              add [bx+di],al
00007BFA  0001              add [bx+di],al
00007BFC  0001              add [bx+di],al
00007BFE  0001              add [bx+di],al
00007C00  0002              add [bp+si],al
00007C02  0005              add [di],al
00007C04  00FF              add bh,bh
00007C06  010E0056          add [0x5600],cx
00007C0A  00FF              add bh,bh
00007C0C  010A              add [bp+si],cx
00007C0E  0015              add [di],dl
00007C10  00FF              add bh,bh
00007C12  0023              add [bp+di],ah
00007C14  0035              add [di],dh
00007C16  00FF              add bh,bh
00007C18  001A              add [bp+si],bl
00007C1A  001D              add [di],bl
00007C1C  00FF              add bh,bh
00007C1E  0013              add [bp+di],dl
00007C20  0033              add [bp+di],dh
00007C22  00FF              add bh,bh
00007C24  010A              add [bp+si],cx
00007C26  0019              add [bx+di],bl
00007C28  00FF              add bh,bh
00007C2A  0315              add dx,[di]
00007C2C  001A              add [bp+si],bl
00007C2E  00FF              add bh,bh
00007C30  000A              add [bp+si],cl
00007C32  005600            add [bp+0x0],dl
00007C35  FF00              inc word [bx+si]
00007C37  3800              cmp [bx+si],al
00007C39  2600FF            es add bh,bh
00007C3C  0019              add [bx+di],bl
00007C3E  005B00            add [bp+di+0x0],bl
00007C41  FF00              inc word [bx+si]
00007C43  0A00              or al,[bx+si]
00007C45  3600FF            ss add bh,bh
00007C48  0023              add [bp+di],ah
00007C4A  009A00FF          add [bp+si-0x100],bl
00007C4E  000C              add [si],cl
00007C50  003B              add [bp+di],bh
00007C52  00FF              add bh,bh
00007C54  000A              add [bp+si],cl
00007C56  009600FF          add [bp-0x100],dl
00007C5A  001600AD          add [0xad00],dl
00007C5E  00FF              add bh,bh
00007C60  0009              add [bx+di],cl
00007C62  002B              add [bp+di],ch
00007C64  00FF              add bh,bh
00007C66  00060033          add [0x3300],al
00007C6A  00FF              add bh,bh
00007C6C  0015              add [di],dl
00007C6E  001C              add [si],bl
00007C70  00FF              add bh,bh
00007C72  000B              add [bp+di],cl
00007C74  00BE00FF          add [bp-0x100],bh
00007C78  0313              add dx,[bp+di]
00007C7A  007300            add [bp+di+0x0],dh
00007C7D  FF00              inc word [bx+si]
00007C7F  0300              add ax,[bx+si]
00007C81  5C                pop sp
00007C82  00FF              add bh,bh
00007C84  0001              add [bx+di],al
00007C86  000600FF          add [0xff00],al
00007C8A  0117              add [bx],dx
00007C8C  003E00FF          add [0xff00],bh
00007C90  0113              add [bp+di],dx
00007C92  001E00FF          add [0xff00],bl
00007C96  002B              add [bp+di],ch
00007C98  003D              add [di],bh
00007C9A  00FF              add bh,bh
00007C9C  001B              add [bp+di],bl
00007C9E  002D              add [di],ch
00007CA0  00FF              add bh,bh
00007CA2  0D1B00            or ax,0x1b
00007CA5  5B                pop bx
00007CA6  00FF              add bh,bh
00007CA8  010D              add [di],cx
00007CAA  00DC              add ah,bl
00007CAC  00FF              add bh,bh
00007CAE  032D              add bp,[di]
00007CB0  002E00FF          add [0xff00],ch
00007CB4  0013              add [bp+di],dl
00007CB6  004200            add [bp+si+0x0],al
00007CB9  FF00              inc word [bx+si]
00007CBB  3A00              cmp al,[bx+si]
00007CBD  1F                pop ds
00007CBE  00FF              add bh,bh
00007CC0  001D              add [di],bl
00007CC2  00AF00FF          add [bx-0x100],ch
00007CC6  000E0035          add [0x3500],cl
00007CCA  00FF              add bh,bh
00007CCC  00360073          add [0x7300],dh
00007CD0  00FF              add bh,bh
00007CD2  000D              add [di],cl
00007CD4  003F              add [bx],bh
00007CD6  00FF              add bh,bh
00007CD8  0007              add [bx],al
00007CDA  003B              add [bp+di],bh
00007CDC  00FF              add bh,bh
00007CDE  0036005B          add [0x5b00],dh
00007CE2  00FF              add bh,bh
00007CE4  99                cwd
00007CE5  0E                push cs
00007CE6  002F              add [bx],ch
00007CE8  00FF              add bh,bh
00007CEA  000D              add [di],cl
00007CEC  003E00FF          add [0xff00],bh
00007CF0  0035              add [di],dh
00007CF2  003D              add [di],bh
00007CF4  00FF              add bh,bh
00007CF6  000D              add [di],cl
00007CF8  00D7              add bh,dl
00007CFA  00FF              add bh,bh
00007CFC  031D              add bx,[di]
00007CFE  006D00            add [di+0x0],ch
00007D01  FF00              inc word [bx+si]
00007D03  07                pop es
00007D04  006E00            add [bp+0x0],ch
00007D07  FF00              inc word [bx+si]
00007D09  0400              add al,0x0
00007D0B  0300              add ax,[bx+si]
00007D0D  FF01              inc word [bx+di]
00007D0F  1F                pop ds
00007D10  007F00            add [bx+0x0],bh
00007D13  FF01              inc word [bx+di]
00007D15  1F                pop ds
00007D16  001F              add [bx],bl
00007D18  00FF              add bh,bh
00007D1A  003F              add [bx],bh
00007D1C  007F00            add [bx+0x0],bh
00007D1F  FF00              inc word [bx+si]
00007D21  1F                pop ds
00007D22  003F              add [bx],bh
00007D24  00FF              add bh,bh
00007D26  1F                pop ds
00007D27  1F                pop ds
00007D28  007F00            add [bx+0x0],bh
00007D2B  FF01              inc word [bx+di]
00007D2D  0F                db 0x0f
00007D2E  00FF              add bh,bh
00007D30  00FF              add bh,bh
00007D32  033F              add di,[bx]
00007D34  007F00            add [bx+0x0],bh
00007D37  FF00              inc word [bx+si]
00007D39  1F                pop ds
00007D3A  007F00            add [bx+0x0],bh
00007D3D  FF00              inc word [bx+si]
00007D3F  3F                aas
00007D40  003F              add [bx],bh
00007D42  00FF              add bh,bh
00007D44  001F              add [bx],bl
00007D46  00FF              add bh,bh
00007D48  00FF              add bh,bh
00007D4A  000F              add [bx],cl
00007D4C  003F              add [bx],bh
00007D4E  00FF              add bh,bh
00007D50  003F              add [bx],bh
00007D52  00FF              add bh,bh
00007D54  00FF              add bh,bh
00007D56  000F              add [bx],cl
00007D58  007F00            add [bx+0x0],bh
00007D5B  FF00              inc word [bx+si]
00007D5D  0F006F00          verw [bx+0x0]
00007D61  FF00              inc word [bx+si]
00007D63  3F                aas
00007D64  003F              add [bx],bh
00007D66  00FF              add bh,bh
00007D68  FF0F              dec word [bx]
00007D6A  003F              add [bx],bh
00007D6C  00FF              add bh,bh
00007D6E  000F              add [bx],cl
00007D70  003F              add [bx],bh
00007D72  00FF              add bh,bh
00007D74  001F              add [bx],bl
00007D76  003F              add [bx],bh
00007D78  00FF              add bh,bh
00007D7A  000F              add [bx],cl
00007D7C  00FF              add bh,bh
00007D7E  00FF              add bh,bh
00007D80  031F              add bx,[bx]
00007D82  00FF              add bh,bh
00007D84  00FF              add bh,bh
00007D86  000F              add [bx],cl
00007D88  007F00            add [bx+0x0],bh
00007D8B  FF00              inc word [bx+si]
00007D8F  00E3              add bl,ah
00007D91  848985B7          test [bx+di-0x487b],cl
00007D95  851B              test [bp+di],bx
00007D97  90                nop
00007DA8  AA                stosb
00007DA9  AA                stosb
00007DAA  55                push bp
00007DAB  55                push bp
00007DAC  AA                stosb
00007DAD  AA                stosb
00007DAE  55                push bp
00007DAF  55                push bp
00007DB0  AA                stosb
00007DB1  AA                stosb
00007DB2  FF                db 0xff
00007DB3  FF                db 0xff
00007DB4  FF                db 0xff
00007DB5  FF                db 0xff
00007DB6  FF                db 0xff
00007DB7  FF                db 0xff
00007DB8  FF                db 0xff
00007DB9  FF                db 0xff
00007DBA  FF                db 0xff
00007DBB  FF                db 0xff
00007DBC  FF                db 0xff
00007DBD  FF                db 0xff
00007DBE  FF                db 0xff
00007DBF  FF                db 0xff
00007DC0  FF                db 0xff
00007DC1  FF23              jmp [bp+di]
00007DC3  9C                pushf
00007DC4  F259              repne pop cx
00007DC6  95                xchg ax,bp
00007DC7  D09C23C1          rcr byte [si-0x3edd],1
00007DCB  8E99AD02          mov ds,[bx+di+0x2ad]
00007DCF  00B74001          add [bx+0x140],dh
00007DD7  FF                db 0xff
00007DD8  FF00              inc word [bx+si]
00007DEE  FC                cld
00007DEF  0002              add [bp+si],al
00007DF1  00FC              add ah,bh
00007DF3  92                xchg ax,dx
00007DF4  C3                ret
00007DF5  A7                cmpsw
00007DF6  51                push cx
00007E07  02060750          add al,[0x5007]
00007E0B  46                inc si
00007E0C  3102              xor [bp+si],ax
00007E0E  0303              add ax,[bp+di]
00007E10  20534F            and [bp+di+0x4f],dl
00007E13  4C                dec sp
00007E14  4F                dec di
00007E15  204B45            and [bp+di+0x45],cl
00007E18  59                pop cx
00007E19  42                inc dx
00007E1A  4F                dec di
00007E1B  41                inc cx
00007E1C  52                push dx
00007E1D  44                inc sp
00007E1E  0100              add [bx+si],ax
00007E20  02060750          add al,[0x5007]
00007E24  46                inc si
00007E25  3202              xor al,[bp+si]
00007E27  0303              add ax,[bp+di]
00007E29  20534F            and [bp+di+0x4f],dl
00007E2C  4C                dec sp
00007E2D  4F                dec di
00007E2E  204A4F            and [bp+si+0x4f],cl
00007E31  59                pop cx
00007E32  53                push bx
00007E33  54                push sp
00007E34  49                dec cx
00007E35  43                inc bx
00007E36  4B                dec bx
00007E37  0100              add [bx+si],ax
00007E39  02060750          add al,[0x5007]
00007E3D  46                inc si
00007E3E  3302              xor ax,[bp+si]
00007E40  0303              add ax,[bp+di]
00007E42  204455            and [si+0x55],al
00007E45  41                inc cx
00007E46  4C                dec sp
00007E47  205354            and [bp+di+0x54],dl
00007E4A  49                dec cx
00007E4B  43                inc bx
00007E4C  4B                dec bx
00007E4D  2F                das
00007E4E  4B                dec bx
00007E4F  45                inc bp
00007E50  59                pop cx
00007E51  53                push bx
00007E52  0100              add [bx+si],ax
00007E54  02060750          add al,[0x5007]
00007E58  46                inc si
00007E59  3402              xor al,0x2
00007E5B  0303              add ax,[bp+di]
00007E5D  204455            and [si+0x55],al
00007E60  41                inc cx
00007E61  4C                dec sp
00007E62  2032              and [bp+si],dh
00007E64  204A4F            and [bp+si+0x4f],cl
00007E67  59                pop cx
00007E68  53                push bx
00007E69  54                push sp
00007E6A  49                dec cx
00007E6B  43                inc bx
00007E6C  4B                dec bx
00007E6D  0005              add [di],al
00007E6F  0300              add ax,[bx+si]
00007E71  BC0205            mov sp,0x502
00007E74  054259            add ax,0x5942
00007E77  204249            and [bp+si+0x49],al
00007E7A  4C                dec sp
00007E7B  4C                dec sp
00007E7C  204455            and [si+0x55],al
00007E7F  4E                dec si
00007E80  4C                dec sp
00007E81  45                inc bp
00007E82  56                push si
00007E83  59                pop cx
00007E84  20262048          and [0x4820],ah
00007E88  41                inc cx
00007E89  52                push dx
00007E8A  52                push dx
00007E8B  59                pop cx
00007E8C  204C41            and [si+0x41],cl
00007E8F  46                inc si
00007E90  4E                dec si
00007E91  45                inc bp
00007E92  41                inc cx
00007E93  52                push dx
00007E94  0364BC            add sp,[si-0x44]
00007E97  284329            sub [bp+di+0x29],al
00007E9A  2031              and [bx+di],dh
00007E9C  3938              cmp [bx+si],di
00007E9E  3420              xor al,0x20
00007EA0  4D                dec bp
00007EA1  49                dec cx
00007EA2  43                inc bx
00007EA3  48                dec ax
00007EA4  54                push sp
00007EA5  52                push dx
00007EA6  4F                dec di
00007EA7  4E                dec si
00007EA8  0005              add [di],al
00007EAA  205745            and [bx+0x45],dl
00007EAD  4C                dec sp
00007EAE  43                inc bx
00007EAF  4F                dec di
00007EB0  4D                dec bp
00007EB1  45                inc bp
00007EB2  20544F            and [si+0x4f],dl
00007EB5  205449            and [si+0x49],dl
00007EB8  4D                dec bp
00007EB9  45                inc bp
00007EBA  204241            and [bp+si+0x41],al
00007EBD  4E                dec si
00007EBE  44                inc sp
00007EBF  49                dec cx
00007EC0  54                push sp
00007EC1  3A01              cmp al,[bx+di]
00007EC3  2020              and [bx+si],ah
00007EC5  54                push sp
00007EC6  48                dec ax
00007EC7  45                inc bp
00007EC8  204144            and [bx+di+0x44],al
00007ECB  56                push si
00007ECC  45                inc bp
00007ECD  4E                dec si
00007ECE  54                push sp
00007ECF  55                push bp
00007ED0  52                push dx
00007ED1  45                inc bp
00007ED2  204152            and [bx+di+0x52],al
00007ED5  43                inc bx
00007ED6  41                inc cx
00007ED7  44                inc sp
00007ED8  45                inc bp
00007ED9  2100              and [bx+si],ax
00007EDB  006405            add [si+0x5],ah
00007EDE  4D                dec bp
00007EDF  4F                dec di
00007EE0  56                push si
00007EE1  45                inc bp
00007EE2  205448            and [si+0x48],dl
00007EE5  45                inc bp
00007EE6  204241            and [bp+si+0x41],al
00007EE9  4E                dec si
00007EEA  44                inc sp
00007EEB  49                dec cx
00007EEC  54                push sp
00007EED  205553            and [di+0x53],dl
00007EF0  49                dec cx
00007EF1  4E                dec si
00007EF2  47                inc di
00007EF3  205448            and [si+0x48],dl
00007EF6  45                inc bp
00007EF7  014A4F            add [bp+si+0x4f],cx
00007EFA  59                pop cx
00007EFB  53                push bx
00007EFC  54                push sp
00007EFD  49                dec cx
00007EFE  43                inc bx
00007EFF  4B                dec bx
00007F00  204F52            and [bx+0x52],cl
00007F03  204152            and [bx+di+0x52],al
00007F06  52                push dx
00007F07  4F                dec di
00007F08  57                push di
00007F09  204B45            and [bp+di+0x45],cl
00007F0C  59                pop cx
00007F0D  53                push bx
00007F0E  2E0000            add [cs:bx+si],al
00007F11  3202              xor al,[bp+si]
00007F13  0403              add al,0x3
00007F15  0804              or [si],al
00007F17  0801              or [bx+di],al
00007F19  0802              or [bp+si],al
00007F1B  0800              or [bx+si],al
00007F1D  1905              sbb [di],ax
00007F1F  54                push sp
00007F20  48                dec ax
00007F21  45                inc bp
00007F22  53                push bx
00007F23  45                inc bp
00007F24  204152            and [bx+di+0x52],al
00007F27  45                inc bp
00007F28  20534F            and [bp+di+0x4f],dl
00007F2B  4C                dec sp
00007F2C  49                dec cx
00007F2D  44                inc sp
00007F2E  204C41            and [si+0x41],cl
00007F31  4E                dec si
00007F32  44                inc sp
00007F33  4D                dec bp
00007F34  41                inc cx
00007F35  52                push dx
00007F36  4B                dec bx
00007F37  53                push bx
00007F38  3B01              cmp ax,[bx+di]
00007F3A  59                pop cx
00007F3B  4F                dec di
00007F3C  55                push bp
00007F3D  204341            and [bp+di+0x41],al
00007F40  4E                dec si
00007F41  27                daa
00007F42  54                push sp
00007F43  20474F            and [bx+0x4f],al
00007F46  205448            and [si+0x48],dl
00007F49  52                push dx
00007F4A  4F                dec di
00007F4B  55                push bp
00007F4C  47                inc di
00007F4D  48                dec ax
00007F4E  205448            and [si+0x48],dl
00007F51  45                inc bp
00007F52  4D                dec bp
00007F53  2E0000            add [cs:bx+si],al
00007F56  1C03              sbb al,0x3
00007F58  0202              add al,[bp+si]
00007F5A  0401              add al,0x1
00007F5C  0200              add al,[bx+si]
00007F5E  0C03              or al,0x3
00007F60  0404              add al,0x4
00007F62  0203              add al,[bp+di]
00007F64  0204              add al,[si]
00007F66  06                push es
00007F67  0102              add [bp+si],ax
00007F69  0008              add [bx+si],cl
00007F6B  0304              add ax,[si]
00007F6D  0404              add al,0x4
00007F6F  01060402          add [0x204],ax
00007F73  0004              add [si],al
00007F75  0202              add al,[bp+si]
00007F77  03060202          add ax,[0x202]
00007F7B  0004              add [si],al
00007F7D  0805              or [di],al
00007F7F  57                push di
00007F80  48                dec ax
00007F81  45                inc bp
00007F82  4E                dec si
00007F83  20594F            and [bx+di+0x4f],bl
00007F86  55                push bp
00007F87  205245            and [bp+si+0x45],dl
00007F8A  41                inc cx
00007F8B  43                inc bx
00007F8C  48                dec ax
00007F8D  205448            and [si+0x48],dl
00007F90  45                inc bp
00007F91  204544            and [di+0x44],al
00007F94  47                inc di
00007F95  45                inc bp
00007F96  2C01              sub al,0x1
00007F98  54                push sp
00007F99  48                dec ax
00007F9A  45                inc bp
00007F9B  204D41            and [di+0x41],cl
00007F9E  50                push ax
00007F9F  204D4F            and [di+0x4f],cl
00007FA2  56                push si
00007FA3  45                inc bp
00007FA4  53                push bx
00007FA5  2100              and [bx+si],ax
00007FA7  0028              add [bx+si],ch
00007FA9  030C              add cx,[si]
00007FAB  000F              add [bx],cl
00007FAD  0805              or [di],al
00007FAF  4F                dec di
00007FB0  4E                dec si
00007FB1  45                inc bp
00007FB2  2D5741            sub ax,0x4157
00007FB5  59                pop cx
00007FB6  20444F            and [si+0x4f],al
00007FB9  4F                dec di
00007FBA  52                push dx
00007FBB  53                push bx
00007FBC  204C45            and [si+0x45],cl
00007FBF  54                push sp
00007FC0  20594F            and [bx+di+0x4f],bl
00007FC3  55                push bp
00007FC4  204D4F            and [di+0x4f],cl
00007FC7  56                push si
00007FC8  45                inc bp
00007FC9  01494E            add [bx+di+0x4e],cx
00007FCC  204449            and [si+0x49],al
00007FCF  52                push dx
00007FD0  45                inc bp
00007FD1  43                inc bx
00007FD2  54                push sp
00007FD3  49                dec cx
00007FD4  4F                dec di
00007FD5  4E                dec si
00007FD6  204F46            and [bx+0x46],cl
00007FD9  204152            and [bx+di+0x52],al
00007FDC  52                push dx
00007FDD  4F                dec di
00007FDE  57                push di
00007FDF  53                push bx
00007FE0  204F4E            and [bx+0x4e],cl
00007FE3  4C                dec sp
00007FE4  59                pop cx
00007FE7  2D0404            sub ax,0x404
00007FEA  01060204          add [0x402],ax
00007FEE  03060206          add ax,[0x602]
00007FF2  0008              add [bx+si],cl
00007FF4  0404              add al,0x4
00007FF6  0204              add al,[si]
00007FF8  0008              add [bx+si],cl
00007FFA  01060204          add [0x402],ax
00007FFE  03060408          add ax,[0x804]
00008002  000C              add [si],cl
00008004  0803              or [bp+di],al
00008006  0801              or [bx+di],al
00008008  0400              add al,0x0
0000800A  0405              add al,0x5
0000800C  54                push sp
0000800D  48                dec ax
0000800E  45                inc bp
0000800F  53                push bx
00008010  45                inc bp
00008011  204152            and [bx+di+0x52],al
00008014  45                inc bp
00008015  204556            and [di+0x56],al
00008018  49                dec cx
00008019  4C                dec sp
0000801A  20504F            and [bx+si+0x4f],dl
0000801D  52                push dx
0000801E  54                push sp
0000801F  41                inc cx
00008020  4C                dec sp
00008021  53                push bx
00008022  3B01              cmp ax,[bx+di]
00008024  43                inc bx
00008025  52                push dx
00008026  45                inc bp
00008027  41                inc cx
00008028  54                push sp
00008029  55                push bp
0000802A  52                push dx
0000802B  45                inc bp
0000802C  53                push bx
0000802D  20454D            and [di+0x4d],al
00008030  45                inc bp
00008031  52                push dx
00008032  47                inc di
00008033  45                inc bp
00008034  204652            and [bp+0x52],al
00008037  4F                dec di
00008038  4D                dec bp
00008039  205448            and [si+0x48],dl
0000803C  45                inc bp
0000803D  4D                dec bp
0000803E  2E0000            add [cs:bx+si],al
00008041  3208              xor cl,[bx+si]
00008043  055553            add ax,0x5355
00008046  45                inc bp
00008047  205350            and [bp+di+0x50],dl
0000804A  41                inc cx
0000804B  43                inc bx
0000804C  45                inc bp
0000804D  42                inc dx
0000804E  41                inc cx
0000804F  52                push dx
00008050  204F52            and [bx+0x52],cl
00008053  204A4F            and [bp+si+0x4f],cl
00008056  59                pop cx
00008057  53                push bx
00008058  54                push sp
00008059  49                dec cx
0000805A  43                inc bx
0000805B  4B                dec bx
0000805C  014255            add [bp+si+0x55],ax
0000805F  54                push sp
00008060  54                push sp
00008061  4F                dec di
00008062  4E                dec si
00008063  20544F            and [si+0x4f],dl
00008066  205348            and [bp+di+0x48],dl
00008069  4F                dec di
0000806A  4F                dec di
0000806B  54                push sp
0000806C  204352            and [bp+di+0x52],al
0000806F  45                inc bp
00008070  41                inc cx
00008071  54                push sp
00008072  55                push bp
00008073  52                push dx
00008074  45                inc bp
00008075  53                push bx
00008076  2100              and [bx+si],ax
00008078  06                push es
00008079  090E0303          or [0x303],cx
0000807D  000E0201          add [0x102],cl
00008081  06                push es
00008082  000E0401          add [0x104],cl
00008086  07                pop es
00008087  0401              add al,0x1
00008089  000D              add [di],cl
0000808B  07                pop es
0000808C  06                push es
0000808D  090E0503          or [0x305],cx
00008091  06                push es
00008092  000E0601          add [0x106],cl
00008096  0201              add al,[bx+di]
00008098  0008              add [bx+si],cl
0000809A  07                pop es
0000809B  0401              add al,0x1
0000809D  07                pop es
0000809E  0023              add [bp+di],ah
000080A0  0805              or [di],al
000080A2  49                dec cx
000080A3  46                inc si
000080A4  20594F            and [bx+di+0x4f],bl
000080A7  55                push bp
000080A8  204745            and [bx+0x45],al
000080AB  54                push sp
000080AC  204849            and [bx+si+0x49],cl
000080AF  54                push sp
000080B0  2C20              sub al,0x20
000080B2  59                pop cx
000080B3  4F                dec di
000080B4  55                push bp
000080B5  204C4F            and [si+0x4f],cl
000080B8  53                push bx
000080B9  45                inc bp
000080BA  204101            and [bx+di+0x1],al
000080BD  4C                dec sp
000080BE  49                dec cx
000080BF  46                inc si
000080C0  45                inc bp
000080C1  20414E            and [bx+di+0x4e],al
000080C4  44                inc sp
000080C5  205448            and [si+0x48],dl
000080C8  45                inc bp
000080C9  204741            and [bx+0x41],al
000080CC  4D                dec bp
000080CD  45                inc bp
000080CE  20474F            and [bx+0x4f],al
000080D1  45                inc bp
000080D2  53                push bx
000080D3  204F4E            and [bx+0x4e],cl
000080D6  2100              and [bx+si],ax
000080D8  004106            add [bx+di+0x6],al
000080DB  0411              add al,0x11
000080DD  07                pop es
000080DE  0006000E          add [0xe00],al
000080E2  0801              or [bx+di],al
000080E4  06                push es
000080E5  090E0403          or [0x304],cx
000080E9  001E0805          add [0x508],bl
000080ED  53                push bx
000080EE  45                inc bp
000080EF  41                inc cx
000080F0  52                push dx
000080F1  43                inc bx
000080F2  48                dec ax
000080F3  20464F            and [bp+0x4f],al
000080F6  52                push dx
000080F7  205448            and [si+0x48],dl
000080FA  45                inc bp
000080FB  204B45            and [bp+di+0x45],cl
000080FE  59                pop cx
000080FF  2121              and [bx+di],sp
00008101  2100              and [bx+si],ax
00008103  0028              add [bx+si],ch
00008105  0304              add ax,[si]
00008107  0210              add dl,[bx+si]
00008109  0108              add [bx+si],cx
0000810B  000A              add [bp+si],cl
0000810D  050141            add ax,0x4101
00008110  4E                dec si
00008111  44                inc sp
00008112  204752            and [bx+0x52],al
00008115  41                inc cx
00008116  42                inc dx
00008117  205452            and [si+0x52],dl
0000811A  45                inc bp
0000811B  41                inc cx
0000811C  53                push bx
0000811D  55                push bp
0000811E  52                push dx
0000811F  45                inc bp
00008120  20544F            and [si+0x4f],dl
00008123  4F                dec di
00008124  2100              and [bx+si],ax
00008126  0014              add [si],dl
00008128  0404              add al,0x4
0000812A  0202              add al,[bp+si]
0000812C  000C              add [si],cl
0000812E  0204              add al,[si]
00008130  0108              add [bx+si],cx
00008132  0019              add [bx+di],bl
00008134  0308              add cx,[bx+si]
00008136  0402              add al,0x2
00008138  0308              add cx,[bx+si]
0000813A  02060102          add al,[0x201]
0000813E  02060302          add al,[0x203]
00008142  0004              add [si],al
00008144  05012E            add ax,0x2e01
00008147  2E2E41            cs inc cx
0000814A  4E                dec si
0000814B  44                inc sp
0000814C  20414E            and [bx+di+0x4e],al
0000814F  4F                dec di
00008150  54                push sp
00008151  48                dec ax
00008152  45                inc bp
00008153  52                push dx
00008154  205452            and [si+0x52],dl
00008157  45                inc bp
00008158  41                inc cx
00008159  53                push bx
0000815A  55                push bp
0000815B  52                push dx
0000815C  45                inc bp
0000815D  2E2E2E0000        add [cs:bx+si],al
00008162  1404              adc al,0x4
00008164  0402              add al,0x2
00008166  0400              add al,0x0
00008168  0A01              or al,[bx+di]
0000816A  06                push es
0000816B  0404              add al,0x4
0000816D  0104              add [si],ax
0000816F  0402              add al,0x2
00008171  0202              add al,[bp+si]
00008173  000C              add [si],cl
00008175  0202              add al,[bp+si]
00008177  0102              add [bp+si],ax
00008179  0202              add al,[bp+si]
0000817B  0102              add [bp+si],ax
0000817D  0019              add [bx+di],bl
0000817F  0102              add [bp+si],ax
00008181  0302              add ax,[bp+si]
00008183  000F              add [bx],cl
00008185  0805              or [di],al
00008187  41                inc cx
00008188  4E                dec si
00008189  44                inc sp
0000818A  204E4F            and [bp+0x4f],cl
0000818D  57                push di
0000818E  20594F            and [bx+di+0x4f],bl
00008191  55                push bp
00008192  204D55            and [di+0x55],cl
00008195  53                push bx
00008196  54                push sp
00008197  205345            and [bp+di+0x45],dl
0000819A  41                inc cx
0000819B  52                push dx
0000819C  43                inc bx
0000819D  48                dec ax
0000819E  01464F            add [bp+0x4f],ax
000081A1  52                push dx
000081A2  205448            and [si+0x48],dl
000081A5  45                inc bp
000081A6  204C4F            and [si+0x4f],cl
000081A9  43                inc bx
000081AA  4B                dec bx
000081AB  2E0000            add [cs:bx+si],al
000081AE  2803              sub [bp+di],al
000081B0  0204              add al,[si]
000081B2  0203              add al,[bp+di]
000081B4  06                push es
000081B5  0202              add al,[bp+si]
000081B7  0308              add cx,[bx+si]
000081B9  0003              add [bp+di],al
000081BB  0805              or [di],al
000081BD  42                inc dx
000081BE  45                inc bp
000081BF  57                push di
000081C0  41                inc cx
000081C1  52                push dx
000081C2  45                inc bp
000081C3  204F46            and [bx+0x46],cl
000081C6  205741            and [bx+0x41],dl
000081C9  52                push dx
000081CA  50                push ax
000081CB  53                push bx
000081CC  014E45            add [bp+0x45],cx
000081CF  41                inc cx
000081D0  52                push dx
000081D1  205448            and [si+0x48],dl
000081D4  45                inc bp
000081D5  204544            and [di+0x44],al
000081D8  47                inc di
000081D9  45                inc bp
000081DA  2E0000            add [cs:bx+si],al
000081DD  2808              sub [bx+si],cl
000081DF  0304              add ax,[si]
000081E1  0003              add [bp+di],al
000081E3  055748            add ax,0x4857
000081E6  41                inc cx
000081E7  54                push sp
000081E8  204841            and [bx+si+0x41],cl
000081EB  50                push ax
000081EC  50                push ax
000081ED  45                inc bp
000081EE  4E                dec si
000081EF  45                inc bp
000081F0  44                inc sp
000081F1  3F                aas
000081F2  205448            and [si+0x48],dl
000081F5  45                inc bp
000081F6  204241            and [bp+si+0x41],al
000081F9  4E                dec si
000081FA  44                inc sp
000081FB  49                dec cx
000081FC  54                push sp
000081FD  015741            add [bx+0x41],dx
00008200  52                push dx
00008201  50                push ax
00008202  45                inc bp
00008203  44                inc sp
00008204  20544F            and [si+0x4f],dl
00008207  204120            and [bx+di+0x20],al
0000820A  4E                dec si
0000820B  45                inc bp
0000820C  57                push di
0000820D  205345            and [bp+di+0x45],dl
00008210  43                inc bx
00008211  54                push sp
00008212  49                dec cx
00008213  4F                dec di
00008214  4E                dec si
00008215  2E0000            add [cs:bx+si],al
00008218  2808              sub [bx+si],cl
0000821A  054C45            add ax,0x454c
0000821D  54                push sp
0000821E  27                daa
0000821F  53                push bx
00008220  205452            and [si+0x52],dl
00008223  59                pop cx
00008224  204954            and [bx+di+0x54],cl
00008227  20534F            and [bp+di+0x4f],dl
0000822A  4D                dec bp
0000822B  45                inc bp
0000822C  204D4F            and [di+0x4f],cl
0000822F  52                push dx
00008230  45                inc bp
00008231  2100              and [bx+si],ax
00008233  0014              add [si],dl
00008235  0108              add [bx+si],cx
00008237  000A              add [bp+si],cl
00008239  0308              add cx,[bx+si]
0000823B  0108              add [bx+si],cx
0000823D  0308              add cx,[bx+si]
0000823F  0014              add [si],dl
00008241  0805              or [di],al
00008243  59                pop cx
00008244  4F                dec di
00008245  55                push bp
00008246  204541            and [di+0x41],al
00008249  52                push dx
0000824A  4E                dec si
0000824B  20414E            and [bx+di+0x4e],al
0000824E  204558            and [di+0x58],al
00008251  54                push sp
00008252  52                push dx
00008253  41                inc cx
00008254  204C49            and [si+0x49],cl
00008257  46                inc si
00008258  45                inc bp
00008259  014556            add [di+0x56],ax
0000825C  45                inc bp
0000825D  52                push dx
0000825E  59                pop cx
0000825F  2031              and [bx+di],dh
00008261  3030              xor [bx+si],dh
00008263  204355            and [bp+di+0x55],al
00008266  42                inc dx
00008267  49                dec cx
00008268  54                push sp
00008269  53                push bx
0000826A  2E0000            add [cs:bx+si],al
0000826D  1E                push ds
0000826E  0304              add ax,[si]
00008270  0102              add [bp+si],ax
00008272  0014              add [si],dl
00008274  0805              or [di],al
00008276  47                inc di
00008277  4F                dec di
00008278  204F50            and [bx+0x50],cl
0000827B  45                inc bp
0000827C  4E                dec si
0000827D  205448            and [si+0x48],dl
00008280  45                inc bp
00008281  204C4F            and [si+0x4f],cl
00008284  43                inc bx
00008285  4B                dec bx
00008286  2D2D01            sub ax,0x12d
00008289  41                inc cx
0000828A  4E                dec si
0000828B  44                inc sp
0000828C  205052            and [bx+si+0x52],dl
0000828F  45                inc bp
00008290  50                push ax
00008291  41                inc cx
00008292  52                push dx
00008293  45                inc bp
00008294  20464F            and [bp+0x4f],al
00008297  52                push dx
00008298  204241            and [bp+si+0x41],al
0000829B  54                push sp
0000829C  54                push sp
0000829D  4C                dec sp
0000829E  45                inc bp
0000829F  2100              and [bx+si],ax
000082A1  0028              add [bx+si],ch
000082A3  06                push es
000082A4  0A02              or al,[bp+si]
000082A6  0801              or [bx+di],al
000082A8  06                push es
000082A9  0A060701          or al,[0x107]
000082AD  06                push es
000082AE  0F                db 0x0f
000082AF  0403              add al,0x3
000082B1  00060F04          add [0x40f],al
000082B5  050204            add ax,0x402
000082B8  0200              add al,[bx+si]
000082BA  0407              add al,0x7
000082BC  0004              add [si],al
000082BE  0406              add al,0x6
000082C0  07                pop es
000082C1  0004              add [si],al
000082C3  06                push es
000082C4  0F                db 0x0f
000082C5  0406              add al,0x6
000082C7  0004              add [si],al
000082C9  06                push es
000082CA  0102              add [bp+si],ax
000082CC  07                pop es
000082CD  0102              add [bp+si],ax
000082CF  0204              add al,[si]
000082D1  0402              add al,0x2
000082D3  000F              add [bx],cl
000082D5  0402              add al,0x2
000082D7  0302              add ax,[bp+si]
000082D9  07                pop es
000082DA  0304              add ax,[si]
000082DC  06                push es
000082DD  0A02              or al,[bp+si]
000082DF  0901              or [bx+di],ax
000082E1  0202              add al,[bp+si]
000082E3  07                pop es
000082E4  06                push es
000082E5  0F                db 0x0f
000082E6  0405              add al,0x5
000082E8  0200              add al,[bx+si]
000082EA  0803              or [bp+di],al
000082EC  0207              add al,[bx]
000082EE  0003              add [bp+di],al
000082F0  0805              or [di],al
000082F2  0205              add al,[di]
000082F4  07                pop es
000082F5  51                push cx
000082F6  55                push bp
000082F7  49                dec cx
000082F8  43                inc bx
000082F9  4B                dec bx
000082FA  2C20              sub al,0x20
000082FC  45                inc bp
000082FD  58                pop ax
000082FE  49                dec cx
000082FF  54                push sp
00008300  205448            and [si+0x48],dl
00008303  52                push dx
00008304  4F                dec di
00008305  55                push bp
00008306  47                inc di
00008307  48                dec ax
00008308  205448            and [si+0x48],dl
0000830B  45                inc bp
0000830C  015350            add [bp+di+0x50],dx
0000830F  49                dec cx
00008310  4E                dec si
00008311  4E                dec si
00008312  49                dec cx
00008313  4E                dec si
00008314  47                inc di
00008315  204741            and [bx+0x41],al
00008318  54                push sp
00008319  45                inc bp
0000831A  2E2E2E56          cs push si
0000831E  49                dec cx
0000831F  43                inc bx
00008320  54                push sp
00008321  4F                dec di
00008322  52                push dx
00008323  59                pop cx
00008324  2121              and [bx+di],sp
00008328  050302            add ax,0x203
0000832B  0202              add al,[bp+si]
0000832D  07                pop es
0000832E  07                pop es
0000832F  0202              add al,[bp+si]
00008331  06                push es
00008332  0A060801          or al,[0x108]
00008336  0102              add [bp+si],ax
00008338  0204              add al,[si]
0000833A  0402              add al,0x2
0000833C  07                pop es
0000833D  07                pop es
0000833E  0202              add al,[bp+si]
00008340  0302              add ax,[bp+si]
00008342  0202              add al,[bp+si]
00008344  050339            add ax,0x3903
00008347  1402              adc al,0x2
00008349  0406              add al,0x6
0000834B  56                push si
0000834C  49                dec cx
0000834D  43                inc bx
0000834E  54                push sp
0000834F  4F                dec di
00008350  52                push dx
00008351  59                pop cx
00008352  2121              and [bx+di],sp
00008354  0005              add [di],al
00008356  0339              add di,[bx+di]
00008358  1402              adc al,0x2
0000835A  0305              add ax,[di]
0000835C  56                push si
0000835D  49                dec cx
0000835E  43                inc bx
0000835F  54                push sp
00008360  4F                dec di
00008361  52                push dx
00008362  59                pop cx
00008363  2121              and [bx+di],sp
00008365  0005              add [di],al
00008367  0339              add di,[bx+di]
00008369  1402              adc al,0x2
0000836B  0203              add al,[bp+di]
0000836D  56                push si
0000836E  49                dec cx
0000836F  43                inc bx
00008370  54                push sp
00008371  4F                dec di
00008372  52                push dx
00008373  59                pop cx
00008374  2121              and [bx+di],sp
00008376  0005              add [di],al
00008378  0339              add di,[bx+di]
0000837A  1402              adc al,0x2
0000837C  06                push es
0000837D  025649            add dl,[bp+0x49]
00008380  43                inc bx
00008381  54                push sp
00008382  4F                dec di
00008383  52                push dx
00008384  59                pop cx
00008385  2121              and [bx+di],sp
00008387  0005              add [di],al
00008389  0339              add di,[bx+di]
0000838B  1402              adc al,0x2
0000838D  0406              add al,0x6
0000838F  56                push si
00008390  49                dec cx
00008391  43                inc bx
00008392  54                push sp
00008393  4F                dec di
00008394  52                push dx
00008395  59                pop cx
00008396  2121              and [bx+di],sp
00008398  0005              add [di],al
0000839A  0339              add di,[bx+di]
0000839C  1402              adc al,0x2
0000839E  0305              add ax,[di]
000083A0  56                push si
000083A1  49                dec cx
000083A2  43                inc bx
000083A3  54                push sp
000083A4  4F                dec di
000083A5  52                push dx
000083A6  59                pop cx
000083A7  2121              and [bx+di],sp
000083A9  0005              add [di],al
000083AB  0339              add di,[bx+di]
000083AD  1402              adc al,0x2
000083AF  0203              add al,[bp+di]
000083B1  56                push si
000083B2  49                dec cx
000083B3  43                inc bx
000083B4  54                push sp
000083B5  4F                dec di
000083B6  52                push dx
000083B7  59                pop cx
000083B8  2121              and [bx+di],sp
000083BA  0005              add [di],al
000083BC  0339              add di,[bx+di]
000083BE  1402              adc al,0x2
000083C0  06                push es
000083C1  07                pop es
000083C2  56                push si
000083C3  49                dec cx
000083C4  43                inc bx
000083C5  54                push sp
000083C6  4F                dec di
000083C7  52                push dx
000083C8  59                pop cx
000083C9  2121              and [bx+di],sp
000083CD  1402              adc al,0x2
000083CF  0400              add al,0x0
000083D1  0005              add [di],al
000083D3  0207              add al,[bx]
000083D5  0320              add sp,[bx+si]
000083D7  2020              and [bx+si],ah
000083D9  54                push sp
000083DA  48                dec ax
000083DB  45                inc bp
000083DC  204C45            and [si+0x45],cl
000083DF  47                inc di
000083E0  45                inc bp
000083E1  4E                dec si
000083E2  44                inc sp
000083E3  20414E            and [bx+di+0x4e],al
000083E6  44                inc sp
000083E7  204C4F            and [si+0x4f],cl
000083EA  52                push dx
000083EB  45                inc bp
000083EC  0120              add [bx+si],sp
000083EE  2020              and [bx+si],ah
000083F0  4F                dec di
000083F1  46                inc si
000083F2  205448            and [si+0x48],dl
000083F5  45                inc bp
000083F6  205449            and [si+0x49],dl
000083F9  4D                dec bp
000083FA  45                inc bp
000083FB  47                inc di
000083FC  41                inc cx
000083FD  54                push sp
000083FE  45                inc bp
000083FF  205741            and [bx+0x41],dl
00008402  52                push dx
00008403  0006021C          add [0x1c02],al
00008407  0401              add al,0x1
00008409  06                push es
0000840A  07                pop es
0000840B  1C06              sbb al,0x6
0000840D  0106021E          add [0x1e02],ax
00008411  0301              add ax,[bx+di]
00008413  06                push es
00008414  07                pop es
00008415  1E                push ds
00008416  0801              or [bx+di],al
00008418  06                push es
00008419  0220              add ah,[bx+si]
0000841B  050106            add ax,0x601
0000841E  07                pop es
0000841F  2007              and [bx],al
00008421  0100              add [bx+si],ax
00008423  0203              add al,[bp+di]
00008425  0200              add al,[bx+si]
00008427  0203              add al,[bp+di]
00008429  0200              add al,[bx+si]
0000842B  0203              add al,[bp+di]
0000842D  0200              add al,[bx+si]
0000842F  0203              add al,[bp+di]
00008431  0200              add al,[bx+si]
00008433  0203              add al,[bp+di]
00008435  0200              add al,[bx+si]
00008437  0203              add al,[bp+di]
00008439  0200              add al,[bx+si]
0000843B  0203              add al,[bp+di]
0000843D  0200              add al,[bx+si]
0000843F  8703              xchg [bp+di],ax
00008441  0C00              or al,0x0
00008443  8703              xchg [bp+di],ax
00008445  0C00              or al,0x0
00008447  9B030E009B        wait add cx,[0x9b00]
0000844C  030C              add cx,[si]
0000844E  00870402          add [bx+0x204],al
00008452  050207            add ax,0x702
00008455  0320              add sp,[bx+si]
00008457  2020              and [bx+si],ah
00008459  54                push sp
0000845A  48                dec ax
0000845B  45                inc bp
0000845C  204C45            and [si+0x45],cl
0000845F  47                inc di
00008460  45                inc bp
00008461  4E                dec si
00008462  44                inc sp
00008463  20414E            and [bx+di+0x4e],al
00008466  44                inc sp
00008467  204C4F            and [si+0x4f],cl
0000846A  52                push dx
0000846B  45                inc bp
0000846C  0120              add [bx+si],sp
0000846E  2020              and [bx+si],ah
00008470  4F                dec di
00008471  46                inc si
00008472  205448            and [si+0x48],dl
00008475  45                inc bp
00008476  205449            and [si+0x49],dl
00008479  4D                dec bp
0000847A  45                inc bp
0000847B  47                inc di
0000847C  41                inc cx
0000847D  54                push sp
0000847E  45                inc bp
0000847F  205741            and [bx+0x41],dl
00008482  52                push dx
00008485  0203              add al,[bp+di]
00008487  0200              add al,[bx+si]
00008489  0203              add al,[bp+di]
0000848B  0200              add al,[bx+si]
0000848D  0203              add al,[bp+di]
0000848F  0200              add al,[bx+si]
00008491  0203              add al,[bp+di]
00008493  0200              add al,[bx+si]
00008495  0203              add al,[bp+di]
00008497  0200              add al,[bx+si]
00008499  0203              add al,[bp+di]
0000849B  0200              add al,[bx+si]
0000849D  0203              add al,[bp+di]
0000849F  0200              add al,[bx+si]
000084A1  BE030C            mov si,0xc03
000084A4  00D2              add dl,dl
000084A6  030C              add cx,[si]
000084A8  00D2              add dl,dl
000084AA  030E00D2          add cx,[0xd200]
000084AE  030C              add cx,[si]
000084B0  00D2              add dl,dl
000084B2  0402              add al,0x2
000084B4  3B16D77B          cmp dx,[0x7bd7]
000084B8  743C              jz 0x84f6
000084BA  8916D77B          mov [0x7bd7],dx
000084BE  BF987B            mov di,0x7b98
000084C1  B90300            mov cx,0x3
000084C4  33C0              xor ax,ax
000084C6  33DB              xor bx,bx
000084C8  D0EA              shr dl,1
000084CA  7301              jnc 0x84cd
000084CC  48                dec ax
000084CD  D0EE              shr dh,1
000084CF  7301              jnc 0x84d2
000084D1  4B                dec bx
000084D2  8905              mov [di],ax
000084D4  895D0C            mov [di+0xc],bx
000084D7  25AAAA            and ax,0xaaaa
000084DA  81E35555          and bx,0x5555
000084DE  0BC3              or ax,bx
000084E0  894502            mov [di+0x2],ax
000084E3  894506            mov [di+0x6],ax
000084E6  89450A            mov [di+0xa],ax
000084E9  D1C0              rol ax,1
000084EB  894504            mov [di+0x4],ax
000084EE  894508            mov [di+0x8],ax
000084F1  83C70E            add di,byte +0xe
000084F4  E2CE              loop 0x84c4
000084F6  C3                ret
000084F7  A3D081            mov [0x81d0],ax
000084FA  8A14              mov dl,[si]
000084FC  46                inc si
000084FD  0AD2              or dl,dl
000084FF  7450              jz 0x8551
00008501  80FA01            cmp dl,0x1
00008504  7508              jnz 0x850e
00008506  A1D081            mov ax,[0x81d0]
00008509  83C30C            add bx,byte +0xc
0000850C  EBEC              jmp short 0x84fa
0000850E  80FA02            cmp dl,0x2
00008511  7510              jnz 0x8523
00008513  50                push ax
00008514  53                push bx
00008515  8B14              mov dx,[si]
00008517  83C602            add si,byte +0x2
0000851A  56                push si
0000851B  E896FF            call 0x84b4
0000851E  5E                pop si
0000851F  5B                pop bx
00008520  58                pop ax
00008521  EBD7              jmp short 0x84fa
00008523  80FA03            cmp dl,0x3
00008526  750C              jnz 0x8534
00008528  AD                lodsw
00008529  8ADC              mov bl,ah
0000852B  32E4              xor ah,ah
0000852D  8AFC              mov bh,ah
0000852F  A3D081            mov [0x81d0],ax
00008532  EBC6              jmp short 0x84fa
00008534  80FA04            cmp dl,0x4
00008537  750A              jnz 0x8543
00008539  AD                lodsw
0000853A  8BD8              mov bx,ax
0000853C  AD                lodsw
0000853D  93                xchg ax,bx
0000853E  A3D081            mov [0x81d0],ax
00008541  EBB7              jmp short 0x84fa
00008543  50                push ax
00008544  53                push bx
00008545  56                push si
00008546  E80900            call 0x8552
00008549  5E                pop si
0000854A  5B                pop bx
0000854B  58                pop ax
0000854C  050300            add ax,0x3
0000854F  EBA9              jmp short 0x84fa
00008551  C3                ret
00008552  BE20FE            mov si,0xfe20
00008555  32F6              xor dh,dh
00008557  D1E2              shl dx,1
00008559  D1E2              shl dx,1
0000855B  D1E2              shl dx,1
0000855D  8BCA              mov cx,dx
0000855F  D1E2              shl dx,1
00008561  03D1              add dx,cx
00008563  03F2              add si,dx
00008565  FA                cli
00008566  8926F87B          mov [0x7bf8],sp
0000856A  32F6              xor dh,dh
0000856C  8BC8              mov cx,ax
0000856E  D1E9              shr cx,1
00008570  7302              jnc 0x8574
00008572  FECE              dec dh
00008574  8BEA              mov bp,dx
00008576  D1E1              shl cx,1
00008578  D1E1              shl cx,1
0000857A  8BFB              mov di,bx
0000857C  81E70300          and di,0x3
00008580  D1EB              shr bx,1
00008582  D1EB              shr bx,1
00008584  A1D17B            mov ax,[0x7bd1]
00008587  8BE0              mov sp,ax
00008589  83EC04            sub sp,byte +0x4
0000858C  F7E3              mul bx
0000858E  8BD5              mov dx,bp
00008590  03F8              add di,ax
00008592  03F9              add di,cx
00008594  BD987B            mov bp,0x7b98
00008597  C706D57B000F      mov word [0x7bd5],0xf00
0000859D  0AF6              or dh,dh
0000859F  7406              jz 0x85a7
000085A1  C706D57BF000      mov word [0x7bd5],0xf0
000085A7  8B1ED37B          mov bx,[0x7bd3]
000085AB  8E07              mov es,[bx]
000085AD  893EFC7B          mov [0x7bfc],di
000085B1  891EFA7B          mov [0x7bfa],bx
000085B5  8B1ED57B          mov bx,[0x7bd5]
000085B9  B2FC              mov dl,0xfc
000085BB  B90C00            mov cx,0xc
000085BE  F606F77BFF        test byte [0x7bf7],0xff
000085C3  753A              jnz 0x85ff
000085C5  AD                lodsw
000085C6  234600            and ax,[bp+0x0]
000085C9  D0EA              shr dl,1
000085CB  7303              jnc 0x85d0
000085CD  83C502            add bp,byte +0x2
000085D0  D0CE              ror dh,1
000085D2  730C              jnc 0x85e0
000085D4  86C4              xchg ah,al
000085D6  D1E8              shr ax,1
000085D8  D1E8              shr ax,1
000085DA  D1E8              shr ax,1
000085DC  D1E8              shr ax,1
000085DE  86C4              xchg ah,al
000085E0  26201D            and [es:di],bl
000085E3  26207D04          and [es:di+0x4],bh
000085E7  260805            or [es:di],al
000085EA  26086504          or [es:di+0x4],ah
000085EE  47                inc di
000085EF  F7C70300          test di,0x3
000085F3  7404              jz 0x85f9
000085F5  E2CE              loop 0x85c5
000085F7  EB37              jmp short 0x8630
000085F9  03FC              add di,sp
000085FB  E2C8              loop 0x85c5
000085FD  EB31              jmp short 0x8630
000085FF  AD                lodsw
00008600  234600            and ax,[bp+0x0]
00008603  D0EA              shr dl,1
00008605  7303              jnc 0x860a
00008607  83C502            add bp,byte +0x2
0000860A  D0CE              ror dh,1
0000860C  730C              jnc 0x861a
0000860E  86C4              xchg ah,al
00008610  D1E8              shr ax,1
00008612  D1E8              shr ax,1
00008614  D1E8              shr ax,1
00008616  D1E8              shr ax,1
00008618  86C4              xchg ah,al
0000861A  263005            xor [es:di],al
0000861D  26306504          xor [es:di+0x4],ah
00008621  47                inc di
00008622  F7C70300          test di,0x3
00008626  7404              jz 0x862c
00008628  E2D5              loop 0x85ff
0000862A  EB04              jmp short 0x8630
0000862C  03FC              add di,sp
0000862E  E2CF              loop 0x85ff
00008630  8B3EFC7B          mov di,[0x7bfc]
00008634  8B1EFA7B          mov bx,[0x7bfa]
00008638  83EE18            sub si,byte +0x18
0000863B  83C502            add bp,byte +0x2
0000863E  83C302            add bx,byte +0x2
00008641  A1D37B            mov ax,[0x7bd3]
00008644  050600            add ax,0x6
00008647  3BC3              cmp ax,bx
00008649  7403              jz 0x864e
0000864B  E95DFF            jmp 0x85ab
0000864E  8B26F87B          mov sp,[0x7bf8]
00008652  FB                sti
00008653  8CC8              mov ax,cs
00008655  8EC0              mov es,ax
00008657  C3                ret
00008658  56                push si
00008659  57                push di
0000865A  BB9F27            mov bx,0x279f
0000865D  81C32354          add bx,0x5423
00008661  E81F27            call 0xad83
00008664  8B0EF57B          mov cx,[0x7bf5]
00008668  8B16F37B          mov dx,[0x7bf3]
0000866C  8BF1              mov si,cx
0000866E  8BFA              mov di,dx
00008670  8AC5              mov al,ch
00008672  8AE9              mov ch,cl
00008674  8ACE              mov cl,dh
00008676  8AF2              mov dh,dl
00008678  8AD0              mov dl,al
0000867A  D1E9              shr cx,1
0000867C  D1DA              rcr dx,1
0000867E  2BD7              sub dx,di
00008680  1BCE              sbb cx,si
00008682  2BD7              sub dx,di
00008684  1BCE              sbb cx,si
00008686  2BD7              sub dx,di
00008688  1BCE              sbb cx,si
0000868A  8916F37B          mov [0x7bf3],dx
0000868E  890EF57B          mov [0x7bf5],cx
00008692  5F                pop di
00008693  5E                pop si
00008694  C3                ret
00008695  B00C              mov al,0xc
00008697  E630              out 0x30,al
00008699  32C0              xor al,al
0000869B  E632              out 0x32,al
0000869D  B00D              mov al,0xd
0000869F  E630              out 0x30,al
000086A1  32C0              xor al,al
000086A3  E632              out 0x32,al
000086A5  B005              mov al,0x5
000086A7  E610              out 0x10,al
000086A9  33FF              xor di,di
000086AB  8BC7              mov ax,di
000086AD  8E063289          mov es,[0x8932]
000086B1  B90420            mov cx,0x2004
000086B4  F3AB              rep stosw
000086B6  33FF              xor di,di
000086B8  BA00F0            mov dx,0xf000
000086BB  8EC2              mov es,dx
000086BD  B90040            mov cx,0x4000
000086C0  F3AB              rep stosw
000086C2  8CC8              mov ax,cs
000086C4  8EC0              mov es,ax
000086C6  C3                ret
000086C7  D1E3              shl bx,1
000086C9  FFA7907B          jmp [bx+0x7b90]
000086CD  C706057C0000      mov word [0x7c05],0x0
000086D3  B401              mov ah,0x1
000086D5  E8FE01            call 0x88d6
000086D8  7408              jz 0x86e2
000086DA  32E4              xor ah,ah
000086DC  E8F701            call 0x88d6
000086DF  A3057C            mov [0x7c05],ax
000086E2  C3                ret
000086E3  A1057C            mov ax,[0x7c05]
000086E6  C606FE7B50        mov byte [0x7bfe],0x50
000086EB  3D004B            cmp ax,0x4b00
000086EE  7415              jz 0x8705
000086F0  3D0047            cmp ax,0x4700
000086F3  7410              jz 0x8705
000086F5  3C0A              cmp al,0xa
000086F7  740C              jz 0x8705
000086F9  3C34              cmp al,0x34
000086FB  7408              jz 0x8705
000086FD  3C37              cmp al,0x37
000086FF  7404              jz 0x8705
00008701  3C31              cmp al,0x31
00008703  7505              jnz 0x870a
00008705  C606FE7B19        mov byte [0x7bfe],0x19
0000870A  3D004D            cmp ax,0x4d00
0000870D  7416              jz 0x8725
0000870F  3D0049            cmp ax,0x4900
00008712  7411              jz 0x8725
00008714  3D0051            cmp ax,0x5100
00008717  740C              jz 0x8725
00008719  3C36              cmp al,0x36
0000871B  7408              jz 0x8725
0000871D  3C39              cmp al,0x39
0000871F  7404              jz 0x8725
00008721  3C33              cmp al,0x33
00008723  7505              jnz 0x872a
00008725  C606FE7B87        mov byte [0x7bfe],0x87
0000872A  C606FF7B50        mov byte [0x7bff],0x50
0000872F  3D0048            cmp ax,0x4800
00008732  7416              jz 0x874a
00008734  3D0047            cmp ax,0x4700
00008737  7411              jz 0x874a
00008739  3D0049            cmp ax,0x4900
0000873C  740C              jz 0x874a
0000873E  3C37              cmp al,0x37
00008740  7408              jz 0x874a
00008742  3C38              cmp al,0x38
00008744  7404              jz 0x874a
00008746  3C39              cmp al,0x39
00008748  7505              jnz 0x874f
0000874A  C606FF7B19        mov byte [0x7bff],0x19
0000874F  3D0050            cmp ax,0x5000
00008752  7415              jz 0x8769
00008754  3D0051            cmp ax,0x5100
00008757  7410              jz 0x8769
00008759  3C0A              cmp al,0xa
0000875B  740C              jz 0x8769
0000875D  3C35              cmp al,0x35
0000875F  7408              jz 0x8769
00008761  3C31              cmp al,0x31
00008763  7404              jz 0x8769
00008765  3C33              cmp al,0x33
00008767  7505              jnz 0x876e
00008769  C606FF7B8C        mov byte [0x7bff],0x8c
0000876E  C706007C0000      mov word [0x7c00],0x0
00008774  3C20              cmp al,0x20
00008776  7504              jnz 0x877c
00008778  FE06007C          inc byte [0x7c00]
0000877C  3C41              cmp al,0x41
0000877E  7208              jc 0x8788
00008780  3C7A              cmp al,0x7a
00008782  7704              ja 0x8788
00008784  FE06017C          inc byte [0x7c01]
00008788  C3                ret
00008789  F606037CFF        test byte [0x7c03],0xff
0000878E  7526              jnz 0x87b6
00008790  B101              mov cl,0x1
00008792  E88A00            call 0x881f
00008795  8826FE7B          mov [0x7bfe],ah
00008799  B102              mov cl,0x2
0000879B  E88100            call 0x881f
0000879E  8826FF7B          mov [0x7bff],ah
000087A2  C706007C0000      mov word [0x7c00],0x0
000087A8  D0C8              ror al,1
000087AA  D0C8              ror al,1
000087AC  D01E007C          rcr byte [0x7c00],1
000087B0  D0C8              ror al,1
000087B2  D01E017C          rcr byte [0x7c01],1
000087B6  C3                ret
000087B7  F606047CFF        test byte [0x7c04],0xff
000087BC  7528              jnz 0x87e6
000087BE  B103              mov cl,0x3
000087C0  E85C00            call 0x881f
000087C3  8826FE7B          mov [0x7bfe],ah
000087C7  B104              mov cl,0x4
000087C9  E85300            call 0x881f
000087CC  8826FF7B          mov [0x7bff],ah
000087D0  C706007C0000      mov word [0x7c00],0x0
000087D6  D0C8              ror al,1
000087D8  D01E007C          rcr byte [0x7c00],1
000087DC  D0C8              ror al,1
000087DE  D0C8              ror al,1
000087E0  D0C8              ror al,1
000087E2  D01E017C          rcr byte [0x7c01],1
000087E6  C3                ret
000087E7  5B                pop bx
000087E8  81FBF085          cmp bx,0x85f0
000087EC  741B              jz 0x8809
000087EE  FFE3              jmp bx
000087F0  8B4E0B            mov cx,[bp+0xb]
000087F3  FE4E0D            dec byte [bp+0xd]
000087F6  E0FB              loopne 0x87f3
000087F8  E3ED              jcxz 0x87e7
000087FA  51                push cx
000087FB  8B5605            mov dx,[bp+0x5]
000087FE  8B4E09            mov cx,[bp+0x9]
00008801  2B4E07            sub cx,[bp+0x7]
00008804  D1E9              shr cx,1
00008806  8B7607            mov si,[bp+0x7]
00008809  AD                lodsw
0000880A  03D0              add dx,ax
0000880C  D1C2              rol dx,1
0000880E  E2F9              loop 0x8809
00008810  58                pop ax
00008811  335603            xor dx,[bp+0x3]
00008814  74D1              jz 0x87e7
00008816  C7060986AB00      mov word [0x8609],0xab
0000881C  EBE8              jmp short 0x8806
0000881E  C3                ret
0000881F  FA                cli
00008820  A0027C            mov al,[0x7c02]
00008823  E61A              out 0x1a,al
00008825  B408              mov ah,0x8
00008827  D2E4              shl ah,cl
00008829  B90008            mov cx,0x800
0000882C  E41A              in al,0x1a
0000882E  247F              and al,0x7f
00008830  E61A              out 0x1a,al
00008832  0C80              or al,0x80
00008834  E61A              out 0x1a,al
00008836  247F              and al,0x7f
00008838  E61A              out 0x1a,al
0000883A  D0E8              shr al,1
0000883C  E418              in al,0x18
0000883E  22C4              and al,ah
00008840  E0F8              loopne 0x883a
00008842  E41A              in al,0x1a
00008844  A2027C            mov [0x7c02],al
00008847  E418              in al,0x18
00008849  FB                sti
0000884A  8AE1              mov ah,cl
0000884C  0AE9              or ch,cl
0000884E  7502              jnz 0x8852
00008850  F9                stc
00008851  C3                ret
00008852  8ACC              mov cl,ah
00008854  32ED              xor ch,ch
00008856  E300              jcxz 0x8858
00008858  F6DC              neg ah
0000885A  F8                clc
0000885B  C3                ret
0000885C  E41A              in al,0x1a
0000885E  A2027C            mov [0x7c02],al
00008861  B101              mov cl,0x1
00008863  C706037C0000      mov word [0x7c03],0x0
00008869  E8B3FF            call 0x881f
0000886C  7304              jnc 0x8872
0000886E  FE06037C          inc byte [0x7c03]
00008872  B103              mov cl,0x3
00008874  E8A8FF            call 0x881f
00008877  7304              jnc 0x887d
00008879  FE06047C          inc byte [0x7c04]
0000887D  C3                ret
0000887E  E43A              in al,0x3a
00008880  A802              test al,0x2
00008882  C3                ret
00008883  50                push ax
00008884  53                push bx
00008885  06                push es
00008886  1E                push ds
00008887  E8F4FF            call 0x887e
0000888A  7422              jz 0x88ae
0000888C  8CCB              mov bx,cs
0000888E  8EDB              mov ds,bx
00008890  A808              test al,0x8
00008892  C41EEB7B          les bx,[0x7beb]
00008896  7404              jz 0x889c
00008898  C41EEF7B          les bx,[0x7bef]
0000889C  33C0              xor ax,ax
0000889E  E438              in al,0x38
000088A0  D1E0              shl ax,1
000088A2  03D8              add bx,ax
000088A4  B035              mov al,0x35
000088A6  E63A              out 0x3a,al
000088A8  268B07            mov ax,[es:bx]
000088AB  E80500            call 0x88b3
000088AE  1F                pop ds
000088AF  07                pop es
000088B0  5B                pop bx
000088B1  58                pop ax
000088B2  CF                iret
000088B3  32FF              xor bh,bh
000088B5  8A1ED97B          mov bl,[0x7bd9]
000088B9  8987DB7B          mov [bx+0x7bdb],ax
000088BD  80C302            add bl,0x2
000088C0  80E30F            and bl,0xf
000088C3  8A3EDA7B          mov bh,[0x7bda]
000088C7  3ADF              cmp bl,bh
000088C9  7506              jnz 0x88d1
000088CB  80EB02            sub bl,0x2
000088CE  80E30F            and bl,0xf
000088D1  891ED97B          mov [0x7bd9],bx
000088D5  C3                ret
000088D6  53                push bx
000088D7  FECC              dec ah
000088D9  7804              js 0x88df
000088DB  7429              jz 0x8906
000088DD  5B                pop bx
000088DE  C3                ret
000088DF  A0DA7B            mov al,[0x7bda]
000088E2  3A06D97B          cmp al,[0x7bd9]
000088E6  74F7              jz 0x88df
000088E8  32FF              xor bh,bh
000088EA  8AD8              mov bl,al
000088EC  8B87DB7B          mov ax,[bx+0x7bdb]
000088F0  80C302            add bl,0x2
000088F3  80E30F            and bl,0xf
000088F6  881EDA7B          mov [0x7bda],bl
000088FA  BB1987            mov bx,0x8719
000088FD  87DD              xchg bp,bx
000088FF  50                push ax
00008900  E8EDFE            call 0x87f0
00008903  58                pop ax
00008904  5B                pop bx
00008905  C3                ret
00008906  FA                cli
00008907  32FF              xor bh,bh
00008909  A0DA7B            mov al,[0x7bda]
0000890C  3A06D97B          cmp al,[0x7bd9]
00008910  8AD8              mov bl,al
00008912  8B87DB7B          mov ax,[bx+0x7bdb]
00008916  FB                sti
00008917  5B                pop bx
00008918  C3                ret
00008919  680DAC            push word 0xac0d
0000891C  D527              aad 0x27
0000891E  AA                stosb
0000891F  AA                stosb
00008920  D2811987          rol byte [bx+di-0x78e7],cl
00008924  0200              add al,[bx+si]
00008926  2B00              sub ax,[bx+si]
00008B30  00F4              add ah,dh
00008B32  001C              add [si],bl
00008B34  00F0              add al,dh
00008B3C  00B00000          add [bx+si+0x0],dh
00008B4A  00B00000          add [bx+si+0x0],dh
00008B4E  0019              add [bx+di],bl
00008B50  00960000          add [bp+0x0],dl
00008B82  00FF              add bh,bh
00008B84  1900              sbb [bx+si],ax
00008B86  A5                movsw
00008BB7  0002              add [bp+si],al
00008BB9  07                pop es
00008BBA  07                pop es
00008BBB  2B20              sub sp,[bx+si]
00008BBD  54                push sp
00008BBE  49                dec cx
00008BBF  4D                dec bp
00008BC0  45                inc bp
00008BC1  204241            and [bp+si+0x41],al
00008BC4  4E                dec si
00008BC5  44                inc sp
00008BC6  49                dec cx
00008BC7  54                push sp
00008BC8  202B              and [bp+di],ch
00008BCA  2031              and [bx+di],dh
00008BCC  2E3101            xor [cs:bx+di],ax
00008BCF  0002              add [bp+si],al
00008BD1  06                push es
00008BD2  07                pop es
00008BD3  3137              xor [bx],si
00008BD5  353433            xor ax,0x3334
00008BD8  204752            and [bx+0x52],al
00008BDB  45                inc bp
00008BDC  59                pop cx
00008BDD  204D4F            and [di+0x4f],cl
00008BE0  55                push bp
00008BE1  53                push bx
00008BE2  45                inc bp
00008BE3  52                push dx
00008BE4  2020              and [bx+si],ah
00008BE6  0102              add [bp+si],ax
00008BE8  050620            add ax,0x2006
00008BEB  3937              cmp [bx],si
00008BED  3237              xor dh,[bx]
00008BEF  205448            and [si+0x48],dl
00008BF2  45                inc bp
00008BF3  20444F            and [si+0x4f],al
00008BF6  43                inc bx
00008BF7  54                push sp
00008BF8  4F                dec di
00008BF9  52                push dx
00008BFA  2020              and [bx+si],ah
00008BFC  2001              and [bx+di],al
00008BFE  0204              add al,[si]
00008C00  052032            add ax,0x3220
00008C03  3031              xor [bx+di],dh
00008C05  3020              xor [bx+si],ah
00008C07  55                push bp
00008C08  4E                dec si
00008C09  43                inc bx
00008C0A  4C                dec sp
00008C0B  45                inc bp
00008C0C  204841            and [bx+si+0x41],cl
00008C0F  4C                dec sp
00008C10  2020              and [bx+si],ah
00008C12  2020              and [bx+si],ah
00008C14  0102              add [bp+si],ax
00008C16  0304              add ax,[si]
00008C18  2031              and [bx+di],dh
00008C1A  3030              xor [bx+si],dh
00008C1C  37                aaa
00008C1D  204D52            and [di+0x52],cl
00008C20  2E20424F          and [cs:bp+si+0x4f],al
00008C24  4E                dec si
00008C25  44                inc sp
00008C26  2020              and [bx+si],ah
00008C28  3E2020            and [ds:bx+si],ah
00008C2B  0102              add [bp+si],ax
00008C2D  0203              add al,[bp+di]
00008C2F  2020              and [bx+si],ah
00008C31  2031              and [bx+di],dh
00008C33  3320              xor sp,[bx+si]
00008C35  4A                dec dx
00008C36  41                inc cx
00008C37  53                push bx
00008C38  4F                dec di
00008C39  4E                dec si
00008C3A  2020              and [bx+si],ah
00008C3C  2020              and [bx+si],ah
00008C3E  2020              and [bx+si],ah
00008C40  2020              and [bx+si],ah
00008C42  008744FF          add [bx-0xbc],al
00008C46  25DA07            and ax,0x7da
00008C49  EF                out dx,ax
00008C4A  030D              add cx,[di]
00008E7A  004355            add [bp+di+0x55],al
00008E7D  42                inc dx
00008E7E  49                dec cx
00008E7F  54                push sp
00008E80  53                push bx
00008E81  3A20              cmp ah,[bx+si]
00008E83  0100              add [bx+si],ax
00008E85  53                push bx
00008E86  50                push ax
00008E87  41                inc cx
00008E88  43                inc bx
00008E89  45                inc bp
00008E8A  42                inc dx
00008E8B  41                inc cx
00008E8C  52                push dx
00008E8D  20544F            and [si+0x4f],dl
00008E90  205245            and [bp+si+0x45],dl
00008E93  53                push bx
00008E94  55                push bp
00008E95  4D                dec bp
00008E96  45                inc bp
00008E97  2E0020            add [cs:bx+si],ah
00008E9A  2020              and [bx+si],ah
00008E9C  2020              and [bx+si],ah
00008E9E  2020              and [bx+si],ah
00008EA0  2020              and [bx+si],ah
00008EA2  2020              and [bx+si],ah
00008EA4  2020              and [bx+si],ah
00008EA6  2020              and [bx+si],ah
00008EA8  2020              and [bx+si],ah
00008EAA  2020              and [bx+si],ah
00008EAC  0028              add [bx+si],ch
00008EAE  314129            xor [bx+di+0x29],ax
00008EB1  0002              add [bp+si],al
00008EB3  07                pop es
00008EB4  07                pop es
00008EB5  59                pop cx
00008EB6  4F                dec di
00008EB7  55                push bp
00008EB8  27                daa
00008EB9  52                push dx
00008EBA  45                inc bp
00008EBB  204120            and [bx+di+0x20],al
00008EBE  53                push bx
00008EBF  48                dec ax
00008EC0  41                inc cx
00008EC1  44                inc sp
00008EC2  4F                dec di
00008EC3  57                push di
00008EC4  0100              add [bx+si],ax
00008EC6  47                inc di
00008EC7  45                inc bp
00008EC8  54                push sp
00008EC9  2000              and [bx+si],al
00008ECB  45                inc bp
00008ECC  4E                dec si
00008ECD  44                inc sp
00008ECE  204F46            and [bx+0x46],cl
00008ED1  204144            and [bx+di+0x44],al
00008ED4  56                push si
00008ED5  45                inc bp
00008ED6  4E                dec si
00008ED7  54                push sp
00008ED8  55                push bp
00008ED9  52                push dx
00008EDA  45                inc bp
00008EDB  2120              and [bx+si],sp
00008EDD  2000              and [bx+si],al
00008EDF  0207              add al,[bx]
00008EE1  035445            add dx,[si+0x45]
00008EE4  43                inc bx
00008EE5  48                dec ax
00008EE6  4E                dec si
00008EE7  4F                dec di
00008EE8  2D4241            sub ax,0x4142
00008EEB  4E                dec si
00008EEC  44                inc sp
00008EED  49                dec cx
00008EEE  54                push sp
00008EEF  20414C            and [bx+di+0x4c],al
00008EF2  45                inc bp
00008EF3  52                push dx
00008EF4  54                push sp
00008EF5  00504C            add [bx+si+0x4c],dl
00008EF8  41                inc cx
00008EF9  59                pop cx
00008EFA  45                inc bp
00008EFB  52                push dx
00008EFC  204F4E            and [bx+0x4e],cl
00008EFF  45                inc bp
00008F00  3A20              cmp ah,[bx+si]
00008F02  4E                dec si
00008F03  41                inc cx
00008F04  4D                dec bp
00008F05  45                inc bp
00008F06  3F                aas
00008F07  3F                aas
00008F08  3F                aas
00008F09  00504C            add [bx+si+0x4c],dl
00008F0C  41                inc cx
00008F0D  59                pop cx
00008F0E  45                inc bp
00008F0F  52                push dx
00008F10  205457            and [si+0x57],dl
00008F13  4F                dec di
00008F14  3A20              cmp ah,[bx+si]
00008F16  4E                dec si
00008F17  41                inc cx
00008F18  4D                dec bp
00008F19  45                inc bp
00008F1A  3F                aas
00008F1B  3F                aas
00008F1C  3F                aas
00008F1D  004849            add [bx+si+0x49],cl
00008F20  54                push sp
00008F21  2E71CF            cs jno 0x8ef3
00008F24  72C1              jc 0x8ee7
00008F26  8E99AD61          mov ds,[bx+di+0x61ad]
00008F2A  00E5              add ch,ah
00008F2C  0001              add [bx+di],al
00008F2E  0102              add [bp+si],ax
00008F30  0202              add al,[bp+si]
00008F32  0303              add ax,[bp+di]
00008F36  0102              add [bp+si],ax
00008F38  0203              add al,[bp+di]
00008F3A  0303              add ax,[bp+di]
00008F3E  0101              add [bx+di],ax
00008F40  0203              add al,[bp+di]
00008F42  0300              add ax,[bx+si]
00008F44  0001              add [bx+di],al
00008F46  0101              add [bx+di],ax
00008F48  0202              add al,[bp+si]
00008F4A  0300              add ax,[bx+si]
00008F4C  0001              add [bx+di],al
00008F4E  0001              add [bx+di],al
00008F50  0809              or [bx+di],cl
00008F52  0A0B              or cl,[bp+di]
00008F54  0203              add al,[bp+di]
00008F56  0203              add al,[bp+di]
00008F58  0405              add al,0x5
00008F5A  06                push es
00008F5B  07                pop es
00008F5E  0001              add [bx+di],al
00008F62  0200              add al,[bx+si]
00008F66  0002              add [bp+si],al
00008F68  0201              add al,[bx+di]
00008F6A  0102              add [bp+si],ax
00008F6C  0303              add ax,[bp+di]
00008F6E  0305              add ax,[di]
00008F72  0303              add ax,[bp+di]
00008F74  050504            add ax,0x405
00008F77  0303              add ax,[bp+di]
00008F79  06                push es
00008F7A  07                pop es
00008F7B  07                pop es
00008F7C  0C0C              or al,0xc
00008F7E  0C0D              or al,0xd
00008F80  0C0D              or al,0xd
00008F82  0E                push cs
00008F83  0E                push cs
00008F84  0E                push cs
00008F85  0E                push cs
00008F86  0E                push cs
00008F87  0E                push cs
00008F88  0C0D              or al,0xd
00008F8A  0C0D              or al,0xd
00008F8C  0C0D              or al,0xd
00008F8E  0E                push cs
00008F8F  0F0E              femms
00008F91  0F0E              femms
00008F93  0F                db 0x0f
00008F94  0F                db 0x0f
00008F95  0F0F0F0C          pi2fw mm1,[bx]
00008F99  0C0C              or al,0xc
00008F9B  0CFF              or al,0xff
00008F9D  FF                db 0xff
00008F9E  FFAADAAA          jmp far [bp+si-0x5526]
00008FA2  FF                db 0xff
00008FA3  FF                db 0xff
00008FA4  DA                db 0xda
00008FA5  FF                db 0xff
00008FA6  FF00              inc word [bx+si]
00008FA8  6E                outsb
00008FA9  7C00              jl 0x8fab
00008FB7  0001              add [bx+di],al
00008FDD  0100              add [bx+si],ax
00008FE1  0100              add [bx+si],ax
00008FE5  00FF              add bh,bh
00008FE7  FF00              inc word [bx+si]
00009031  006251            add [bp+si+0x51],ah
00009034  8E5E5B            mov ds,[bp+0x5b]
00009037  8E6668            mov fs,[bp+0x68]
0000903A  8E686C            mov gs,[bx+si+0x6c]
0000903D  8E7179            mov segr6,[bx+di+0x79]
00009040  8E00              mov es,[bx+si]
00009042  4C                dec sp
00009043  4F                dec di
00009044  56                push si
00009045  45                inc bp
00009046  4B                dec bx
00009047  685349            push word 0x4953
0000904A  D2811987          rol byte [bx+di-0x78e7],cl
0000904E  0200              add al,[bx+si]
00009050  0D6301            or ax,0x163
00009053  006400            add [si+0x0],ah
00009056  016501            add [di+0x1],sp
00009059  0100              add [bx+si],ax
0000905B  5F                pop di
0000905C  0100              add [bx+si],ax
0000905E  60                pusha
0000905F  0200              add al,[bx+si]
00009061  61                popa
00009062  0001              add [bx+di],al
00009064  61                popa
00009065  0201              add al,[bx+di]
00009067  006700            add [bx+0x0],ah
0000906A  0100              add [bx+si],ax
0000906C  6901006A          imul ax,[bx+di],word 0x6a00
00009070  0200              add al,[bx+si]
00009072  6B0001            imul ax,[bx+si],byte +0x1
00009075  6B0201            imul ax,[bp+si],byte +0x1
00009078  006901            add [bx+di+0x1],ch
0000907B  006902            add [bx+di+0x2],ch
0000907E  006A03            add [bp+si+0x3],ch
00009081  006B00            add [bp+di+0x0],ch
00009084  016B03            add [bp+di+0x3],bp
00009087  0100              add [bx+si],ax
00009089  2020              and [bx+si],ah
0000908B  2020              and [bx+si],ah
0000908D  2020              and [bx+si],ah
0000908F  2020              and [bx+si],ah
00009091  2020              and [bx+si],ah
00009093  2020              and [bx+si],ah
00009095  2020              and [bx+si],ah
00009097  2020              and [bx+si],ah
00009099  2020              and [bx+si],ah
0000909B  2020              and [bx+si],ah
0000909D  2020              and [bx+si],ah
0000909F  2020              and [bx+si],ah
000090A1  2020              and [bx+si],ah
000090A3  2001              and [bx+di],al
000090A5  2020              and [bx+si],ah
000090A7  2020              and [bx+si],ah
000090A9  2020              and [bx+si],ah
000090AB  2020              and [bx+si],ah
000090AD  2020              and [bx+si],ah
000090AF  2020              and [bx+si],ah
000090B1  2020              and [bx+si],ah
000090B3  2020              and [bx+si],ah
000090B5  2020              and [bx+si],ah
000090B7  2020              and [bx+si],ah
000090B9  2020              and [bx+si],ah
000090BB  2020              and [bx+si],ah
000090BD  2020              and [bx+si],ah
000090BF  2000              and [bx+si],al
000090C1  8F                db 0x8f
000090C2  A13EA2            mov ax,[0xa23e]
000090C5  03A2C9A1          add sp,[bp+si-0x5e37]
000090C9  6790              xchg ax,ax
000090CB  689073            push word 0x7390
000090CE  90                nop
000090CF  7E90              jng 0x9061
000090D1  89909490          mov [bx+si-0x6f6c],dx
000090D5  BC90B6            mov sp,0xb690
000090D8  90                nop
000090D9  AA                stosb
000090DA  90                nop
000090DB  FA                cli
000090DC  8CC8              mov ax,cs
000090DE  8ED8              mov ds,ax
000090E0  8EC0              mov es,ax
000090E2  8ED0              mov ss,ax
000090E4  BC3089            mov sp,0x8930
000090E7  FB                sti
000090E8  E80C1D            call 0xadf7
000090EB  E8DA05            call 0x96c8
000090EE  72FB              jc 0x90eb
000090F0  E8F90C            call 0x9dec
000090F3  E8FF00            call 0x91f5
000090F6  E8A016            call 0xa799
000090F9  E82518            call 0xa921
000090FC  E82B1D            call 0xae2a
000090FF  E81B17            call 0xa81d
00009102  E89A09            call 0x9a9f
00009105  BC3089            mov sp,0x8930
00009108  E8EF0C            call 0x9dfa
0000910B  BB1C8F            mov bx,0x8f1c
0000910E  833F00            cmp word [bx],byte +0x0
00009111  74F8              jz 0x910b
00009113  53                push bx
00009114  FF17              call [bx]
00009116  5B                pop bx
00009117  83C302            add bx,byte +0x2
0000911A  EBF2              jmp short 0x910e
0000911C  D7                xlatb
0000911D  96                xchg ax,si
0000911E  96                xchg ax,si
0000911F  9E                sahf
00009120  46                inc si
00009121  A14A8F            mov ax,[0x8f4a]
00009124  49                dec cx
00009125  A0A18F            mov al,[0x8fa1]
00009128  FA                cli
00009129  9BFA              wait cli
0000912B  9B3D9FBC          wait cmp ax,0xbc9f
0000912F  9F                lahf
00009130  8792FE95          xchg [bp+si-0x6a02],dx
00009134  F290              repne nop
00009136  62965D96          bound dx,[bp-0x69a3]
0000913A  7B92              jpo 0x90ce
0000913C  6E                outsb
0000913D  97                xchg ax,di
0000913E  0AADE4A0          or ch,[di-0x5f1c]
00009142  D000              rol byte [bx+si],1
00009144  84A6D000          test [bp+0xd0],ah
0000914A  BE4E89            mov si,0x894e
0000914D  E80300            call 0x9153
00009150  BE8389            mov si,0x8983
00009153  F604FF            test byte [si],0xff
00009156  7901              jns 0x9159
00009158  C3                ret
00009159  8B7C2F            mov di,[si+0x2f]
0000915C  BA3001            mov dx,0x130
0000915F  BB3089            mov bx,0x8930
00009162  807C2E00          cmp byte [si+0x2e],0x0
00009166  7528              jnz 0x9190
00009168  803C00            cmp byte [si],0x0
0000916B  7507              jnz 0x9174
0000916D  833EF48D00        cmp word [0x8df4],byte +0x0
00009172  750B              jnz 0x917f
00009174  C6443103          mov byte [si+0x31],0x3
00009178  8B36D18D          mov si,[0x8dd1]
0000917C  E9281D            jmp 0xaea7
0000917F  807C3101          cmp byte [si+0x31],0x1
00009183  7501              jnz 0x9186
00009185  C3                ret
00009186  C6443101          mov byte [si+0x31],0x1
0000918A  BEF00A            mov si,0xaf0
0000918D  E9171D            jmp 0xaea7
00009190  807C3102          cmp byte [si+0x31],0x2
00009194  7501              jnz 0x9197
00009196  C3                ret
00009197  C6443102          mov byte [si+0x31],0x2
0000919B  BE300A            mov si,0xa30
0000919E  E9061D            jmp 0xaea7
000091A1  803E4E8900        cmp byte [0x894e],0x0
000091A6  7501              jnz 0x91a9
000091A8  C3                ret
000091A9  803E838900        cmp byte [0x8983],0x0
000091AE  7501              jnz 0x91b1
000091B0  C3                ret
000091B1  FE06D38D          inc byte [0x8dd3]
000091B5  803ED38D05        cmp byte [0x8dd3],0x5
000091BA  7301              jnc 0x91bd
000091BC  C3                ret
000091BD  BA0100            mov dx,0x1
000091C0  B93F00            mov cx,0x3f
000091C3  52                push dx
000091C4  51                push cx
000091C5  E8ECF2            call 0x84b4
000091C8  A1C18D            mov ax,[0x8dc1]
000091CB  8B1EC38D          mov bx,[0x8dc3]
000091CF  BECB8C            mov si,0x8ccb
000091D2  E822F3            call 0x84f7
000091D5  B9EE02            mov cx,0x2ee
000091D8  E2FE              loop 0x91d8
000091DA  59                pop cx
000091DB  5A                pop dx
000091DC  81C20101          add dx,0x101
000091E0  81E20707          and dx,0x707
000091E4  E2DD              loop 0x91c3
000091E6  BE4E89            mov si,0x894e
000091E9  E81F0A            call 0x9c0b
000091EC  BE8389            mov si,0x8983
000091EF  E8190A            call 0x9c0b
000091F2  E9FEFE            jmp 0x90f3
000091F5  C706A88D6E7C      mov word [0x8da8],0x7c6e
000091FB  C606DD8D17        mov byte [0x8ddd],0x17
00009200  C7065989500B      mov word [0x8959],0xb50
00009206  C606798903        mov byte [0x8979],0x3
0000920B  C606D98D00        mov byte [0x8dd9],0x0
00009210  C606A68DFF        mov byte [0x8da6],0xff
00009215  C606A78D00        mov byte [0x8da7],0x0
0000921A  C3                ret
0000921B  C706007C0000      mov word [0x7c00],0x0
00009221  C606FE7B50        mov byte [0x7bfe],0x50
00009226  C606FF7B50        mov byte [0x7bff],0x50
0000922B  8A1EA68D          mov bl,[0x8da6]
0000922F  80FB04            cmp bl,0x4
00009232  7708              ja 0x923c
00009234  FE0EA78D          dec byte [0x8da7]
00009238  7402              jz 0x923c
0000923A  EB0F              jmp short 0x924b
0000923C  8B36A88D          mov si,[0x8da8]
00009240  8A1C              mov bl,[si]
00009242  881EA68D          mov [0x8da6],bl
00009246  46                inc si
00009247  8936A88D          mov [0x8da8],si
0000924B  32FF              xor bh,bh
0000924D  D1E3              shl bx,1
0000924F  83FB08            cmp bx,byte +0x8
00009252  770F              ja 0x9263
00009254  F606A78DFF        test byte [0x8da7],0xff
00009259  7508              jnz 0x9263
0000925B  AC                lodsb
0000925C  A2A78D            mov [0x8da7],al
0000925F  8936A88D          mov [0x8da8],si
00009263  FFA7C98E          jmp [bx-0x7137]
00009267  C3                ret
00009268  C606FE7B50        mov byte [0x7bfe],0x50
0000926D  C606FF7B00        mov byte [0x7bff],0x0
00009272  C3                ret
00009273  C606FE7B96        mov byte [0x7bfe],0x96
00009278  C606FF7B50        mov byte [0x7bff],0x50
0000927D  C3                ret
0000927E  C606FE7B50        mov byte [0x7bfe],0x50
00009283  C606FF7B96        mov byte [0x7bff],0x96
00009288  C3                ret
00009289  C606FE7B00        mov byte [0x7bfe],0x0
0000928E  C606FF7B50        mov byte [0x7bff],0x50
00009293  C3                ret
00009294  56                push si
00009295  BA0607            mov dx,0x706
00009298  E819F2            call 0x84b4
0000929B  5E                pop si
0000929C  B80900            mov ax,0x9
0000929F  BB0800            mov bx,0x8
000092A2  E852F2            call 0x84f7
000092A5  8936A88D          mov [0x8da8],si
000092A9  C3                ret
000092AA  B80900            mov ax,0x9
000092AD  BB0800            mov bx,0x8
000092B0  BE898E            mov si,0x8e89
000092B3  E941F2            jmp 0x84f7
000092B6  C606007C01        mov byte [0x7c00],0x1
000092BB  C3                ret
000092BC  8936A88D          mov [0x8da8],si
000092C0  8306A88D04        add word [0x8da8],byte +0x4
000092C5  8BFE              mov di,si
000092C7  E8B400            call 0x937e
000092CA  E89E00            call 0x936b
000092CD  87F7              xchg di,si
000092CF  AD                lodsw
000092D0  8905              mov [di],ax
000092D2  D0E0              shl al,1
000092D4  D0E4              shl ah,1
000092D6  894504            mov [di+0x4],ax
000092D9  AD                lodsw
000092DA  884508            mov [di+0x8],al
000092DD  886509            mov [di+0x9],ah
000092E0  87FE              xchg si,di
000092E2  E87001            call 0x9455
000092E5  803EDD8D18        cmp byte [0x8ddd],0x18
000092EA  7401              jz 0x92ed
000092EC  C3                ret
000092ED  C6440AFF          mov byte [si+0xa],0xff
000092F1  C3                ret
000092F2  BB3689            mov bx,0x8936
000092F5  BDE960            mov bp,0x60e9
000092F8  A00A8E            mov al,[0x8e0a]
000092FB  FEC0              inc al
000092FD  2403              and al,0x3
000092FF  A20A8E            mov [0x8e0a],al
00009302  B4C0              mov ah,0xc0
00009304  F6E4              mul ah
00009306  BE4E3A            mov si,0x3a4e
00009309  03F0              add si,ax
0000930B  8B0EF88D          mov cx,[0x8df8]
0000930F  56                push si
00009310  E81C00            call 0x932f
00009313  5E                pop si
00009314  81C60003          add si,0x300
00009318  8936D18D          mov [0x8dd1],si
0000931C  B90100            mov cx,0x1
0000931F  BD068E            mov bp,0x8e06
00009322  803EDD8D01        cmp byte [0x8ddd],0x1
00009327  7506              jnz 0x932f
00009329  B91500            mov cx,0x15
0000932C  BD9460            mov bp,0x6094
0000932F  8B16048E          mov dx,[0x8e04]
00009333  51                push cx
00009334  32E4              xor ah,ah
00009336  8A4600            mov al,[bp+0x0]
00009339  45                inc bp
0000933A  8BF8              mov di,ax
0000933C  D1E7              shl di,1
0000933E  D1E7              shl di,1
00009340  D1E7              shl di,1
00009342  D1E7              shl di,1
00009344  8A4600            mov al,[bp+0x0]
00009347  45                inc bp
00009348  0AC0              or al,al
0000934A  781B              js 0x9367
0000934C  F626018E          mul byte [0x8e01]
00009350  D1E0              shl ax,1
00009352  D1E0              shl ax,1
00009354  D1E0              shl ax,1
00009356  D1E0              shl ax,1
00009358  D1E0              shl ax,1
0000935A  D1E0              shl ax,1
0000935C  03F8              add di,ax
0000935E  8BC6              mov ax,si
00009360  55                push bp
00009361  E8431B            call 0xaea7
00009364  5D                pop bp
00009365  8BF0              mov si,ax
00009367  59                pop cx
00009368  E2C9              loop 0x9333
0000936A  C3                ret
0000936B  57                push di
0000936C  8BFE              mov di,si
0000936E  B91100            mov cx,0x11
00009371  B000              mov al,0x0
00009373  F3AA              rep stosb
00009375  C684F800FF        mov byte [si+0xf8],0xff
0000937A  FE0C              dec byte [si]
0000937C  5F                pop di
0000937D  C3                ret
0000937E  BE6F8A            mov si,0x8a6f
00009381  B90A00            mov cx,0xa
00009384  803CFF            cmp byte [si],0xff
00009387  7406              jz 0x938f
00009389  83C611            add si,byte +0x11
0000938C  E2F6              loop 0x9384
0000938E  58                pop ax
0000938F  C3                ret
00009390  BA0604            mov dx,0x406
00009393  81FE4E89          cmp si,0x894e
00009397  7503              jnz 0x939c
00009399  BA0703            mov dx,0x307
0000939C  BD2B8C            mov bp,0x8c2b
0000939F  B90800            mov cx,0x8
000093A2  F64600FF          test byte [bp+0x0],0xff
000093A6  7406              jz 0x93ae
000093A8  83C50A            add bp,byte +0xa
000093AB  E2F5              loop 0x93a2
000093AD  C3                ret
000093AE  895605            mov [bp+0x5],dx
000093B1  C646001F          mov byte [bp+0x0],0x1f
000093B5  B20A              mov dl,0xa
000093B7  F6F2              div dl
000093B9  0D3030            or ax,0x3030
000093BC  894607            mov [bp+0x7],ax
000093BF  8B441B            mov ax,[si+0x1b]
000093C2  8ADC              mov bl,ah
000093C4  32E4              xor ah,ah
000093C6  32FF              xor bh,bh
000093C8  B103              mov cl,0x3
000093CA  D3E0              shl ax,cl
000093CC  FEC1              inc cl
000093CE  D3E3              shl bx,cl
000093D0  40                inc ax
000093D1  83C302            add bx,byte +0x2
000093D4  894601            mov [bp+0x1],ax
000093D7  895E03            mov [bp+0x3],bx
000093DA  C3                ret
000093DB  8B1EFA8D          mov bx,[0x8dfa]
000093DF  D1E3              shl bx,1
000093E1  8B87E960          mov ax,[bx+0x60e9]
000093E5  D1EB              shr bx,1
000093E7  43                inc bx
000093E8  3B1EF88D          cmp bx,[0x8df8]
000093EC  7202              jc 0x93f0
000093EE  33DB              xor bx,bx
000093F0  891EFA8D          mov [0x8dfa],bx
000093F4  C3                ret
000093F5  E886FF            call 0x937e
000093F8  E870FF            call 0x936b
000093FB  E8DDFF            call 0x93db
000093FE  8904              mov [si],ax
00009400  D0E0              shl al,1
00009402  D0E4              shl ah,1
00009404  894404            mov [si+0x4],ax
00009407  E84EF2            call 0x8658
0000940A  80E503            and ch,0x3
0000940D  886C07            mov [si+0x7],ch
00009410  886C09            mov [si+0x9],ch
00009413  B84501            mov ax,0x145
00009416  803EDE8D00        cmp byte [0x8dde],0x0
0000941B  7503              jnz 0x9420
0000941D  B85802            mov ax,0x258
00009420  803EDE8D0D        cmp byte [0x8dde],0xd
00009425  7203              jc 0x942a
00009427  B81400            mov ax,0x14
0000942A  3906CF8D          cmp [0x8dcf],ax
0000942E  770A              ja 0x943a
00009430  F6C670            test dh,0x70
00009433  7516              jnz 0x944b
00009435  80E607            and dh,0x7
00009438  7504              jnz 0x943e
0000943A  B609              mov dh,0x9
0000943C  EB14              jmp short 0x9452
0000943E  FECE              dec dh
00009440  80FE06            cmp dh,0x6
00009443  7406              jz 0x944b
00009445  80C603            add dh,0x3
00009448  EB08              jmp short 0x9452
0000944A  90                nop
0000944B  80E601            and dh,0x1
0000944E  0236FF8D          add dh,[0x8dff]
00009452  887408            mov [si+0x8],dh
00009455  8A4408            mov al,[si+0x8]
00009458  8AE0              mov ah,al
0000945A  BB9C8D            mov bx,0x8d9c
0000945D  D7                xlatb
0000945E  80E107            and cl,0x7
00009461  D2C0              rol al,cl
00009463  803EDE8D06        cmp byte [0x8dde],0x6
00009468  7202              jc 0x946c
0000946A  B0FF              mov al,0xff
0000946C  88440A            mov [si+0xa],al
0000946F  8AC4              mov al,ah
00009471  BB443A            mov bx,0x3a44
00009474  D7                xlatb
00009475  884406            mov [si+0x6],al
00009478  E92C0D            jmp 0xa1a7
0000947B  BE4D8A            mov si,0x8a4d
0000947E  BF3B8B            mov di,0x8b3b
00009481  B97800            mov cx,0x78
00009484  F3A5              rep movsw
00009486  C3                ret
00009487  BE4D8A            mov si,0x8a4d
0000948A  BD0E00            mov bp,0xe
0000948D  8A6408            mov ah,[si+0x8]
00009490  80FC03            cmp ah,0x3
00009493  720A              jc 0x949f
00009495  8A5C0E            mov bl,[si+0xe]
00009498  FEC3              inc bl
0000949A  7403              jz 0x949f
0000949C  885C0E            mov [si+0xe],bl
0000949F  803CFF            cmp byte [si],0xff
000094A2  7503              jnz 0x94a7
000094A4  E98701            jmp 0x962e
000094A7  A0D48D            mov al,[0x8dd4]
000094AA  22440A            and al,[si+0xa]
000094AD  7503              jnz 0x94b2
000094AF  E97C01            jmp 0x962e
000094B2  80FC03            cmp ah,0x3
000094B5  7209              jc 0x94c0
000094B7  807C0E08          cmp byte [si+0xe],0x8
000094BB  7703              ja 0x94c0
000094BD  E94301            jmp 0x9603
000094C0  C606D68D00        mov byte [0x8dd6],0x0
000094C5  8B4402            mov ax,[si+0x2]
000094C8  0BC0              or ax,ax
000094CA  755F              jnz 0x952b
000094CC  E889F1            call 0x8658
000094CF  807C0803          cmp byte [si+0x8],0x3
000094D3  7256              jc 0x952b
000094D5  F6C610            test dh,0x10
000094D8  7551              jnz 0x952b
000094DA  FE06D68D          inc byte [0x8dd6]
000094DE  8A5C23            mov bl,[si+0x23]
000094E1  A0CF8D            mov al,[0x8dcf]
000094E4  A810              test al,0x10
000094E6  743B              jz 0x9523
000094E8  BF8389            mov di,0x8983
000094EB  F6068389FF        test byte [0x8983],0xff
000094F0  7804              js 0x94f6
000094F2  A820              test al,0x20
000094F4  7403              jz 0x94f9
000094F6  BF4E89            mov di,0x894e
000094F9  B401              mov ah,0x1
000094FB  8A451D            mov al,[di+0x1d]
000094FE  2A4404            sub al,[si+0x4]
00009501  7904              jns 0x9507
00009503  F6D8              neg al
00009505  B403              mov ah,0x3
00009507  3C02              cmp al,0x2
00009509  730C              jnc 0x9517
0000950B  32E4              xor ah,ah
0000950D  8A451E            mov al,[di+0x1e]
00009510  2A4405            sub al,[si+0x5]
00009513  7802              js 0x9517
00009515  B402              mov ah,0x2
00009517  886409            mov [si+0x9],ah
0000951A  53                push bx
0000951B  56                push si
0000951C  E81901            call 0x9638
0000951F  5E                pop si
00009520  5B                pop bx
00009521  EB08              jmp short 0x952b
00009523  D0EA              shr dl,1
00009525  80E203            and dl,0x3
00009528  885409            mov [si+0x9],dl
0000952B  807C0803          cmp byte [si+0x8],0x3
0000952F  720A              jc 0x953b
00009531  A0D58D            mov al,[0x8dd5]
00009534  0AC0              or al,al
00009536  7403              jz 0x953b
00009538  E9C800            jmp 0x9603
0000953B  8A4409            mov al,[si+0x9]
0000953E  FEC8              dec al
00009540  7812              js 0x9554
00009542  FEC8              dec al
00009544  785B              js 0x95a1
00009546  FEC8              dec al
00009548  7831              js 0x957b
0000954A  FEC8              dec al
0000954C  7903              jns 0x9551
0000954E  E98A00            jmp 0x95db
00009551  E9AF00            jmp 0x9603
00009554  F64403FF          test byte [si+0x3],0xff
00009558  7518              jnz 0x9572
0000955A  F64401FF          test byte [si+0x1],0xff
0000955E  7503              jnz 0x9563
00009560  E9A000            jmp 0x9603
00009563  A0018E            mov al,[0x8e01]
00009566  F6D8              neg al
00009568  E81501            call 0x9680
0000956B  C6440302          mov byte [si+0x3],0x2
0000956F  FE4C01            dec byte [si+0x1]
00009572  FE4C05            dec byte [si+0x5]
00009575  FE4C03            dec byte [si+0x3]
00009578  E98800            jmp 0x9603
0000957B  F64403FF          test byte [si+0x3],0xff
0000957F  7510              jnz 0x9591
00009581  8A4401            mov al,[si+0x1]
00009584  40                inc ax
00009585  3A06008E          cmp al,[0x8e00]
00009589  7478              jz 0x9603
0000958B  A0018E            mov al,[0x8e01]
0000958E  E8EF00            call 0x9680
00009591  FE4405            inc byte [si+0x5]
00009594  8A4403            mov al,[si+0x3]
00009597  3401              xor al,0x1
00009599  884403            mov [si+0x3],al
0000959C  004401            add [si+0x1],al
0000959F  EB62              jmp short 0x9603
000095A1  F64402FF          test byte [si+0x2],0xff
000095A5  750E              jnz 0x95b5
000095A7  8A04              mov al,[si]
000095A9  40                inc ax
000095AA  3A06018E          cmp al,[0x8e01]
000095AE  7453              jz 0x9603
000095B0  B001              mov al,0x1
000095B2  E8CB00            call 0x9680
000095B5  FE4404            inc byte [si+0x4]
000095B8  8A4402            mov al,[si+0x2]
000095BB  3401              xor al,0x1
000095BD  884402            mov [si+0x2],al
000095C0  0004              add [si],al
000095C2  8A6406            mov ah,[si+0x6]
000095C5  F6C404            test ah,0x4
000095C8  7439              jz 0x9603
000095CA  C7440F8001        mov word [si+0xf],0x180
000095CF  F6C402            test ah,0x2
000095D2  742F              jz 0x9603
000095D4  C7440F0003        mov word [si+0xf],0x300
000095D9  EB28              jmp short 0x9603
000095DB  F64402FF          test byte [si+0x2],0xff
000095DF  7511              jnz 0x95f2
000095E1  F64404FF          test byte [si+0x4],0xff
000095E5  741C              jz 0x9603
000095E7  B0FF              mov al,0xff
000095E9  E89400            call 0x9680
000095EC  FE0C              dec byte [si]
000095EE  C6440202          mov byte [si+0x2],0x2
000095F2  FE4C04            dec byte [si+0x4]
000095F5  FE4C02            dec byte [si+0x2]
000095F8  F6440604          test byte [si+0x6],0x4
000095FC  7405              jz 0x9603
000095FE  C7440F0000        mov word [si+0xf],0x0
00009603  807C0801          cmp byte [si+0x8],0x1
00009607  7410              jz 0x9619
00009609  807C0802          cmp byte [si+0x8],0x2
0000960D  7714              ja 0x9623
0000960F  F74402FFFF        test word [si+0x2],0xffff
00009614  7403              jz 0x9619
00009616  E922FF            jmp 0x953b
00009619  FE4C0E            dec byte [si+0xe]
0000961C  7505              jnz 0x9623
0000961E  E84AFD            call 0x936b
00009621  EB0B              jmp short 0x962e
00009623  FE4407            inc byte [si+0x7]
00009626  8A4406            mov al,[si+0x6]
00009629  2403              and al,0x3
0000962B  204407            and [si+0x7],al
0000962E  83C611            add si,byte +0x11
00009631  4D                dec bp
00009632  7403              jz 0x9637
00009634  E956FE            jmp 0x948d
00009637  C3                ret
00009638  807C0809          cmp byte [si+0x8],0x9
0000963C  7401              jz 0x963f
0000963E  C3                ret
0000963F  F74402FFFF        test word [si+0x2],0xffff
00009644  7401              jz 0x9647
00009646  C3                ret
00009647  87F7              xchg di,si
00009649  E832FD            call 0x937e
0000964C  E81CFD            call 0x936b
0000964F  8A4509            mov al,[di+0x9]
00009652  884409            mov [si+0x9],al
00009655  C6440603          mov byte [si+0x6],0x3
00009659  8B05              mov ax,[di]
0000965B  8904              mov [si],ax
0000965D  8B4504            mov ax,[di+0x4]
00009660  894404            mov [si+0x4],ax
00009663  C6440E10          mov byte [si+0xe],0x10
00009667  C6440802          mov byte [si+0x8],0x2
0000966B  B80600            mov ax,0x6
0000966E  E8316C            call 0x2a2
00009671  56                push si
00009672  53                push bx
00009673  55                push bp
00009674  BB428E            mov bx,0x8e42
00009677  E80917            call 0xad83
0000967A  5D                pop bp
0000967B  5B                pop bx
0000967C  5E                pop si
0000967D  E9D5FD            jmp 0x9455
00009680  98                cbw
00009681  8BF8              mov di,ax
00009683  037C0B            add di,[si+0xb]
00009686  8A05              mov al,[di]
00009688  3C78              cmp al,0x78
0000968A  7421              jz 0x96ad
0000968C  807C0EFF          cmp byte [si+0xe],0xff
00009690  7408              jz 0x969a
00009692  3C40              cmp al,0x40
00009694  7404              jz 0x969a
00009696  3C72              cmp al,0x72
00009698  7504              jnz 0x969e
0000969A  897C0B            mov [si+0xb],di
0000969D  C3                ret
0000969E  3C50              cmp al,0x50
000096A0  720B              jc 0x96ad
000096A2  3C53              cmp al,0x53
000096A4  7707              ja 0x96ad
000096A6  2C50              sub al,0x50
000096A8  3A4409            cmp al,[si+0x9]
000096AB  75ED              jnz 0x969a
000096AD  58                pop ax
000096AE  F606D68DFF        test byte [0x8dd6],0xff
000096B3  740A              jz 0x96bf
000096B5  FE0ED68D          dec byte [0x8dd6]
000096B9  885C09            mov [si+0x9],bl
000096BC  E96CFE            jmp 0x952b
000096BF  80E503            and ch,0x3
000096C2  886C09            mov [si+0x9],ch
000096C5  E93BFF            jmp 0x9603
000096C8  B202              mov dl,0x2
000096CA  B90300            mov cx,0x3
000096CD  80F203            xor dl,0x3
000096D0  51                push cx
000096D1  52                push dx
000096D2  E81B00            call 0x96f0
000096D5  5A                pop dx
000096D6  59                pop cx
000096D7  7304              jnc 0x96dd
000096D9  E2F5              loop 0x96d0
000096DB  EBED              jmp short 0x96ca
000096DD  BB4D8A            mov bx,0x8a4d
000096E0  BA0800            mov dx,0x8
000096E3  33C0              xor ax,ax
000096E5  B90100            mov cx,0x1
000096E8  E8CB71            call 0x8b6
000096EB  0AC0              or al,al
000096ED  74EE              jz 0x96dd
000096EF  C3                ret
000096F0  32C0              xor al,al
000096F2  E61C              out 0x1c,al
000096F4  B004              mov al,0x4
000096F6  E61E              out 0x1e,al
000096F8  B9041A            mov cx,0x1a04
000096FB  E2FE              loop 0x96fb
000096FD  B008              mov al,0x8
000096FF  E608              out 0x8,al
00009701  D40A              aam
00009703  D40A              aam
00009705  D40A              aam
00009707  E408              in al,0x8
00009709  A801              test al,0x1
0000970B  75FA              jnz 0x9707
0000970D  A880              test al,0x80
0000970F  740A              jz 0x971b
00009711  B008              mov al,0x8
00009713  E608              out 0x8,al
00009715  D40A              aam
00009717  D40A              aam
00009719  EBEC              jmp short 0x9707
0000971B  FA                cli
0000971C  FC                cld
0000971D  B9511B            mov cx,0x1b51
00009720  E2FE              loop 0x9720
00009722  8AC2              mov al,dl
00009724  E60E              out 0xe,al
00009726  B018              mov al,0x18
00009728  E608              out 0x8,al
0000972A  D40A              aam
0000972C  D40A              aam
0000972E  D40A              aam
00009730  D40A              aam
00009732  D40A              aam
00009734  E408              in al,0x8
00009736  A801              test al,0x1
00009738  75FA              jnz 0x9734
0000973A  A880              test al,0x80
0000973C  7402              jz 0x9740
0000973E  EBDD              jmp short 0x971d
00009740  B9511B            mov cx,0x1b51
00009743  E2FE              loop 0x9743
00009745  BA0800            mov dx,0x8
00009748  BF4D8A            mov di,0x8a4d
0000974B  B7FC              mov bh,0xfc
0000974D  B302              mov bl,0x2
0000974F  B90002            mov cx,0x200
00009752  B0E4              mov al,0xe4
00009754  EE                out dx,al
00009755  D40A              aam
00009757  D40A              aam
00009759  EC                in al,dx
0000975A  A801              test al,0x1
0000975C  74FB              jz 0x9759
0000975E  84C7              test bh,al
00009760  753A              jnz 0x979c
00009762  EC                in al,dx
00009763  84C3              test bl,al
00009765  7407              jz 0x976e
00009767  E40E              in al,0xe
00009769  AA                stosb
0000976A  E2F6              loop 0x9762
0000976C  EB2E              jmp short 0x979c
0000976E  EC                in al,dx
0000976F  84C3              test bl,al
00009771  7407              jz 0x977a
00009773  E40E              in al,0xe
00009775  AA                stosb
00009776  E2EA              loop 0x9762
00009778  EB22              jmp short 0x979c
0000977A  EC                in al,dx
0000977B  84C3              test bl,al
0000977D  7407              jz 0x9786
0000977F  E40E              in al,0xe
00009781  AA                stosb
00009782  E2DE              loop 0x9762
00009784  EB16              jmp short 0x979c
00009786  EC                in al,dx
00009787  84C3              test bl,al
00009789  7407              jz 0x9792
0000978B  E40E              in al,0xe
0000978D  AA                stosb
0000978E  E2D2              loop 0x9762
00009790  EB0A              jmp short 0x979c
00009792  EC                in al,dx
00009793  84C3              test bl,al
00009795  74C7              jz 0x975e
00009797  E40E              in al,0xe
00009799  AA                stosb
0000979A  E2C6              loop 0x9762
0000979C  EC                in al,dx
0000979D  FB                sti
0000979E  24F8              and al,0xf8
000097A0  7402              jz 0x97a4
000097A2  F9                stc
000097A3  C3                ret
000097A4  BEE395            mov si,0x95e3
000097A7  E81C00            call 0x97c6
000097AA  7301              jnc 0x97ad
000097AC  C3                ret
000097AD  BEEA95            mov si,0x95ea
000097B0  E81300            call 0x97c6
000097B3  7301              jnc 0x97b6
000097B5  C3                ret
000097B6  BEF395            mov si,0x95f3
000097B9  E80A00            call 0x97c6
000097BC  7301              jnc 0x97bf
000097BE  C3                ret
000097BF  BEF995            mov si,0x95f9
000097C2  E80100            call 0x97c6
000097C5  C3                ret
000097C6  BB4D8A            mov bx,0x8a4d
000097C9  8BFB              mov di,bx
000097CB  8B0C              mov cx,[si]
000097CD  56                push si
000097CE  83C602            add si,byte +0x2
000097D1  F3A6              repe cmpsb
000097D3  5E                pop si
000097D4  7409              jz 0x97df
000097D6  43                inc bx
000097D7  81FB4D8E          cmp bx,0x8e4d
000097DB  7404              jz 0x97e1
000097DD  EBEA              jmp short 0x97c9
000097DF  F8                clc
000097E0  C3                ret
000097E1  F9                stc
000097E2  C3                ret
000097E3  050087            add ax,0x8700
000097E6  004300            add [bp+di+0x0],al
000097E9  0D0700            or ax,0x7
000097EC  55                push bp
000097ED  F755F6            not word [di-0xa]
000097F0  55                push bp
000097F1  F5                cmc
000097F2  55                push bp
000097F3  0400              add al,0x0
000097F5  2DEEFF            sub ax,0xffee
000097F8  4E                dec si
000097F9  0300              add ax,[bx+si]
000097FB  BC57FF            mov sp,0xff57
000097FE  FE06F77B          inc byte [0x7bf7]
00009802  A1048E            mov ax,[0x8e04]
00009805  051000            add ax,0x10
00009808  A3D17B            mov [0x7bd1],ax
0000980B  C706D37B3689      mov word [0x7bd3],0x8936
00009811  BE2B8C            mov si,0x8c2b
00009814  C706D78D0800      mov word [0x8dd7],0x8
0000981A  F604FF            test byte [si],0xff
0000981D  7424              jz 0x9843
0000981F  FE0C              dec byte [si]
00009821  740A              jz 0x982d
00009823  803C05            cmp byte [si],0x5
00009826  7205              jc 0x982d
00009828  803C1E            cmp byte [si],0x1e
0000982B  7516              jnz 0x9843
0000982D  8B5405            mov dx,[si+0x5]
00009830  56                push si
00009831  E880EC            call 0x84b4
00009834  5E                pop si
00009835  56                push si
00009836  8B4401            mov ax,[si+0x1]
00009839  8B5C03            mov bx,[si+0x3]
0000983C  8D7407            lea si,[si+0x7]
0000983F  E8B5EC            call 0x84f7
00009842  5E                pop si
00009843  83C60A            add si,byte +0xa
00009846  FF0ED78D          dec word [0x8dd7]
0000984A  75CE              jnz 0x981a
0000984C  C706D17B4001      mov word [0x7bd1],0x140
00009852  C706D37B3089      mov word [0x7bd3],0x8930
00009858  FE0EF77B          dec byte [0x7bf7]
0000985C  C3                ret
0000985D  BB3B8B            mov bx,0x8b3b
00009860  EB03              jmp short 0x9865
00009862  BB4D8A            mov bx,0x8a4d
00009865  C706D78D0E00      mov word [0x8dd7],0xe
0000986B  803FFF            cmp byte [bx],0xff
0000986E  745D              jz 0x98cd
00009870  A0D48D            mov al,[0x8dd4]
00009873  22470A            and al,[bx+0xa]
00009876  7455              jz 0x98cd
00009878  32F6              xor dh,dh
0000987A  8A5704            mov dl,[bx+0x4]
0000987D  8BFA              mov di,dx
0000987F  D1E7              shl di,1
00009881  D1E7              shl di,1
00009883  D1E7              shl di,1
00009885  8A4705            mov al,[bx+0x5]
00009888  F626018E          mul byte [0x8e01]
0000988C  D1E0              shl ax,1
0000988E  D1E0              shl ax,1
00009890  D1E0              shl ax,1
00009892  D1E0              shl ax,1
00009894  D1E0              shl ax,1
00009896  03F8              add di,ax
00009898  8A5708            mov dl,[bx+0x8]
0000989B  8BF2              mov si,dx
0000989D  D1E6              shl si,1
0000989F  8BB4303A          mov si,[si+0x3a30]
000098A3  8A5707            mov dl,[bx+0x7]
000098A6  D1E2              shl dx,1
000098A8  D1E2              shl dx,1
000098AA  D1E2              shl dx,1
000098AC  D1E2              shl dx,1
000098AE  D1E2              shl dx,1
000098B0  D1E2              shl dx,1
000098B2  8BC2              mov ax,dx
000098B4  D1E2              shl dx,1
000098B6  03F0              add si,ax
000098B8  03F2              add si,dx
000098BA  03770F            add si,[bx+0xf]
000098BD  53                push bx
000098BE  807F0809          cmp byte [bx+0x8],0x9
000098C2  BB1200            mov bx,0x12
000098C5  7402              jz 0x98c9
000098C7  33DB              xor bx,bx
000098C9  E86E05            call 0x9e3a
000098CC  5B                pop bx
000098CD  83C311            add bx,byte +0x11
000098D0  FF0ED78D          dec word [0x8dd7]
000098D4  7595              jnz 0x986b
000098D6  C3                ret
000098D7  E8F3ED            call 0x86cd
000098DA  A1057C            mov ax,[0x7c05]
000098DD  3C53              cmp al,0x53
000098DF  7404              jz 0x98e5
000098E1  3C73              cmp al,0x73
000098E3  7505              jnz 0x98ea
000098E5  8036B88D01        xor byte [0x8db8],0x1
000098EA  3C11              cmp al,0x11
000098EC  7503              jnz 0x98f1
000098EE  E902F8            jmp 0x90f3
000098F1  803EDD8D16        cmp byte [0x8ddd],0x16
000098F6  7642              jna 0x993a
000098F8  80EC3B            sub ah,0x3b
000098FB  7901              jns 0x98fe
000098FD  C3                ret
000098FE  3A26DA8D          cmp ah,[0x8dda]
00009902  7201              jc 0x9905
00009904  C3                ret
00009905  C606798901        mov byte [0x8979],0x1
0000990A  C70659890000      mov word [0x8959],0x0
00009910  C606AE8900        mov byte [0x89ae],0x0
00009915  C606D98D00        mov byte [0x8dd9],0x0
0000991A  C606DD8D01        mov byte [0x8ddd],0x1
0000991F  0AE4              or ah,ah
00009921  7504              jnz 0x9927
00009923  FE0E7989          dec byte [0x8979]
00009927  80FC02            cmp ah,0x2
0000992A  7605              jna 0x9931
0000992C  C606AE8902        mov byte [0x89ae],0x2
00009931  7204              jc 0x9937
00009933  FE06D98D          inc byte [0x8dd9]
00009937  E9BCF7            jmp 0x90f6
0000993A  3C70              cmp al,0x70
0000993C  7405              jz 0x9943
0000993E  3C50              cmp al,0x50
00009940  7401              jz 0x9943
00009942  C3                ret
00009943  BA0307            mov dx,0x703
00009946  E86BEB            call 0x84b4
00009949  A1C18D            mov ax,[0x8dc1]
0000994C  8B1EC38D          mov bx,[0x8dc3]
00009950  BE858C            mov si,0x8c85
00009953  E8A1EB            call 0x84f7
00009956  E874ED            call 0x86cd
00009959  803E057C20        cmp byte [0x7c05],0x20
0000995E  75F6              jnz 0x9956
00009960  A1C18D            mov ax,[0x8dc1]
00009963  8B1EC38D          mov bx,[0x8dc3]
00009967  BE998C            mov si,0x8c99
0000996A  E88AEB            call 0x84f7
0000996D  C3                ret
0000996E  F606D58DFF        test byte [0x8dd5],0xff
00009973  7404              jz 0x9979
00009975  FE0ED58D          dec byte [0x8dd5]
00009979  D006D48D          rol byte [0x8dd4],1
0000997D  FF06CF8D          inc word [0x8dcf]
00009981  7506              jnz 0x9989
00009983  812ECF8D0001      sub word [0x8dcf],0x100
00009989  803EDD8D16        cmp byte [0x8ddd],0x16
0000998E  773F              ja 0x99cf
00009990  B00F              mov al,0xf
00009992  813ECF8D4501      cmp word [0x8dcf],0x145
00009998  770C              ja 0x99a6
0000999A  B007              mov al,0x7
0000999C  813ECF8D9600      cmp word [0x8dcf],0x96
000099A2  7202              jc 0x99a6
000099A4  B003              mov al,0x3
000099A6  8406CF8D          test [0x8dcf],al
000099AA  7503              jnz 0x99af
000099AC  E846FA            call 0x93f5
000099AF  B84501            mov ax,0x145
000099B2  803EDE8D00        cmp byte [0x8dde],0x0
000099B7  7703              ja 0x99bc
000099B9  B85802            mov ax,0x258
000099BC  3906CF8D          cmp [0x8dcf],ax
000099C0  750D              jnz 0x99cf
000099C2  A1C18D            mov ax,[0x8dc1]
000099C5  8B1EC38D          mov bx,[0x8dc3]
000099C9  BEDF8C            mov si,0x8cdf
000099CC  E828EB            call 0x84f7
000099CF  C3                ret
000099D0  8BFB              mov di,bx
000099D2  81E7F8FF          and di,0xfff8
000099D6  D1EF              shr di,1
000099D8  8AC8              mov cl,al
000099DA  80E103            and cl,0x3
000099DD  32ED              xor ch,ch
000099DF  03F9              add di,cx
000099E1  24FC              and al,0xfc
000099E3  B450              mov ah,0x50
000099E5  F6E4              mul ah
000099E7  03F8              add di,ax
000099E9  8E063289          mov es,[0x8932]
000099ED  8E1E3489          mov ds,[0x8934]
000099F1  C3                ret
000099F2  E8DBFF            call 0x99d0
000099F5  8BCB              mov cx,bx
000099F7  81E10700          and cx,0x7
000099FB  740C              jz 0x9a09
000099FD  B0FF              mov al,0xff
000099FF  D2E8              shr al,cl
00009A01  24CC              and al,0xcc
00009A03  8805              mov [di],al
00009A05  AA                stosb
00009A06  83C703            add di,byte +0x3
00009A09  8BCA              mov cx,dx
00009A0B  83C307            add bx,byte +0x7
00009A0E  81E3F8FF          and bx,0xfff8
00009A12  2BCB              sub cx,bx
00009A14  41                inc cx
00009A15  D1E9              shr cx,1
00009A17  D1E9              shr cx,1
00009A19  D1E9              shr cx,1
00009A1B  B0CC              mov al,0xcc
00009A1D  8805              mov [di],al
00009A1F  AA                stosb
00009A20  83C703            add di,byte +0x3
00009A23  E2F8              loop 0x9a1d
00009A25  8BCA              mov cx,dx
00009A27  81E10700          and cx,0x7
00009A2B  740C              jz 0x9a39
00009A2D  41                inc cx
00009A2E  B0FF              mov al,0xff
00009A30  D2E8              shr al,cl
00009A32  F6D0              not al
00009A34  24CC              and al,0xcc
00009A36  8805              mov [di],al
00009A38  AA                stosb
00009A39  8CC8              mov ax,cs
00009A3B  8ED8              mov ds,ax
00009A3D  8EC0              mov es,ax
00009A3F  C3                ret
00009A40  50                push ax
00009A41  E88CFF            call 0x99d0
00009A44  B8CC33            mov ax,0x33cc
00009A47  B5C0              mov ch,0xc0
00009A49  8ACB              mov cl,bl
00009A4B  80E107            and cl,0x7
00009A4E  D2CD              ror ch,cl
00009A50  22C5              and al,ch
00009A52  22E5              and ah,ch
00009A54  5B                pop bx
00009A55  2AD3              sub dl,bl
00009A57  32F6              xor dh,dh
00009A59  42                inc dx
00009A5A  8BCA              mov cx,dx
00009A5C  0805              or [di],al
00009A5E  260805            or [es:di],al
00009A61  47                inc di
00009A62  86C4              xchg ah,al
00009A64  F7C70300          test di,0x3
00009A68  7404              jz 0x9a6e
00009A6A  E2F0              loop 0x9a5c
00009A6C  EB06              jmp short 0x9a74
00009A6E  81C73C01          add di,0x13c
00009A72  E2E8              loop 0x9a5c
00009A74  8CC8              mov ax,cs
00009A76  8ED8              mov ds,ax
00009A78  8EC0              mov es,ax
00009A7A  C3                ret
00009A7B  F7C30300          test bx,0x3
00009A7F  7407              jz 0x9a88
00009A81  83C304            add bx,byte +0x4
00009A84  81E3FCFF          and bx,0xfffc
00009A88  8BCB              mov cx,bx
00009A8A  83C302            add bx,byte +0x2
00009A8D  50                push ax
00009A8E  24FE              and al,0xfe
00009A90  8BD0              mov dx,ax
00009A92  D1E2              shl dx,1
00009A94  B050              mov al,0x50
00009A96  F6E1              mul cl
00009A98  03D0              add dx,ax
00009A9A  83C218            add dx,byte +0x18
00009A9D  58                pop ax
00009A9E  C3                ret
00009A9F  8B36FC8D          mov si,[0x8dfc]
00009AA3  A1048E            mov ax,[0x8e04]
00009AA6  051000            add ax,0x10
00009AA9  A3D17B            mov [0x7bd1],ax
00009AAC  C706D37B3689      mov word [0x7bd3],0x8936
00009AB2  E842EA            call 0x84f7
00009AB5  C706D17B4001      mov word [0x7bd1],0x140
00009ABB  C706D37B3089      mov word [0x7bd3],0x8930
00009AC1  56                push si
00009AC2  E8D0EB            call 0x8695
00009AC5  8B36C58D          mov si,[0x8dc5]
00009AC9  803CFF            cmp byte [si],0xff
00009ACC  740C              jz 0x9ada
00009ACE  AD                lodsw
00009ACF  8BD8              mov bx,ax
00009AD1  AD                lodsw
00009AD2  8BD0              mov dx,ax
00009AD4  AC                lodsb
00009AD5  E81AFF            call 0x99f2
00009AD8  EBEF              jmp short 0x9ac9
00009ADA  46                inc si
00009ADB  803CFF            cmp byte [si],0xff
00009ADE  7410              jz 0x9af0
00009AE0  AC                lodsb
00009AE1  8AC8              mov cl,al
00009AE3  AC                lodsb
00009AE4  8AD0              mov dl,al
00009AE6  AD                lodsw
00009AE7  8BD8              mov bx,ax
00009AE9  8AC1              mov al,cl
00009AEB  E852FF            call 0x9a40
00009AEE  EBEB              jmp short 0x9adb
00009AF0  BA0603            mov dx,0x306
00009AF3  E8BEE9            call 0x84b4
00009AF6  A1B98D            mov ax,[0x8db9]
00009AF9  8ADC              mov bl,ah
00009AFB  0AE0              or ah,al
00009AFD  7424              jz 0x9b23
00009AFF  32E4              xor ah,ah
00009B01  32FF              xor bh,bh
00009B03  BE7B8C            mov si,0x8c7b
00009B06  E8EEE9            call 0x84f7
00009B09  BEB58C            mov si,0x8cb5
00009B0C  803E7489FF        cmp byte [0x8974],0xff
00009B11  7403              jz 0x9b16
00009B13  BEC48C            mov si,0x8cc4
00009B16  E8DEE9            call 0x84f7
00009B19  E85FFF            call 0x9a7b
00009B1C  89167D89          mov [0x897d],dx
00009B20  E8D4E9            call 0x84f7
00009B23  BA0604            mov dx,0x406
00009B26  E88BE9            call 0x84b4
00009B29  A1BB8D            mov ax,[0x8dbb]
00009B2C  8ADC              mov bl,ah
00009B2E  0AE0              or ah,al
00009B30  7424              jz 0x9b56
00009B32  32E4              xor ah,ah
00009B34  32FF              xor bh,bh
00009B36  BE7B8C            mov si,0x8c7b
00009B39  E8BBE9            call 0x84f7
00009B3C  BEB58C            mov si,0x8cb5
00009B3F  803EA989FF        cmp byte [0x89a9],0xff
00009B44  7403              jz 0x9b49
00009B46  BEC48C            mov si,0x8cc4
00009B49  E8ABE9            call 0x84f7
00009B4C  E82CFF            call 0x9a7b
00009B4F  8916B289          mov [0x89b2],dx
00009B53  E8A1E9            call 0x84f7
00009B56  FE0E5789          dec byte [0x8957]
00009B5A  FF0E5189          dec word [0x8951]
00009B5E  FE0E8C89          dec byte [0x898c]
00009B62  FF0E8689          dec word [0x8986]
00009B66  FE067689          inc byte [0x8976]
00009B6A  F606D98DFF        test byte [0x8dd9],0xff
00009B6F  7404              jz 0x9b75
00009B71  FE06AB89          inc byte [0x89ab]
00009B75  E89213            call 0xaf0a
00009B78  BA0306            mov dx,0x603
00009B7B  E836E9            call 0x84b4
00009B7E  A1BD8D            mov ax,[0x8dbd]
00009B81  8ADC              mov bl,ah
00009B83  32E4              xor ah,ah
00009B85  32FF              xor bh,bh
00009B87  5E                pop si
00009B88  E86CE9            call 0x84f7
00009B8B  803EDD8D16        cmp byte [0x8ddd],0x16
00009B90  7732              ja 0x9bc4
00009B92  050200            add ax,0x2
00009B95  53                push bx
00009B96  8A1EDD8D          mov bl,[0x8ddd]
00009B9A  32FF              xor bh,bh
00009B9C  8A977960          mov dl,[bx+0x6079]
00009BA0  D0EA              shr dl,1
00009BA2  D0EA              shr dl,1
00009BA4  FEC2              inc dl
00009BA6  80CA30            or dl,0x30
00009BA9  8816AE8C          mov [0x8cae],dl
00009BAD  8A977960          mov dl,[bx+0x6079]
00009BB1  80E203            and dl,0x3
00009BB4  FEC2              inc dl
00009BB6  80CA40            or dl,0x40
00009BB9  8816AF8C          mov [0x8caf],dl
00009BBD  5B                pop bx
00009BBE  BEAD8C            mov si,0x8cad
00009BC1  E833E9            call 0x84f7
00009BC4  E82F00            call 0x9bf6
00009BC7  803EDD8D16        cmp byte [0x8ddd],0x16
00009BCC  7701              ja 0x9bcf
00009BCE  C3                ret
00009BCF  B86600            mov ax,0x66
00009BD2  BB5600            mov bx,0x56
00009BD5  8A0EDA8D          mov cl,[0x8dda]
00009BD9  32ED              xor ch,ch
00009BDB  80F904            cmp cl,0x4
00009BDE  740B              jz 0x9beb
00009BE0  BB5C00            mov bx,0x5c
00009BE3  80F903            cmp cl,0x3
00009BE6  7403              jz 0x9beb
00009BE8  BB6800            mov bx,0x68
00009BEB  BE077C            mov si,0x7c07
00009BEE  51                push cx
00009BEF  E805E9            call 0x84f7
00009BF2  59                pop cx
00009BF3  E2F9              loop 0x9bee
00009BF5  C3                ret
00009BF6  A1BF8D            mov ax,[0x8dbf]
00009BF9  8ADC              mov bl,ah
00009BFB  32E4              xor ah,ah
00009BFD  32FF              xor bh,bh
00009BFF  BEB889            mov si,0x89b8
00009C02  E8F2E8            call 0x84f7
00009C05  83C304            add bx,byte +0x4
00009C08  E9ECE8            jmp 0x84f7
00009C0B  F604FF            test byte [si],0xff
00009C0E  7901              jns 0x9c11
00009C10  C3                ret
00009C11  8B4403            mov ax,[si+0x3]
00009C14  BB438A            mov bx,0x8a43
00009C17  8B16BF8D          mov dx,[0x8dbf]
00009C1B  81C20010          add dx,0x1000
00009C1F  BFD389            mov di,0x89d3
00009C22  B90500            mov cx,0x5
00009C25  3B07              cmp ax,[bx]
00009C27  770C              ja 0x9c35
00009C29  83C302            add bx,byte +0x2
00009C2C  83C717            add di,byte +0x17
00009C2F  80C60C            add dh,0xc
00009C32  E2F1              loop 0x9c25
00009C34  C3                ret
00009C35  8916C78D          mov [0x8dc7],dx
00009C39  56                push si
00009C3A  57                push di
00009C3B  49                dec cx
00009C3C  BD4B8A            mov bp,0x8a4b
00009C3F  7422              jz 0x9c63
00009C41  BF2F8A            mov di,0x8a2f
00009C44  BE188A            mov si,0x8a18
00009C47  51                push cx
00009C48  56                push si
00009C49  57                push di
00009C4A  B91300            mov cx,0x13
00009C4D  F3A4              rep movsb
00009C4F  5F                pop di
00009C50  5E                pop si
00009C51  59                pop cx
00009C52  83EF17            sub di,byte +0x17
00009C55  83EE17            sub si,byte +0x17
00009C58  8B56FE            mov dx,[bp-0x2]
00009C5B  895600            mov [bp+0x0],dx
00009C5E  83ED02            sub bp,byte +0x2
00009C61  E2E4              loop 0x9c47
00009C63  894600            mov [bp+0x0],ax
00009C66  5F                pop di
00009C67  5E                pop si
00009C68  57                push di
00009C69  B91300            mov cx,0x13
00009C6C  B020              mov al,0x20
00009C6E  F3AA              rep stosb
00009C70  5F                pop di
00009C71  4F                dec di
00009C72  B90500            mov cx,0x5
00009C75  56                push si
00009C76  8D7404            lea si,[si+0x4]
00009C79  47                inc di
00009C7A  46                inc si
00009C7B  803C30            cmp byte [si],0x30
00009C7E  E1F9              loope 0x9c79
00009C80  41                inc cx
00009C81  F3A4              rep movsb
00009C83  47                inc di
00009C84  893EC98D          mov [0x8dc9],di
00009C88  C706CB8D0000      mov word [0x8dcb],0x0
00009C8E  E865FF            call 0x9bf6
00009C91  5E                pop si
00009C92  BA0406            mov dx,0x604
00009C95  81FE4E89          cmp si,0x894e
00009C99  BEF68C            mov si,0x8cf6
00009C9C  7403              jz 0x9ca1
00009C9E  BE0A8D            mov si,0x8d0a
00009CA1  81EA0101          sub dx,0x101
00009CA5  81E20707          and dx,0x707
00009CA9  52                push dx
00009CAA  56                push si
00009CAB  E806E8            call 0x84b4
00009CAE  A1C18D            mov ax,[0x8dc1]
00009CB1  8B1EC38D          mov bx,[0x8dc3]
00009CB5  E83FE8            call 0x84f7
00009CB8  E812EA            call 0x86cd
00009CBB  A1057C            mov ax,[0x7c05]
00009CBE  0AE4              or ah,ah
00009CC0  7428              jz 0x9cea
00009CC2  3C20              cmp al,0x20
00009CC4  7224              jc 0x9cea
00009CC6  3C7A              cmp al,0x7a
00009CC8  7720              ja 0x9cea
00009CCA  3C61              cmp al,0x61
00009CCC  7202              jc 0x9cd0
00009CCE  24DF              and al,0xdf
00009CD0  3C5A              cmp al,0x5a
00009CD2  7716              ja 0x9cea
00009CD4  8B1ECB8D          mov bx,[0x8dcb]
00009CD8  8B3EC98D          mov di,[0x8dc9]
00009CDC  8801              mov [bx+di],al
00009CDE  43                inc bx
00009CDF  83FB0D            cmp bx,byte +0xd
00009CE2  7439              jz 0x9d1d
00009CE4  891ECB8D          mov [0x8dcb],bx
00009CE8  EB33              jmp short 0x9d1d
00009CEA  3C08              cmp al,0x8
00009CEC  751B              jnz 0x9d09
00009CEE  FF0ECB8D          dec word [0x8dcb]
00009CF2  7904              jns 0x9cf8
00009CF4  FF06CB8D          inc word [0x8dcb]
00009CF8  8B1ECB8D          mov bx,[0x8dcb]
00009CFC  8B3EC98D          mov di,[0x8dc9]
00009D00  C60120            mov byte [bx+di],0x20
00009D03  C6450C20          mov byte [di+0xc],0x20
00009D07  EB14              jmp short 0x9d1d
00009D09  3C0D              cmp al,0xd
00009D0B  7506              jnz 0x9d13
00009D0D  83C404            add sp,byte +0x4
00009D10  EB2F              jmp short 0x9d41
00009D12  90                nop
00009D13  3D0053            cmp ax,0x5300
00009D16  74D6              jz 0x9cee
00009D18  3D004B            cmp ax,0x4b00
00009D1B  74D1              jz 0x9cee
00009D1D  A1C78D            mov ax,[0x8dc7]
00009D20  8ADC              mov bl,ah
00009D22  32E4              xor ah,ah
00009D24  32FF              xor bh,bh
00009D26  8B36C98D          mov si,[0x8dc9]
00009D2A  83EE06            sub si,byte +0x6
00009D2D  FF7413            push word [si+0x13]
00009D30  C6441300          mov byte [si+0x13],0x0
00009D34  56                push si
00009D35  E8BFE7            call 0x84f7
00009D38  5E                pop si
00009D39  8F4413            pop word [si+0x13]
00009D3C  5E                pop si
00009D3D  5A                pop dx
00009D3E  E960FF            jmp 0x9ca1
00009D41  33C0              xor ax,ax
00009D43  B90100            mov cx,0x1
00009D46  BA0700            mov dx,0x7
00009D49  BBD089            mov bx,0x89d0
00009D4C  E9506C            jmp 0x99f
00009D4F  A0DB8D            mov al,[0x8ddb]
00009D52  B414              mov ah,0x14
00009D54  F6E4              mul ah
00009D56  8BF0              mov si,ax
00009D58  81C62A61          add si,0x612a
00009D5C  AC                lodsb
00009D5D  32E4              xor ah,ah
00009D5F  A3B28D            mov [0x8db2],ax
00009D62  AC                lodsb
00009D63  A3B08D            mov [0x8db0],ax
00009D66  AD                lodsw
00009D67  A3AC8D            mov [0x8dac],ax
00009D6A  AD                lodsw
00009D6B  A3AE8D            mov [0x8dae],ax
00009D6E  AD                lodsw
00009D6F  A3B98D            mov [0x8db9],ax
00009D72  0416              add al,0x16
00009D74  A24F89            mov [0x894f],al
00009D77  88265089          mov [0x8950],ah
00009D7B  AD                lodsw
00009D7C  A3BB8D            mov [0x8dbb],ax
00009D7F  0416              add al,0x16
00009D81  A28489            mov [0x8984],al
00009D84  88268589          mov [0x8985],ah
00009D88  AD                lodsw
00009D89  A3BD8D            mov [0x8dbd],ax
00009D8C  AD                lodsw
00009D8D  A3BF8D            mov [0x8dbf],ax
00009D90  AD                lodsw
00009D91  A38E89            mov [0x898e],ax
00009D94  AD                lodsw
00009D95  8ADC              mov bl,ah
00009D97  32FF              xor bh,bh
00009D99  32E4              xor ah,ah
00009D9B  A3C18D            mov [0x8dc1],ax
00009D9E  891EC38D          mov [0x8dc3],bx
00009DA2  AD                lodsw
00009DA3  A3C58D            mov [0x8dc5],ax
00009DA6  A1B28D            mov ax,[0x8db2]
00009DA9  D1E0              shl ax,1
00009DAB  8BD0              mov dx,ax
00009DAD  2D4001            sub ax,0x140
00009DB0  F7D8              neg ax
00009DB2  A3B48D            mov [0x8db4],ax
00009DB5  32E4              xor ah,ah
00009DB7  A0018E            mov al,[0x8e01]
00009DBA  D1E0              shl ax,1
00009DBC  D1E0              shl ax,1
00009DBE  D1E0              shl ax,1
00009DC0  D1E0              shl ax,1
00009DC2  2BC2              sub ax,dx
00009DC4  A3B68D            mov [0x8db6],ax
00009DC7  32E4              xor ah,ah
00009DC9  A0018E            mov al,[0x8e01]
00009DCC  D1E0              shl ax,1
00009DCE  8B1EB28D          mov bx,[0x8db2]
00009DD2  D1EB              shr bx,1
00009DD4  D1EB              shr bx,1
00009DD6  2BC3              sub ax,bx
00009DD8  A2AA8D            mov [0x8daa],al
00009DDB  A0008E            mov al,[0x8e00]
00009DDE  D1E0              shl ax,1
00009DE0  8B1EB08D          mov bx,[0x8db0]
00009DE4  D1EB              shr bx,1
00009DE6  2BC3              sub ax,bx
00009DE8  A2AB8D            mov [0x8dab],al
00009DEB  C3                ret
00009DEC  BBD089            mov bx,0x89d0
00009DEF  33C0              xor ax,ax
00009DF1  B90100            mov cx,0x1
00009DF4  BA0700            mov dx,0x7
00009DF7  E9BC6A            jmp 0x8b6
00009DFA  BE4E89            mov si,0x894e
00009DFD  33DB              xor bx,bx
00009DFF  F6064E89FF        test byte [0x894e],0xff
00009E04  7803              js 0x9e09
00009E06  E80E00            call 0x9e17
00009E09  BE8389            mov si,0x8983
00009E0C  F6068389FF        test byte [0x8983],0xff
00009E11  7901              jns 0x9e14
00009E13  C3                ret
00009E14  BB0600            mov bx,0x6
00009E17  803C02            cmp byte [si],0x2
00009E1A  7203              jc 0x9e1f
00009E1C  BB0C00            mov bx,0xc
00009E1F  803C01            cmp byte [si],0x1
00009E22  7502              jnz 0x9e26
00009E24  FE04              inc byte [si]
00009E26  8B7C11            mov di,[si+0x11]
00009E29  8B440F            mov ax,[si+0xf]
00009E2C  894411            mov [si+0x11],ax
00009E2F  8B5415            mov dx,[si+0x15]
00009E32  8B4413            mov ax,[si+0x13]
00009E35  894415            mov [si+0x15],ax
00009E38  8BF2              mov si,dx
00009E3A  8B16048E          mov dx,[0x8e04]
00009E3E  B90200            mov cx,0x2
00009E41  03D1              add dx,cx
00009E43  8E873689          mov es,[bx-0x76ca]
00009E47  8BEF              mov bp,di
00009E49  AD                lodsw
00009E4A  263105            xor [es:di],ax
00009E4D  03F9              add di,cx
00009E4F  AD                lodsw
00009E50  263105            xor [es:di],ax
00009E53  03F9              add di,cx
00009E55  AD                lodsw
00009E56  263105            xor [es:di],ax
00009E59  03F9              add di,cx
00009E5B  AD                lodsw
00009E5C  263105            xor [es:di],ax
00009E5F  03F9              add di,cx
00009E61  AD                lodsw
00009E62  263105            xor [es:di],ax
00009E65  03F9              add di,cx
00009E67  AD                lodsw
00009E68  263105            xor [es:di],ax
00009E6B  03F9              add di,cx
00009E6D  AD                lodsw
00009E6E  263105            xor [es:di],ax
00009E71  03F9              add di,cx
00009E73  AD                lodsw
00009E74  263105            xor [es:di],ax
00009E77  03FA              add di,dx
00009E79  AD                lodsw
00009E7A  263105            xor [es:di],ax
00009E7D  03F9              add di,cx
00009E7F  AD                lodsw
00009E80  263105            xor [es:di],ax
00009E83  03F9              add di,cx
00009E85  AD                lodsw
00009E86  263105            xor [es:di],ax
00009E89  03F9              add di,cx
00009E8B  AD                lodsw
00009E8C  263105            xor [es:di],ax
00009E8F  03F9              add di,cx
00009E91  AD                lodsw
00009E92  263105            xor [es:di],ax
00009E95  03F9              add di,cx
00009E97  AD                lodsw
00009E98  263105            xor [es:di],ax
00009E9B  03F9              add di,cx
00009E9D  AD                lodsw
00009E9E  263105            xor [es:di],ax
00009EA1  03F9              add di,cx
00009EA3  AD                lodsw
00009EA4  263105            xor [es:di],ax
00009EA7  03FA              add di,dx
00009EA9  AD                lodsw
00009EAA  263105            xor [es:di],ax
00009EAD  03F9              add di,cx
00009EAF  AD                lodsw
00009EB0  263105            xor [es:di],ax
00009EB3  03F9              add di,cx
00009EB5  AD                lodsw
00009EB6  263105            xor [es:di],ax
00009EB9  03F9              add di,cx
00009EBB  AD                lodsw
00009EBC  263105            xor [es:di],ax
00009EBF  03F9              add di,cx
00009EC1  AD                lodsw
00009EC2  263105            xor [es:di],ax
00009EC5  03F9              add di,cx
00009EC7  AD                lodsw
00009EC8  263105            xor [es:di],ax
00009ECB  03F9              add di,cx
00009ECD  AD                lodsw
00009ECE  263105            xor [es:di],ax
00009ED1  03F9              add di,cx
00009ED3  AD                lodsw
00009ED4  263105            xor [es:di],ax
00009ED7  03FA              add di,dx
00009ED9  AD                lodsw
00009EDA  263105            xor [es:di],ax
00009EDD  03F9              add di,cx
00009EDF  AD                lodsw
00009EE0  263105            xor [es:di],ax
00009EE3  03F9              add di,cx
00009EE5  AD                lodsw
00009EE6  263105            xor [es:di],ax
00009EE9  03F9              add di,cx
00009EEB  AD                lodsw
00009EEC  263105            xor [es:di],ax
00009EEF  03F9              add di,cx
00009EF1  AD                lodsw
00009EF2  263105            xor [es:di],ax
00009EF5  03F9              add di,cx
00009EF7  AD                lodsw
00009EF8  263105            xor [es:di],ax
00009EFB  03F9              add di,cx
00009EFD  AD                lodsw
00009EFE  263105            xor [es:di],ax
00009F01  03F9              add di,cx
00009F03  AD                lodsw
00009F04  263105            xor [es:di],ax
00009F07  8BFD              mov di,bp
00009F09  8E873889          mov es,[bx-0x76c8]
00009F0D  AD                lodsw
00009F0E  263105            xor [es:di],ax
00009F11  03F9              add di,cx
00009F13  AD                lodsw
00009F14  263105            xor [es:di],ax
00009F17  03F9              add di,cx
00009F19  AD                lodsw
00009F1A  263105            xor [es:di],ax
00009F1D  03F9              add di,cx
00009F1F  AD                lodsw
00009F20  263105            xor [es:di],ax
00009F23  03F9              add di,cx
00009F25  AD                lodsw
00009F26  263105            xor [es:di],ax
00009F29  03F9              add di,cx
00009F2B  AD                lodsw
00009F2C  263105            xor [es:di],ax
00009F2F  03F9              add di,cx
00009F31  AD                lodsw
00009F32  263105            xor [es:di],ax
00009F35  03F9              add di,cx
00009F37  AD                lodsw
00009F38  263105            xor [es:di],ax
00009F3B  03FA              add di,dx
00009F3D  AD                lodsw
00009F3E  263105            xor [es:di],ax
00009F41  03F9              add di,cx
00009F43  AD                lodsw
00009F44  263105            xor [es:di],ax
00009F47  03F9              add di,cx
00009F49  AD                lodsw
00009F4A  263105            xor [es:di],ax
00009F4D  03F9              add di,cx
00009F4F  AD                lodsw
00009F50  263105            xor [es:di],ax
00009F53  03F9              add di,cx
00009F55  AD                lodsw
00009F56  263105            xor [es:di],ax
00009F59  03F9              add di,cx
00009F5B  AD                lodsw
00009F5C  263105            xor [es:di],ax
00009F5F  03F9              add di,cx
00009F61  AD                lodsw
00009F62  263105            xor [es:di],ax
00009F65  03F9              add di,cx
00009F67  AD                lodsw
00009F68  263105            xor [es:di],ax
00009F6B  03FA              add di,dx
00009F6D  AD                lodsw
00009F6E  263105            xor [es:di],ax
00009F71  03F9              add di,cx
00009F73  AD                lodsw
00009F74  263105            xor [es:di],ax
00009F77  03F9              add di,cx
00009F79  AD                lodsw
00009F7A  263105            xor [es:di],ax
00009F7D  03F9              add di,cx
00009F7F  AD                lodsw
00009F80  263105            xor [es:di],ax
00009F83  03F9              add di,cx
00009F85  AD                lodsw
00009F86  263105            xor [es:di],ax
00009F89  03F9              add di,cx
00009F8B  AD                lodsw
00009F8C  263105            xor [es:di],ax
00009F8F  03F9              add di,cx
00009F91  AD                lodsw
00009F92  263105            xor [es:di],ax
00009F95  03F9              add di,cx
00009F97  AD                lodsw
00009F98  263105            xor [es:di],ax
00009F9B  03FA              add di,dx
00009F9D  AD                lodsw
00009F9E  263105            xor [es:di],ax
00009FA1  03F9              add di,cx
00009FA3  AD                lodsw
00009FA4  263105            xor [es:di],ax
00009FA7  03F9              add di,cx
00009FA9  AD                lodsw
00009FAA  263105            xor [es:di],ax
00009FAD  03F9              add di,cx
00009FAF  AD                lodsw
00009FB0  263105            xor [es:di],ax
00009FB3  03F9              add di,cx
00009FB5  AD                lodsw
00009FB6  263105            xor [es:di],ax
00009FB9  03F9              add di,cx
00009FBB  AD                lodsw
00009FBC  263105            xor [es:di],ax
00009FBF  03F9              add di,cx
00009FC1  AD                lodsw
00009FC2  263105            xor [es:di],ax
00009FC5  03F9              add di,cx
00009FC7  AD                lodsw
00009FC8  263105            xor [es:di],ax
00009FCB  8BFD              mov di,bp
00009FCD  8E873A89          mov es,[bx-0x76c6]
00009FD1  AD                lodsw
00009FD2  263105            xor [es:di],ax
00009FD5  03F9              add di,cx
00009FD7  AD                lodsw
00009FD8  263105            xor [es:di],ax
00009FDB  03F9              add di,cx
00009FDD  AD                lodsw
00009FDE  263105            xor [es:di],ax
00009FE1  03F9              add di,cx
00009FE3  AD                lodsw
00009FE4  263105            xor [es:di],ax
00009FE7  03F9              add di,cx
00009FE9  AD                lodsw
00009FEA  263105            xor [es:di],ax
00009FED  03F9              add di,cx
00009FEF  AD                lodsw
00009FF0  263105            xor [es:di],ax
00009FF3  03F9              add di,cx
00009FF5  AD                lodsw
00009FF6  263105            xor [es:di],ax
00009FF9  03F9              add di,cx
00009FFB  AD                lodsw
00009FFC  263105            xor [es:di],ax
00009FFF  03FA              add di,dx
0000A001  AD                lodsw
0000A002  263105            xor [es:di],ax
0000A005  03F9              add di,cx
0000A007  AD                lodsw
0000A008  263105            xor [es:di],ax
0000A00B  03F9              add di,cx
0000A00D  AD                lodsw
0000A00E  263105            xor [es:di],ax
0000A011  03F9              add di,cx
0000A013  AD                lodsw
0000A014  263105            xor [es:di],ax
0000A017  03F9              add di,cx
0000A019  AD                lodsw
0000A01A  263105            xor [es:di],ax
0000A01D  03F9              add di,cx
0000A01F  AD                lodsw
0000A020  263105            xor [es:di],ax
0000A023  03F9              add di,cx
0000A025  AD                lodsw
0000A026  263105            xor [es:di],ax
0000A029  03F9              add di,cx
0000A02B  AD                lodsw
0000A02C  263105            xor [es:di],ax
0000A02F  03FA              add di,dx
0000A031  AD                lodsw
0000A032  263105            xor [es:di],ax
0000A035  03F9              add di,cx
0000A037  AD                lodsw
0000A038  263105            xor [es:di],ax
0000A03B  03F9              add di,cx
0000A03D  AD                lodsw
0000A03E  263105            xor [es:di],ax
0000A041  03F9              add di,cx
0000A043  AD                lodsw
0000A044  263105            xor [es:di],ax
0000A047  03F9              add di,cx
0000A049  AD                lodsw
0000A04A  263105            xor [es:di],ax
0000A04D  03F9              add di,cx
0000A04F  AD                lodsw
0000A050  263105            xor [es:di],ax
0000A053  03F9              add di,cx
0000A055  AD                lodsw
0000A056  263105            xor [es:di],ax
0000A059  03F9              add di,cx
0000A05B  AD                lodsw
0000A05C  263105            xor [es:di],ax
0000A05F  03FA              add di,dx
0000A061  AD                lodsw
0000A062  263105            xor [es:di],ax
0000A065  03F9              add di,cx
0000A067  AD                lodsw
0000A068  263105            xor [es:di],ax
0000A06B  03F9              add di,cx
0000A06D  AD                lodsw
0000A06E  263105            xor [es:di],ax
0000A071  03F9              add di,cx
0000A073  AD                lodsw
0000A074  263105            xor [es:di],ax
0000A077  03F9              add di,cx
0000A079  AD                lodsw
0000A07A  263105            xor [es:di],ax
0000A07D  03F9              add di,cx
0000A07F  AD                lodsw
0000A080  263105            xor [es:di],ax
0000A083  03F9              add di,cx
0000A085  AD                lodsw
0000A086  263105            xor [es:di],ax
0000A089  03F9              add di,cx
0000A08B  AD                lodsw
0000A08C  263105            xor [es:di],ax
0000A08F  8BFD              mov di,bp
0000A091  8CC8              mov ax,cs
0000A093  8EC0              mov es,ax
0000A095  C3                ret
0000A096  BE4E89            mov si,0x894e
0000A099  F6064E89FF        test byte [0x894e],0xff
0000A09E  7803              js 0xa0a3
0000A0A0  E80B00            call 0xa0ae
0000A0A3  BE8389            mov si,0x8983
0000A0A6  F6068389FF        test byte [0x8983],0xff
0000A0AB  7901              jns 0xa0ae
0000A0AD  C3                ret
0000A0AE  8A5C2B            mov bl,[si+0x2b]
0000A0B1  32FF              xor bh,bh
0000A0B3  56                push si
0000A0B4  E810E6            call 0x86c7
0000A0B7  5E                pop si
0000A0B8  F64432FF          test byte [si+0x32],0xff
0000A0BC  7413              jz 0xa0d1
0000A0BE  FE4C32            dec byte [si+0x32]
0000A0C1  C606FE7B50        mov byte [0x7bfe],0x50
0000A0C6  C606FF7B50        mov byte [0x7bff],0x50
0000A0CB  C706007C0000      mov word [0x7c00],0x0
0000A0D1  8A4423            mov al,[si+0x23]
0000A0D4  884424            mov [si+0x24],al
0000A0D7  98                cbw
0000A0D8  8BD8              mov bx,ax
0000A0DA  8B441D            mov ax,[si+0x1d]
0000A0DD  89441F            mov [si+0x1f],ax
0000A0E0  0AC4              or al,ah
0000A0E2  2401              and al,0x1
0000A0E4  884425            mov [si+0x25],al
0000A0E7  33D2              xor dx,dx
0000A0E9  B402              mov ah,0x2
0000A0EB  32C0              xor al,al
0000A0ED  803EFF7B3C        cmp byte [0x7bff],0x3c
0000A0F2  7703              ja 0xa0f7
0000A0F4  B401              mov ah,0x1
0000A0F6  4A                dec dx
0000A0F7  803EFF7B64        cmp byte [0x7bff],0x64
0000A0FC  7205              jc 0xa103
0000A0FE  B004              mov al,0x4
0000A100  B4FF              mov ah,0xff
0000A102  4A                dec dx
0000A103  803EFE7B64        cmp byte [0x7bfe],0x64
0000A108  7203              jc 0xa10d
0000A10A  02C4              add al,ah
0000A10C  4A                dec dx
0000A10D  803EFE7B3C        cmp byte [0x7bfe],0x3c
0000A112  7705              ja 0xa119
0000A114  2AC4              sub al,ah
0000A116  2407              and al,0x7
0000A118  4A                dec dx
0000A119  0BD2              or dx,dx
0000A11B  7915              jns 0xa132
0000A11D  D1E3              shl bx,1
0000A11F  D1E3              shl bx,1
0000A121  D1E3              shl bx,1
0000A123  81C32C8D          add bx,0x8d2c
0000A127  D7                xlatb
0000A128  884423            mov [si+0x23],al
0000A12B  C6442A02          mov byte [si+0x2a],0x2
0000A12F  FE4425            inc byte [si+0x25]
0000A132  F606007CFF        test byte [0x7c00],0xff
0000A137  7403              jz 0xa13c
0000A139  FE442C            inc byte [si+0x2c]
0000A13C  C3                ret
0000A13D  BF4E89            mov di,0x894e
0000A140  BE4D8A            mov si,0x8a4d
0000A143  F6064E89FF        test byte [0x894e],0xff
0000A148  7803              js 0xa14d
0000A14A  E80E00            call 0xa15b
0000A14D  BF8389            mov di,0x8983
0000A150  BE198B            mov si,0x8b19
0000A153  F6068389FF        test byte [0x8983],0xff
0000A158  7901              jns 0xa15b
0000A15A  C3                ret
0000A15B  F6452CFF          test byte [di+0x2c],0xff
0000A15F  745A              jz 0xa1bb
0000A161  F74521FFFF        test word [di+0x21],0xffff
0000A166  7553              jnz 0xa1bb
0000A168  803CFF            cmp byte [si],0xff
0000A16B  7408              jz 0xa175
0000A16D  83C611            add si,byte +0x11
0000A170  803CFF            cmp byte [si],0xff
0000A173  7546              jnz 0xa1bb
0000A175  E8F3F1            call 0x936b
0000A178  8A4523            mov al,[di+0x23]
0000A17B  884409            mov [si+0x9],al
0000A17E  C6440603          mov byte [si+0x6],0x3
0000A182  8B4519            mov ax,[di+0x19]
0000A185  8904              mov [si],ax
0000A187  8B451D            mov ax,[di+0x1d]
0000A18A  894404            mov [si+0x4],ax
0000A18D  C6440AFF          mov byte [si+0xa],0xff
0000A191  B00A              mov al,0xa
0000A193  803D01            cmp byte [di],0x1
0000A196  7502              jnz 0xa19a
0000A198  B003              mov al,0x3
0000A19A  88440E            mov [si+0xe],al
0000A19D  C6452C00          mov byte [di+0x2c],0x0
0000A1A1  B80200            mov ax,0x2
0000A1A4  E8FB60            call 0x2a2
0000A1A7  8A4401            mov al,[si+0x1]
0000A1AA  F626018E          mul byte [0x8e01]
0000A1AE  8A1C              mov bl,[si]
0000A1B0  32FF              xor bh,bh
0000A1B2  03D8              add bx,ax
0000A1B4  81C3C05C          add bx,0x5cc0
0000A1B8  895C0B            mov [si+0xb],bx
0000A1BB  C3                ret
0000A1BC  BE4D8A            mov si,0x8a4d
0000A1BF  BD4E89            mov bp,0x894e
0000A1C2  C706D78D0200      mov word [0x8dd7],0x2
0000A1C8  E80C00            call 0xa1d7
0000A1CB  BE198B            mov si,0x8b19
0000A1CE  BD8389            mov bp,0x8983
0000A1D1  C706D78D0200      mov word [0x8dd7],0x2
0000A1D7  803CFF            cmp byte [si],0xff
0000A1DA  7463              jz 0xa23f
0000A1DC  BF6F8A            mov di,0x8a6f
0000A1DF  B90A00            mov cx,0xa
0000A1E2  803DFF            cmp byte [di],0xff
0000A1E5  7453              jz 0xa23a
0000A1E7  807D0803          cmp byte [di+0x8],0x3
0000A1EB  724D              jc 0xa23a
0000A1ED  8A4404            mov al,[si+0x4]
0000A1F0  2A4504            sub al,[di+0x4]
0000A1F3  7902              jns 0xa1f7
0000A1F5  F6D8              neg al
0000A1F7  3C01              cmp al,0x1
0000A1F9  773F              ja 0xa23a
0000A1FB  8A4405            mov al,[si+0x5]
0000A1FE  2A4505            sub al,[di+0x5]
0000A201  7902              jns 0xa205
0000A203  F6D8              neg al
0000A205  3C01              cmp al,0x1
0000A207  7731              ja 0xa23a
0000A209  C604FF            mov byte [si],0xff
0000A20C  C684F800FF        mov byte [si+0xf8],0xff
0000A211  C6450801          mov byte [di+0x8],0x1
0000A215  C6450904          mov byte [di+0x9],0x4
0000A219  C6450E05          mov byte [di+0xe],0x5
0000A21D  C6450603          mov byte [di+0x6],0x3
0000A221  C6450AFF          mov byte [di+0xa],0xff
0000A225  C7450F0000        mov word [di+0xf],0x0
0000A22A  C685F800FF        mov byte [di+0xf8],0xff
0000A22F  80462803          add byte [bp+0x28],0x3
0000A233  33C0              xor ax,ax
0000A235  E86A60            call 0x2a2
0000A238  EB05              jmp short 0xa23f
0000A23A  83C711            add di,byte +0x11
0000A23D  E2A3              loop 0xa1e2
0000A23F  83C611            add si,byte +0x11
0000A242  FF0ED78D          dec word [0x8dd7]
0000A246  758F              jnz 0xa1d7
0000A248  C3                ret
0000A249  BD8389            mov bp,0x8983
0000A24C  BF4E89            mov di,0x894e
0000A24F  BE6F8A            mov si,0x8a6f
0000A252  F6064E89FF        test byte [0x894e],0xff
0000A257  7803              js 0xa25c
0000A259  E81100            call 0xa26d
0000A25C  F6068389FF        test byte [0x8983],0xff
0000A261  7901              jns 0xa264
0000A263  C3                ret
0000A264  BF8389            mov di,0x8983
0000A267  BE4D8A            mov si,0x8a4d
0000A26A  BD4E89            mov bp,0x894e
0000A26D  B90C00            mov cx,0xc
0000A270  803CFF            cmp byte [si],0xff
0000A273  7422              jz 0xa297
0000A275  807C0801          cmp byte [si+0x8],0x1
0000A279  741C              jz 0xa297
0000A27B  8A451D            mov al,[di+0x1d]
0000A27E  2A4404            sub al,[si+0x4]
0000A281  7902              jns 0xa285
0000A283  F6D8              neg al
0000A285  3C01              cmp al,0x1
0000A287  770E              ja 0xa297
0000A289  8A451E            mov al,[di+0x1e]
0000A28C  2A4405            sub al,[si+0x5]
0000A28F  7902              jns 0xa293
0000A291  F6D8              neg al
0000A293  3C02              cmp al,0x2
0000A295  7206              jc 0xa29d
0000A297  83C611            add si,byte +0x11
0000A29A  E2D4              loop 0xa270
0000A29C  C3                ret
0000A29D  B80100            mov ax,0x1
0000A2A0  E8FF5F            call 0x2a2
0000A2A3  C6452D01          mov byte [di+0x2d],0x1
0000A2A7  E8C1F0            call 0x936b
0000A2AA  F605FF            test byte [di],0xff
0000A2AD  7405              jz 0xa2b4
0000A2AF  C6453214          mov byte [di+0x32],0x14
0000A2B3  C3                ret
0000A2B4  FE4D26            dec byte [di+0x26]
0000A2B7  7801              js 0xa2ba
0000A2B9  C3                ret
0000A2BA  C60501            mov byte [di],0x1
0000A2BD  8A4501            mov al,[di+0x1]
0000A2C0  2C16              sub al,0x16
0000A2C2  8A5D02            mov bl,[di+0x2]
0000A2C5  80C30C            add bl,0xc
0000A2C8  32E4              xor ah,ah
0000A2CA  32FF              xor bh,bh
0000A2CC  57                push di
0000A2CD  55                push bp
0000A2CE  BEB28C            mov si,0x8cb2
0000A2D1  E823E2            call 0x84f7
0000A2D4  5D                pop bp
0000A2D5  5F                pop di
0000A2D6  F6452EFF          test byte [di+0x2e],0xff
0000A2DA  7501              jnz 0xa2dd
0000A2DC  C3                ret
0000A2DD  FE4D2E            dec byte [di+0x2e]
0000A2E0  FE462E            inc byte [bp+0x2e]
0000A2E3  C3                ret
0000A2E4  BA0703            mov dx,0x307
0000A2E7  BE4E89            mov si,0x894e
0000A2EA  F6064E89FF        test byte [0x894e],0xff
0000A2EF  7503              jnz 0xa2f4
0000A2F1  E80E00            call 0xa302
0000A2F4  BE8389            mov si,0x8983
0000A2F7  F6068389FF        test byte [0x8983],0xff
0000A2FC  7401              jz 0xa2ff
0000A2FE  C3                ret
0000A2FF  BA0605            mov dx,0x506
0000A302  8A4426            mov al,[si+0x26]
0000A305  3A4427            cmp al,[si+0x27]
0000A308  7501              jnz 0xa30b
0000A30A  C3                ret
0000A30B  8A4427            mov al,[si+0x27]
0000A30E  C606CD8D3E        mov byte [0x8dcd],0x3e
0000A313  770B              ja 0xa320
0000A315  FEC8              dec al
0000A317  C606CD8D20        mov byte [0x8dcd],0x20
0000A31C  806C2702          sub byte [si+0x27],0x2
0000A320  FE4427            inc byte [si+0x27]
0000A323  50                push ax
0000A324  56                push si
0000A325  E88CE1            call 0x84b4
0000A328  5E                pop si
0000A329  58                pop ax
0000A32A  8AE0              mov ah,al
0000A32C  D0E0              shl al,1
0000A32E  02C4              add al,ah
0000A330  024401            add al,[si+0x1]
0000A333  2C16              sub al,0x16
0000A335  8A5C02            mov bl,[si+0x2]
0000A338  80C30C            add bl,0xc
0000A33B  32E4              xor ah,ah
0000A33D  32FF              xor bh,bh
0000A33F  BECD8D            mov si,0x8dcd
0000A342  E8B2E1            call 0x84f7
0000A345  C3                ret
0000A346  BE4E89            mov si,0x894e
0000A349  F6064E89FF        test byte [0x894e],0xff
0000A34E  7803              js 0xa353
0000A350  E82400            call 0xa377
0000A353  E81E03            call 0xa674
0000A356  BE8389            mov si,0x8983
0000A359  F6068389FF        test byte [0x8983],0xff
0000A35E  7803              js 0xa363
0000A360  E81400            call 0xa377
0000A363  E90E03            jmp 0xa674
0000A366  58                pop ax
0000A367  8A4424            mov al,[si+0x24]
0000A36A  3A4423            cmp al,[si+0x23]
0000A36D  7505              jnz 0xa374
0000A36F  C6442500          mov byte [si+0x25],0x0
0000A373  C3                ret
0000A374  884423            mov [si+0x23],al
0000A377  F64425FF          test byte [si+0x25],0xff
0000A37B  7501              jnz 0xa37e
0000A37D  C3                ret
0000A37E  8B4419            mov ax,[si+0x19]
0000A381  89441B            mov [si+0x1b],ax
0000A384  8A5C23            mov bl,[si+0x23]
0000A387  32FF              xor bh,bh
0000A389  D1E3              shl bx,1
0000A38B  FFA7C18E          jmp [bx-0x713f]
0000A38F  F64421FF          test byte [si+0x21],0xff
0000A393  7402              jz 0xa397
0000A395  EBD0              jmp short 0xa367
0000A397  F64422FF          test byte [si+0x22],0xff
0000A39B  751F              jnz 0xa3bc
0000A39D  FE4C1C            dec byte [si+0x1c]
0000A3A0  7917              jns 0xa3b9
0000A3A2  A0008E            mov al,[0x8e00]
0000A3A5  FEC8              dec al
0000A3A7  88441A            mov [si+0x1a],al
0000A3AA  88441C            mov [si+0x1c],al
0000A3AD  FE4422            inc byte [si+0x22]
0000A3B0  D0E0              shl al,1
0000A3B2  FEC0              inc al
0000A3B4  88441E            mov [si+0x1e],al
0000A3B7  EB03              jmp short 0xa3bc
0000A3B9  E8BD00            call 0xa479
0000A3BC  80742201          xor byte [si+0x22],0x1
0000A3C0  7403              jz 0xa3c5
0000A3C2  FE4C1A            dec byte [si+0x1a]
0000A3C5  FE4C1E            dec byte [si+0x1e]
0000A3C8  C3                ret
0000A3C9  F64422FF          test byte [si+0x22],0xff
0000A3CD  7402              jz 0xa3d1
0000A3CF  EB96              jmp short 0xa367
0000A3D1  F64421FF          test byte [si+0x21],0xff
0000A3D5  751F              jnz 0xa3f6
0000A3D7  FE4C1B            dec byte [si+0x1b]
0000A3DA  7917              jns 0xa3f3
0000A3DC  A0018E            mov al,[0x8e01]
0000A3DF  FEC8              dec al
0000A3E1  884419            mov [si+0x19],al
0000A3E4  88441B            mov [si+0x1b],al
0000A3E7  FE4421            inc byte [si+0x21]
0000A3EA  D0E0              shl al,1
0000A3EC  FEC0              inc al
0000A3EE  88441D            mov [si+0x1d],al
0000A3F1  EB03              jmp short 0xa3f6
0000A3F3  E88300            call 0xa479
0000A3F6  80742101          xor byte [si+0x21],0x1
0000A3FA  7403              jz 0xa3ff
0000A3FC  FE4C19            dec byte [si+0x19]
0000A3FF  FE4C1D            dec byte [si+0x1d]
0000A402  C3                ret
0000A403  F64421FF          test byte [si+0x21],0xff
0000A407  7403              jz 0xa40c
0000A409  E95BFF            jmp 0xa367
0000A40C  F64422FF          test byte [si+0x22],0xff
0000A410  751F              jnz 0xa431
0000A412  FE441C            inc byte [si+0x1c]
0000A415  A0008E            mov al,[0x8e00]
0000A418  38441C            cmp [si+0x1c],al
0000A41B  7511              jnz 0xa42e
0000A41D  C6441AFF          mov byte [si+0x1a],0xff
0000A421  C6441CFF          mov byte [si+0x1c],0xff
0000A425  FE4422            inc byte [si+0x22]
0000A428  C6441EFF          mov byte [si+0x1e],0xff
0000A42C  EB03              jmp short 0xa431
0000A42E  E84800            call 0xa479
0000A431  80742201          xor byte [si+0x22],0x1
0000A435  7503              jnz 0xa43a
0000A437  FE441A            inc byte [si+0x1a]
0000A43A  FE441E            inc byte [si+0x1e]
0000A43D  C3                ret
0000A43E  F64422FF          test byte [si+0x22],0xff
0000A442  7403              jz 0xa447
0000A444  E920FF            jmp 0xa367
0000A447  F64421FF          test byte [si+0x21],0xff
0000A44B  751F              jnz 0xa46c
0000A44D  FE441B            inc byte [si+0x1b]
0000A450  A0018E            mov al,[0x8e01]
0000A453  38441B            cmp [si+0x1b],al
0000A456  7511              jnz 0xa469
0000A458  C64419FF          mov byte [si+0x19],0xff
0000A45C  C6441BFF          mov byte [si+0x1b],0xff
0000A460  FE4421            inc byte [si+0x21]
0000A463  C6441DFF          mov byte [si+0x1d],0xff
0000A467  EB03              jmp short 0xa46c
0000A469  E80D00            call 0xa479
0000A46C  80742101          xor byte [si+0x21],0x1
0000A470  7503              jnz 0xa475
0000A472  FE4419            inc byte [si+0x19]
0000A475  FE441D            inc byte [si+0x1d]
0000A478  C3                ret
0000A479  32FF              xor bh,bh
0000A47B  8A5C1B            mov bl,[si+0x1b]
0000A47E  A0018E            mov al,[0x8e01]
0000A481  F6641C            mul byte [si+0x1c]
0000A484  03D8              add bx,ax
0000A486  81C3C05C          add bx,0x5cc0
0000A48A  8A07              mov al,[bx]
0000A48C  3C40              cmp al,0x40
0000A48E  7501              jnz 0xa491
0000A490  C3                ret
0000A491  3C78              cmp al,0x78
0000A493  7501              jnz 0xa496
0000A495  C3                ret
0000A496  3C50              cmp al,0x50
0000A498  7303              jnc 0xa49d
0000A49A  EB1C              jmp short 0xa4b8
0000A49C  90                nop
0000A49D  3C72              cmp al,0x72
0000A49F  7417              jz 0xa4b8
0000A4A1  7603              jna 0xa4a6
0000A4A3  E94701            jmp 0xa5ed
0000A4A6  3C54              cmp al,0x54
0000A4A8  7203              jc 0xa4ad
0000A4AA  E9B9FE            jmp 0xa366
0000A4AD  2C50              sub al,0x50
0000A4AF  3A4423            cmp al,[si+0x23]
0000A4B2  7503              jnz 0xa4b7
0000A4B4  E9AFFE            jmp 0xa366
0000A4B7  C3                ret
0000A4B8  A2088E            mov [0x8e08],al
0000A4BB  3C41              cmp al,0x41
0000A4BD  7446              jz 0xa505
0000A4BF  3C42              cmp al,0x42
0000A4C1  7415              jz 0xa4d8
0000A4C3  3C72              cmp al,0x72
0000A4C5  7503              jnz 0xa4ca
0000A4C7  E9D700            jmp 0xa5a1
0000A4CA  3C47              cmp al,0x47
0000A4CC  725C              jc 0xa52a
0000A4CE  3C50              cmp al,0x50
0000A4D0  7303              jnc 0xa4d5
0000A4D2  E98700            jmp 0xa55c
0000A4D5  E98EFE            jmp 0xa366
0000A4D8  F604FF            test byte [si],0xff
0000A4DB  7403              jz 0xa4e0
0000A4DD  E986FE            jmp 0xa366
0000A4E0  F6442EFF          test byte [si+0x2e],0xff
0000A4E4  7403              jz 0xa4e9
0000A4E6  E97DFE            jmp 0xa366
0000A4E9  FE442E            inc byte [si+0x2e]
0000A4EC  FF0EF48D          dec word [0x8df4]
0000A4F0  C60740            mov byte [bx],0x40
0000A4F3  B80F00            mov ax,0xf
0000A4F6  004428            add [si+0x28],al
0000A4F9  E894EE            call 0x9390
0000A4FC  B80300            mov ax,0x3
0000A4FF  E8A05D            call 0x2a2
0000A502  E9AD00            jmp 0xa5b2
0000A505  F6442EFF          test byte [si+0x2e],0xff
0000A509  7503              jnz 0xa50e
0000A50B  E958FE            jmp 0xa366
0000A50E  C60740            mov byte [bx],0x40
0000A511  B81900            mov ax,0x19
0000A514  004428            add [si+0x28],al
0000A517  E876EE            call 0x9390
0000A51A  FF0EF68D          dec word [0x8df6]
0000A51E  FE4C2E            dec byte [si+0x2e]
0000A521  B80400            mov ax,0x4
0000A524  E87B5D            call 0x2a2
0000A527  E98800            jmp 0xa5b2
0000A52A  C60740            mov byte [bx],0x40
0000A52D  8006DC8D0A        add byte [0x8ddc],0xa
0000A532  A0DC8D            mov al,[0x8ddc]
0000A535  004428            add [si+0x28],al
0000A538  8AD8              mov bl,al
0000A53A  80C314            add bl,0x14
0000A53D  D0EB              shr bl,1
0000A53F  D0EB              shr bl,1
0000A541  881ED58D          mov [0x8dd5],bl
0000A545  32E4              xor ah,ah
0000A547  F604FF            test byte [si],0xff
0000A54A  7503              jnz 0xa54f
0000A54C  E841EE            call 0x9390
0000A54F  FE06E18D          inc byte [0x8de1]
0000A553  B80500            mov ax,0x5
0000A556  E8495D            call 0x2a2
0000A559  EB57              jmp short 0xa5b2
0000A55B  90                nop
0000A55C  C60740            mov byte [bx],0x40
0000A55F  B063              mov al,0x63
0000A561  004428            add [si+0x28],al
0000A564  32E4              xor ah,ah
0000A566  F604FF            test byte [si],0xff
0000A569  7503              jnz 0xa56e
0000A56B  E822EE            call 0x9390
0000A56E  FE06E18D          inc byte [0x8de1]
0000A572  B80700            mov ax,0x7
0000A575  E82A5D            call 0x2a2
0000A578  57                push di
0000A579  53                push bx
0000A57A  A0DD8D            mov al,[0x8ddd]
0000A57D  BF088E            mov di,0x8e08
0000A580  83C704            add di,byte +0x4
0000A583  3805              cmp [di],al
0000A585  75F9              jnz 0xa580
0000A587  C7050100          mov word [di],0x1
0000A58B  8B1E308E          mov bx,[0x8e30]
0000A58F  FF06308E          inc word [0x8e30]
0000A593  D1E3              shl bx,1
0000A595  8B874460          mov ax,[bx+0x6044]
0000A599  894502            mov [di+0x2],ax
0000A59C  5B                pop bx
0000A59D  5F                pop di
0000A59E  EB12              jmp short 0xa5b2
0000A5A0  90                nop
0000A5A1  C60754            mov byte [bx],0x54
0000A5A4  C606088E54        mov byte [0x8e08],0x54
0000A5A9  FE4428            inc byte [si+0x28]
0000A5AC  E80300            call 0xa5b2
0000A5AF  E9B4FD            jmp 0xa366
0000A5B2  8A541B            mov dl,[si+0x1b]
0000A5B5  32F6              xor dh,dh
0000A5B7  D1E2              shl dx,1
0000A5B9  D1E2              shl dx,1
0000A5BB  D1E2              shl dx,1
0000A5BD  D1E2              shl dx,1
0000A5BF  8A441C            mov al,[si+0x1c]
0000A5C2  F626018E          mul byte [0x8e01]
0000A5C6  D1E0              shl ax,1
0000A5C8  D1E0              shl ax,1
0000A5CA  D1E0              shl ax,1
0000A5CC  D1E0              shl ax,1
0000A5CE  D1E0              shl ax,1
0000A5D0  D1E0              shl ax,1
0000A5D2  8BF8              mov di,ax
0000A5D4  03FA              add di,dx
0000A5D6  A0088E            mov al,[0x8e08]
0000A5D9  2C40              sub al,0x40
0000A5DB  B4C0              mov ah,0xc0
0000A5DD  F6E4              mul ah
0000A5DF  56                push si
0000A5E0  8BF0              mov si,ax
0000A5E2  81C67009          add si,0x970
0000A5E6  33DB              xor bx,bx
0000A5E8  E84FF8            call 0x9e3a
0000A5EB  5E                pop si
0000A5EC  C3                ret
0000A5ED  803EDD8D01        cmp byte [0x8ddd],0x1
0000A5F2  7532              jnz 0xa626
0000A5F4  BB0100            mov bx,0x1
0000A5F7  8B4419            mov ax,[si+0x19]
0000A5FA  BD9260            mov bp,0x6092
0000A5FD  BF7960            mov di,0x6079
0000A600  83C502            add bp,byte +0x2
0000A603  43                inc bx
0000A604  83FB16            cmp bx,byte +0x16
0000A607  7603              jna 0xa60c
0000A609  E95AFD            jmp 0xa366
0000A60C  F601FF            test byte [bx+di],0xff
0000A60F  78EF              js 0xa600
0000A611  3B4600            cmp ax,[bp+0x0]
0000A614  75EA              jnz 0xa600
0000A616  881EDD8D          mov [0x8ddd],bl
0000A61A  FE067A60          inc byte [0x607a]
0000A61E  80267A600F        and byte [0x607a],0xf
0000A623  E9D3EA            jmp 0x90f9
0000A626  8A1EDD8D          mov bl,[0x8ddd]
0000A62A  32FF              xor bh,bh
0000A62C  80FB19            cmp bl,0x19
0000A62F  7503              jnz 0xa634
0000A631  E9BFEA            jmp 0x90f3
0000A634  80FB16            cmp bl,0x16
0000A637  771E              ja 0xa657
0000A639  81C37960          add bx,0x6079
0000A63D  8A07              mov al,[bx]
0000A63F  FEC0              inc al
0000A641  240F              and al,0xf
0000A643  7502              jnz 0xa647
0000A645  FEC8              dec al
0000A647  8807              mov [bx],al
0000A649  7804              js 0xa64f
0000A64B  2403              and al,0x3
0000A64D  7500              jnz 0xa64f
0000A64F  C606DD8D01        mov byte [0x8ddd],0x1
0000A654  E9A2EA            jmp 0x90f9
0000A657  FEC3              inc bl
0000A659  881EDD8D          mov [0x8ddd],bl
0000A65D  C706A88DD281      mov word [0x8da8],0x81d2
0000A663  80FB18            cmp bl,0x18
0000A666  7406              jz 0xa66e
0000A668  C706A88D5282      mov word [0x8da8],0x8252
0000A66E  E88FEB            call 0x9200
0000A671  E982EA            jmp 0x90f6
0000A674  8A441D            mov al,[si+0x1d]
0000A677  2A4417            sub al,[si+0x17]
0000A67A  3A06AC8D          cmp al,[0x8dac]
0000A67E  7E1A              jng 0xa69a
0000A680  3A06AD8D          cmp al,[0x8dad]
0000A684  7D22              jnl 0xa6a8
0000A686  8A441E            mov al,[si+0x1e]
0000A689  2A4418            sub al,[si+0x18]
0000A68C  3A06AE8D          cmp al,[0x8dae]
0000A690  7E3A              jng 0xa6cc
0000A692  3A06AF8D          cmp al,[0x8daf]
0000A696  7D40              jnl 0xa6d8
0000A698  EB5E              jmp short 0xa6f8
0000A69A  8A441F            mov al,[si+0x1f]
0000A69D  2A441D            sub al,[si+0x1d]
0000A6A0  74E4              jz 0xa686
0000A6A2  3CFF              cmp al,0xff
0000A6A4  74E0              jz 0xa686
0000A6A6  EB0C              jmp short 0xa6b4
0000A6A8  8A441F            mov al,[si+0x1f]
0000A6AB  2A441D            sub al,[si+0x1d]
0000A6AE  74D6              jz 0xa686
0000A6B0  3C01              cmp al,0x1
0000A6B2  74D2              jz 0xa686
0000A6B4  284417            sub [si+0x17],al
0000A6B7  7906              jns 0xa6bf
0000A6B9  C6441700          mov byte [si+0x17],0x0
0000A6BD  EB39              jmp short 0xa6f8
0000A6BF  A0AA8D            mov al,[0x8daa]
0000A6C2  3A4417            cmp al,[si+0x17]
0000A6C5  7331              jnc 0xa6f8
0000A6C7  884417            mov [si+0x17],al
0000A6CA  EB2C              jmp short 0xa6f8
0000A6CC  8A4420            mov al,[si+0x20]
0000A6CF  2A441E            sub al,[si+0x1e]
0000A6D2  3CFF              cmp al,0xff
0000A6D4  7422              jz 0xa6f8
0000A6D6  EB0A              jmp short 0xa6e2
0000A6D8  8A4420            mov al,[si+0x20]
0000A6DB  2A441E            sub al,[si+0x1e]
0000A6DE  3C01              cmp al,0x1
0000A6E0  7416              jz 0xa6f8
0000A6E2  284418            sub [si+0x18],al
0000A6E5  7906              jns 0xa6ed
0000A6E7  C6441800          mov byte [si+0x18],0x0
0000A6EB  EB0B              jmp short 0xa6f8
0000A6ED  A0AB8D            mov al,[0x8dab]
0000A6F0  3A4418            cmp al,[si+0x18]
0000A6F3  7303              jnc 0xa6f8
0000A6F5  884418            mov [si+0x18],al
0000A6F8  32F6              xor dh,dh
0000A6FA  8A5417            mov dl,[si+0x17]
0000A6FD  D1E2              shl dx,1
0000A6FF  D1E2              shl dx,1
0000A701  D1E2              shl dx,1
0000A703  8A4418            mov al,[si+0x18]
0000A706  F626018E          mul byte [0x8e01]
0000A70A  D1E0              shl ax,1
0000A70C  D1E0              shl ax,1
0000A70E  D1E0              shl ax,1
0000A710  D1E0              shl ax,1
0000A712  D1E0              shl ax,1
0000A714  03C2              add ax,dx
0000A716  89440D            mov [si+0xd],ax
0000A719  32F6              xor dh,dh
0000A71B  8A541D            mov dl,[si+0x1d]
0000A71E  D1E2              shl dx,1
0000A720  D1E2              shl dx,1
0000A722  D1E2              shl dx,1
0000A724  8A441E            mov al,[si+0x1e]
0000A727  F626018E          mul byte [0x8e01]
0000A72B  D1E0              shl ax,1
0000A72D  D1E0              shl ax,1
0000A72F  D1E0              shl ax,1
0000A731  D1E0              shl ax,1
0000A733  D1E0              shl ax,1
0000A735  03C2              add ax,dx
0000A737  89440F            mov [si+0xf],ax
0000A73A  F64425FF          test byte [si+0x25],0xff
0000A73E  752B              jnz 0xa76b
0000A740  FE4C2A            dec byte [si+0x2a]
0000A743  7801              js 0xa746
0000A745  C3                ret
0000A746  C6442A00          mov byte [si+0x2a],0x0
0000A74A  FE4429            inc byte [si+0x29]
0000A74D  8A4429            mov al,[si+0x29]
0000A750  8AE0              mov ah,al
0000A752  D0E8              shr al,1
0000A754  D0E8              shr al,1
0000A756  241F              and al,0x1f
0000A758  BB5C8D            mov bx,0x8d5c
0000A75B  D7                xlatb
0000A75C  BB7C8D            mov bx,0x8d7c
0000A75F  D0E0              shl al,1
0000A761  D0E0              shl al,1
0000A763  80E403            and ah,0x3
0000A766  02C4              add al,ah
0000A768  D7                xlatb
0000A769  EB13              jmp short 0xa77e
0000A76B  A0CF8D            mov al,[0x8dcf]
0000A76E  2403              and al,0x3
0000A770  32FF              xor bh,bh
0000A772  8A5C23            mov bl,[si+0x23]
0000A775  D0E3              shl bl,1
0000A777  D0E3              shl bl,1
0000A779  81C34C8D          add bx,0x8d4c
0000A77D  D7                xlatb
0000A77E  32E4              xor ah,ah
0000A780  D1E0              shl ax,1
0000A782  D1E0              shl ax,1
0000A784  D1E0              shl ax,1
0000A786  D1E0              shl ax,1
0000A788  D1E0              shl ax,1
0000A78A  D1E0              shl ax,1
0000A78C  8BD0              mov dx,ax
0000A78E  D1E0              shl ax,1
0000A790  03C2              add ax,dx
0000A792  05302E            add ax,0x2e30
0000A795  894413            mov [si+0x13],ax
0000A798  C3                ret
0000A799  E8A700            call 0xa843
0000A79C  E8BDE0            call 0x885c
0000A79F  C706D37B3089      mov word [0x7bd3],0x8930
0000A7A5  C606DA8D01        mov byte [0x8dda],0x1
0000A7AA  F606037CFF        test byte [0x7c03],0xff
0000A7AF  7510              jnz 0xa7c1
0000A7B1  C606DA8D03        mov byte [0x8dda],0x3
0000A7B6  F606047CFF        test byte [0x7c04],0xff
0000A7BB  7504              jnz 0xa7c1
0000A7BD  FE06DA8D          inc byte [0x8dda]
0000A7C1  E81E00            call 0xa7e2
0000A7C4  33C0              xor ax,ax
0000A7C6  A3308E            mov [0x8e30],ax
0000A7C9  BF7A60            mov di,0x607a
0000A7CC  B91900            mov cx,0x19
0000A7CF  F3AA              rep stosb
0000A7D1  BF0C8E            mov di,0x8e0c
0000A7D4  BE5660            mov si,0x6056
0000A7D7  B91200            mov cx,0x12
0000A7DA  F3A5              rep movsw
0000A7DC  C606D48D01        mov byte [0x8dd4],0x1
0000A7E1  C3                ret
0000A7E2  C6064E8900        mov byte [0x894e],0x0
0000A7E7  B0FF              mov al,0xff
0000A7E9  F606D98DFF        test byte [0x8dd9],0xff
0000A7EE  7401              jz 0xa7f1
0000A7F0  40                inc ax
0000A7F1  A28389            mov [0x8983],al
0000A7F4  BB4E89            mov bx,0x894e
0000A7F7  E80300            call 0xa7fd
0000A7FA  BB8389            mov bx,0x8983
0000A7FD  B90500            mov cx,0x5
0000A800  B030              mov al,0x30
0000A802  8D7F05            lea di,[bx+0x5]
0000A805  F3AA              rep stosb
0000A807  33C0              xor ax,ax
0000A809  894703            mov [bx+0x3],ax
0000A80C  C647260A          mov byte [bx+0x26],0xa
0000A810  884728            mov [bx+0x28],al
0000A813  88472D            mov [bx+0x2d],al
0000A816  88472C            mov [bx+0x2c],al
0000A819  884731            mov [bx+0x31],al
0000A81C  C3                ret
0000A81D  E8775A            call 0x297
0000A820  33C0              xor ax,ax
0000A822  A3CF8D            mov [0x8dcf],ax
0000A825  A2D38D            mov [0x8dd3],al
0000A828  BF2B8C            mov di,0x8c2b
0000A82B  B92800            mov cx,0x28
0000A82E  F3AB              rep stosw
0000A830  BE4D8A            mov si,0x8a4d
0000A833  B90E00            mov cx,0xe
0000A836  51                push cx
0000A837  E831EB            call 0x936b
0000A83A  59                pop cx
0000A83B  83C611            add si,byte +0x11
0000A83E  E2F6              loop 0xa836
0000A840  E938EC            jmp 0x947b
0000A843  B8A9AD            mov ax,0xada9
0000A846  8CCA              mov dx,cs
0000A848  D1E8              shr ax,1
0000A84A  D1E8              shr ax,1
0000A84C  D1E8              shr ax,1
0000A84E  D1E8              shr ax,1
0000A850  40                inc ax
0000A851  03D0              add dx,ax
0000A853  89163689          mov [0x8936],dx
0000A857  89164889          mov [0x8948],dx
0000A85B  81C2A005          add dx,0x5a0
0000A85F  89163889          mov [0x8938],dx
0000A863  89163E89          mov [0x893e],dx
0000A867  89164C89          mov [0x894c],dx
0000A86B  81C2A005          add dx,0x5a0
0000A86F  89163A89          mov [0x893a],dx
0000A873  89164089          mov [0x8940],dx
0000A877  89164289          mov [0x8942],dx
0000A87B  89164489          mov [0x8944],dx
0000A87F  89164689          mov [0x8946],dx
0000A883  C3                ret
0000A884  BE4E89            mov si,0x894e
0000A887  F6064E89FF        test byte [0x894e],0xff
0000A88C  7803              js 0xa891
0000A88E  E80B00            call 0xa89c
0000A891  BE8389            mov si,0x8983
0000A894  F6068389FF        test byte [0x8983],0xff
0000A899  7901              jns 0xa89c
0000A89B  C3                ret
0000A89C  F6442DFF          test byte [si+0x2d],0xff
0000A8A0  740E              jz 0xa8b0
0000A8A2  A13689            mov ax,[0x8936]
0000A8A5  87063889          xchg [0x8938],ax
0000A8A9  87063A89          xchg [0x893a],ax
0000A8AD  A33689            mov [0x8936],ax
0000A8B0  8B2EB28D          mov bp,[0x8db2]
0000A8B4  8B16B08D          mov dx,[0x8db0]
0000A8B8  8B7C0B            mov di,[si+0xb]
0000A8BB  56                push si
0000A8BC  8B740D            mov si,[si+0xd]
0000A8BF  8BC6              mov ax,si
0000A8C1  8BDF              mov bx,di
0000A8C3  8BCD              mov cx,bp
0000A8C5  2E8E1E3689        mov ds,[cs:0x8936]
0000A8CA  2E8E063089        mov es,[cs:0x8930]
0000A8CF  F3A5              rep movsw
0000A8D1  8BF0              mov si,ax
0000A8D3  8BFB              mov di,bx
0000A8D5  8BCD              mov cx,bp
0000A8D7  2E8E1E3889        mov ds,[cs:0x8938]
0000A8DC  2E8E063289        mov es,[cs:0x8932]
0000A8E1  F3A5              rep movsw
0000A8E3  8BF0              mov si,ax
0000A8E5  8BFB              mov di,bx
0000A8E7  8BCD              mov cx,bp
0000A8E9  2E8E1E3A89        mov ds,[cs:0x893a]
0000A8EE  2E8E063489        mov es,[cs:0x8934]
0000A8F3  F3A5              rep movsw
0000A8F5  8CC8              mov ax,cs
0000A8F7  8ED8              mov ds,ax
0000A8F9  033EB48D          add di,[0x8db4]
0000A8FD  0336B68D          add si,[0x8db6]
0000A901  4A                dec dx
0000A902  75BB              jnz 0xa8bf
0000A904  8CC8              mov ax,cs
0000A906  8EC0              mov es,ax
0000A908  5E                pop si
0000A909  F6442DFF          test byte [si+0x2d],0xff
0000A90D  7411              jz 0xa920
0000A90F  A13A89            mov ax,[0x893a]
0000A912  87063889          xchg [0x8938],ax
0000A916  87063689          xchg [0x8936],ax
0000A91A  A33A89            mov [0x893a],ax
0000A91D  FE4C2D            dec byte [si+0x2d]
0000A920  C3                ret
0000A921  33C0              xor ax,ax
0000A923  A3FA8D            mov [0x8dfa],ax
0000A926  A2DC8D            mov [0x8ddc],al
0000A929  A2DF8D            mov [0x8ddf],al
0000A92C  A2E08D            mov [0x8de0],al
0000A92F  C606E18D01        mov byte [0x8de1],0x1
0000A934  A0DD8D            mov al,[0x8ddd]
0000A937  BB7960            mov bx,0x6079
0000A93A  D7                xlatb
0000A93B  A2DE8D            mov [0x8dde],al
0000A93E  8AD8              mov bl,al
0000A940  803EDD8D01        cmp byte [0x8ddd],0x1
0000A945  750C              jnz 0xa953
0000A947  32C0              xor al,al
0000A949  A2DE8D            mov [0x8dde],al
0000A94C  D0E3              shl bl,1
0000A94E  D0E3              shl bl,1
0000A950  80E30C            and bl,0xc
0000A953  D0E8              shr al,1
0000A955  D016DF8D          rcl byte [0x8ddf],1
0000A959  D0E8              shr al,1
0000A95B  D016E08D          rcl byte [0x8de0],1
0000A95F  32E4              xor ah,ah
0000A961  8AC3              mov al,bl
0000A963  D0E8              shr al,1
0000A965  D0E8              shr al,1
0000A967  8BF0              mov si,ax
0000A969  D1E6              shl si,1
0000A96B  8BB46379          mov si,[si+0x7963]
0000A96F  A0DD8D            mov al,[0x8ddd]
0000A972  48                dec ax
0000A973  D1E0              shl ax,1
0000A975  8BD8              mov bx,ax
0000A977  D1E0              shl ax,1
0000A979  03F0              add si,ax
0000A97B  03F3              add si,bx
0000A97D  AD                lodsw
0000A97E  A3E28D            mov [0x8de2],ax
0000A981  AD                lodsw
0000A982  A3E48D            mov [0x8de4],ax
0000A985  AD                lodsw
0000A986  A3E68D            mov [0x8de6],ax
0000A989  8A1EDD8D          mov bl,[0x8ddd]
0000A98D  32FF              xor bh,bh
0000A98F  D1E3              shl bx,1
0000A991  8B872F79          mov ax,[bx+0x792f]
0000A995  A3E88D            mov [0x8de8],ax
0000A998  8B872C68          mov ax,[bx+0x682c]
0000A99C  A3EA8D            mov [0x8dea],ax
0000A99F  8B875664          mov ax,[bx+0x6456]
0000A9A3  A3EC8D            mov [0x8dec],ax
0000A9A6  8B871E66          mov ax,[bx+0x661e]
0000A9AA  A3EE8D            mov [0x8dee],ax
0000A9AD  8B872667          mov ax,[bx+0x6726]
0000A9B1  A3F08D            mov [0x8df0],ax
0000A9B4  8BB74E58          mov si,[bx+0x584e]
0000A9B8  E8A901            call 0xab64
0000A9BB  E891F3            call 0x9d4f
0000A9BE  E82F03            call 0xacf0
0000A9C1  8936FC8D          mov [0x8dfc],si
0000A9C5  E8EA03            call 0xadb2
0000A9C8  BD1E8D            mov bp,0x8d1e
0000A9CB  E822DE            call 0x87f0
0000A9CE  8B36EA8D          mov si,[0x8dea]
0000A9D2  A1E48D            mov ax,[0x8de4]
0000A9D5  BF0A61            mov di,0x610a
0000A9D8  E86401            call 0xab3f
0000A9DB  890EF28D          mov [0x8df2],cx
0000A9DF  BE0A61            mov si,0x610a
0000A9E2  C606088E43        mov byte [0x8e08],0x43
0000A9E7  FE060B8E          inc byte [0x8e0b]
0000A9EB  E81E01            call 0xab0c
0000A9EE  FE0E0B8E          dec byte [0x8e0b]
0000A9F2  8B36EC8D          mov si,[0x8dec]
0000A9F6  A1E68D            mov ax,[0x8de6]
0000A9F9  BF0A61            mov di,0x610a
0000A9FC  E84001            call 0xab3f
0000A9FF  890EF88D          mov [0x8df8],cx
0000AA03  BE0A61            mov si,0x610a
0000AA06  BFE960            mov di,0x60e9
0000AA09  F3A5              rep movsw
0000AA0B  8B36EE8D          mov si,[0x8dee]
0000AA0F  A1E28D            mov ax,[0x8de2]
0000AA12  BF0A61            mov di,0x610a
0000AA15  E82701            call 0xab3f
0000AA18  890EF68D          mov [0x8df6],cx
0000AA1C  890EF48D          mov [0x8df4],cx
0000AA20  BE0A61            mov si,0x610a
0000AA23  C606088E42        mov byte [0x8e08],0x42
0000AA28  E8E100            call 0xab0c
0000AA2B  8B36F08D          mov si,[0x8df0]
0000AA2F  B80000            mov ax,0x0
0000AA32  8B0EF68D          mov cx,[0x8df6]
0000AA36  F9                stc
0000AA37  D1D0              rcl ax,1
0000AA39  E2FB              loop 0xaa36
0000AA3B  BF0A61            mov di,0x610a
0000AA3E  E8FE00            call 0xab3f
0000AA41  BE0A61            mov si,0x610a
0000AA44  C606088E41        mov byte [0x8e08],0x41
0000AA49  E8C000            call 0xab0c
0000AA4C  BF9460            mov di,0x6094
0000AA4F  BEBE60            mov si,0x60be
0000AA52  BB7B60            mov bx,0x607b
0000AA55  B91500            mov cx,0x15
0000AA58  8A07              mov al,[bx]
0000AA5A  43                inc bx
0000AA5B  0AC0              or al,al
0000AA5D  780C              js 0xaa6b
0000AA5F  AC                lodsb
0000AA60  E86D02            call 0xacd0
0000AA63  AA                stosb
0000AA64  AC                lodsb
0000AA65  E87802            call 0xace0
0000AA68  AA                stosb
0000AA69  EB0A              jmp short 0xaa75
0000AA6B  C705FFFF          mov word [di],0xffff
0000AA6F  83C702            add di,byte +0x2
0000AA72  83C602            add si,byte +0x2
0000AA75  E2E1              loop 0xaa58
0000AA77  BB99AD            mov bx,0xad99
0000AA7A  E80603            call 0xad83
0000AA7D  33FF              xor di,di
0000AA7F  BE4E89            mov si,0x894e
0000AA82  F6064E89FF        test byte [0x894e],0xff
0000AA87  7803              js 0xaa8c
0000AA89  E80E00            call 0xaa9a
0000AA8C  BE8389            mov si,0x8983
0000AA8F  F6068389FF        test byte [0x8983],0xff
0000AA94  7901              jns 0xaa97
0000AA96  C3                ret
0000AA97  BF0200            mov di,0x2
0000AA9A  8A1EDD8D          mov bl,[0x8ddd]
0000AA9E  32FF              xor bh,bh
0000AAA0  D1E3              shl bx,1
0000AAA2  D1E3              shl bx,1
0000AAA4  8B819269          mov ax,[bx+di+0x6992]
0000AAA8  E82502            call 0xacd0
0000AAAB  884419            mov [si+0x19],al
0000AAAE  D0E0              shl al,1
0000AAB0  88441D            mov [si+0x1d],al
0000AAB3  88441F            mov [si+0x1f],al
0000AAB6  2C08              sub al,0x8
0000AAB8  7902              jns 0xaabc
0000AABA  32C0              xor al,al
0000AABC  3A06AA8D          cmp al,[0x8daa]
0000AAC0  7603              jna 0xaac5
0000AAC2  A0AA8D            mov al,[0x8daa]
0000AAC5  884417            mov [si+0x17],al
0000AAC8  8AC4              mov al,ah
0000AACA  E81302            call 0xace0
0000AACD  88441A            mov [si+0x1a],al
0000AAD0  D0E0              shl al,1
0000AAD2  88441E            mov [si+0x1e],al
0000AAD5  884420            mov [si+0x20],al
0000AAD8  2C04              sub al,0x4
0000AADA  7902              jns 0xaade
0000AADC  32C0              xor al,al
0000AADE  3A06AB8D          cmp al,[0x8dab]
0000AAE2  7603              jna 0xaae7
0000AAE4  A0AB8D            mov al,[0x8dab]
0000AAE7  884418            mov [si+0x18],al
0000AAEA  33C0              xor ax,ax
0000AAEC  894421            mov [si+0x21],ax
0000AAEF  894423            mov [si+0x23],ax
0000AAF2  C6442E00          mov byte [si+0x2e],0x0
0000AAF6  884429            mov [si+0x29],al
0000AAF9  884427            mov [si+0x27],al
0000AAFC  E8F9FB            call 0xa6f8
0000AAFF  8B440F            mov ax,[si+0xf]
0000AB02  894411            mov [si+0x11],ax
0000AB05  8B4413            mov ax,[si+0x13]
0000AB08  894415            mov [si+0x15],ax
0000AB0B  C3                ret
0000AB0C  BFC05C            mov di,0x5cc0
0000AB0F  AC                lodsb
0000AB10  32E4              xor ah,ah
0000AB12  03F8              add di,ax
0000AB14  AC                lodsb
0000AB15  F626018E          mul byte [0x8e01]
0000AB19  03F8              add di,ax
0000AB1B  8A26088E          mov ah,[0x8e08]
0000AB1F  F6060B8EFF        test byte [0x8e0b],0xff
0000AB24  7414              jz 0xab3a
0000AB26  56                push si
0000AB27  57                push di
0000AB28  51                push cx
0000AB29  E82CDB            call 0x8658
0000AB2C  D1EA              shr dx,1
0000AB2E  81E20300          and dx,0x3
0000AB32  80C243            add dl,0x43
0000AB35  59                pop cx
0000AB36  5F                pop di
0000AB37  5E                pop si
0000AB38  8AE2              mov ah,dl
0000AB3A  8825              mov [di],ah
0000AB3C  E2CE              loop 0xab0c
0000AB3E  C3                ret
0000AB3F  33C9              xor cx,cx
0000AB41  57                push di
0000AB42  D1E8              shr ax,1
0000AB44  7314              jnc 0xab5a
0000AB46  50                push ax
0000AB47  8A04              mov al,[si]
0000AB49  E88401            call 0xacd0
0000AB4C  AA                stosb
0000AB4D  8A4401            mov al,[si+0x1]
0000AB50  E88D01            call 0xace0
0000AB53  AA                stosb
0000AB54  58                pop ax
0000AB55  41                inc cx
0000AB56  0BC0              or ax,ax
0000AB58  7405              jz 0xab5f
0000AB5A  83C602            add si,byte +0x2
0000AB5D  EBE3              jmp short 0xab42
0000AB5F  5E                pop si
0000AB60  884CFF            mov [si-0x1],cl
0000AB63  C3                ret
0000AB64  8BD6              mov dx,si
0000AB66  A0DD8D            mov al,[0x8ddd]
0000AB69  B405              mov ah,0x5
0000AB6B  F6E4              mul ah
0000AB6D  8BF0              mov si,ax
0000AB6F  81C6D663          add si,0x63d6
0000AB73  32E4              xor ah,ah
0000AB75  AC                lodsb
0000AB76  A2018E            mov [0x8e01],al
0000AB79  48                dec ax
0000AB7A  D1E0              shl ax,1
0000AB7C  D1E0              shl ax,1
0000AB7E  D1E0              shl ax,1
0000AB80  D1E0              shl ax,1
0000AB82  A3048E            mov [0x8e04],ax
0000AB85  33C0              xor ax,ax
0000AB87  AC                lodsb
0000AB88  A2008E            mov [0x8e00],al
0000AB8B  AC                lodsb
0000AB8C  A2DB8D            mov [0x8ddb],al
0000AB8F  AC                lodsb
0000AB90  F606D98DFF        test byte [0x8dd9],0xff
0000AB95  7503              jnz 0xab9a
0000AB97  A2DB8D            mov [0x8ddb],al
0000AB9A  AC                lodsb
0000AB9B  A2FE8D            mov [0x8dfe],al
0000AB9E  B303              mov bl,0x3
0000ABA0  B403              mov ah,0x3
0000ABA2  3C55              cmp al,0x55
0000ABA4  7418              jz 0xabbe
0000ABA6  80C302            add bl,0x2
0000ABA9  3C58              cmp al,0x58
0000ABAB  7411              jz 0xabbe
0000ABAD  80C302            add bl,0x2
0000ABB0  B401              mov ah,0x1
0000ABB2  3C5B              cmp al,0x5b
0000ABB4  7408              jz 0xabbe
0000ABB6  B404              mov ah,0x4
0000ABB8  3C6D              cmp al,0x6d
0000ABBA  7402              jz 0xabbe
0000ABBC  32E4              xor ah,ah
0000ABBE  8826098E          mov [0x8e09],ah
0000ABC2  881EFF8D          mov [0x8dff],bl
0000ABC6  8BF2              mov si,dx
0000ABC8  A0008E            mov al,[0x8e00]
0000ABCB  F626018E          mul byte [0x8e01]
0000ABCF  A3028E            mov [0x8e02],ax
0000ABD2  33C9              xor cx,cx
0000ABD4  32E4              xor ah,ah
0000ABD6  32C0              xor al,al
0000ABD8  50                push ax
0000ABD9  E81700            call 0xabf3
0000ABDC  52                push dx
0000ABDD  E81F00            call 0xabff
0000ABE0  5A                pop dx
0000ABE1  58                pop ax
0000ABE2  41                inc cx
0000ABE3  40                inc ax
0000ABE4  3A06018E          cmp al,[0x8e01]
0000ABE8  72EE              jc 0xabd8
0000ABEA  FEC4              inc ah
0000ABEC  3A26008E          cmp ah,[0x8e00]
0000ABF0  72E4              jc 0xabd6
0000ABF2  C3                ret
0000ABF3  F7C10700          test cx,0x7
0000ABF7  7503              jnz 0xabfc
0000ABF9  8A14              mov dl,[si]
0000ABFB  46                inc si
0000ABFC  D0E2              shl dl,1
0000ABFE  C3                ret
0000ABFF  9C                pushf
0000AC00  E8CD00            call 0xacd0
0000AC03  8AD8              mov bl,al
0000AC05  8AC4              mov al,ah
0000AC07  E8D600            call 0xace0
0000AC0A  F626018E          mul byte [0x8e01]
0000AC0E  32FF              xor bh,bh
0000AC10  03D8              add bx,ax
0000AC12  B440              mov ah,0x40
0000AC14  9D                popf
0000AC15  732A              jnc 0xac41
0000AC17  51                push cx
0000AC18  53                push bx
0000AC19  E83CDA            call 0x8658
0000AC1C  803E098E00        cmp byte [0x8e09],0x0
0000AC21  750B              jnz 0xac2e
0000AC23  B472              mov ah,0x72
0000AC25  80E606            and dh,0x6
0000AC28  7515              jnz 0xac3f
0000AC2A  B454              mov ah,0x54
0000AC2C  EB11              jmp short 0xac3f
0000AC2E  D1EA              shr dx,1
0000AC30  D1EA              shr dx,1
0000AC32  8BC2              mov ax,dx
0000AC34  251F00            and ax,0x1f
0000AC37  F636098E          div byte [0x8e09]
0000AC3B  0226FE8D          add ah,[0x8dfe]
0000AC3F  5B                pop bx
0000AC40  59                pop cx
0000AC41  88A7C05C          mov [bx+0x5cc0],ah
0000AC45  C3                ret
0000AC46  F606E08DFF        test byte [0x8de0],0xff
0000AC4B  741B              jz 0xac68
0000AC4D  E88000            call 0xacd0
0000AC50  8A26088E          mov ah,[0x8e08]
0000AC54  80FC71            cmp ah,0x71
0000AC57  7410              jz 0xac69
0000AC59  80FC5E            cmp ah,0x5e
0000AC5C  740D              jz 0xac6b
0000AC5E  80FC68            cmp ah,0x68
0000AC61  7408              jz 0xac6b
0000AC63  80FC62            cmp ah,0x62
0000AC66  7405              jz 0xac6d
0000AC68  C3                ret
0000AC69  FEC8              dec al
0000AC6B  FEC8              dec al
0000AC6D  FEC8              dec al
0000AC6F  C3                ret
0000AC70  F606DF8DFF        test byte [0x8ddf],0xff
0000AC75  7420              jz 0xac97
0000AC77  E86600            call 0xace0
0000AC7A  8A26088E          mov ah,[0x8e08]
0000AC7E  80FC5E            cmp ah,0x5e
0000AC81  7415              jz 0xac98
0000AC83  80FC68            cmp ah,0x68
0000AC86  7410              jz 0xac98
0000AC88  80FC71            cmp ah,0x71
0000AC8B  740B              jz 0xac98
0000AC8D  80FC62            cmp ah,0x62
0000AC90  7408              jz 0xac9a
0000AC92  80FC66            cmp ah,0x66
0000AC95  7403              jz 0xac9a
0000AC97  C3                ret
0000AC98  FEC8              dec al
0000AC9A  FEC8              dec al
0000AC9C  C3                ret
0000AC9D  F606E08DFF        test byte [0x8de0],0xff
0000ACA2  7412              jz 0xacb6
0000ACA4  3C51              cmp al,0x51
0000ACA6  7505              jnz 0xacad
0000ACA8  C606088E53        mov byte [0x8e08],0x53
0000ACAD  3C53              cmp al,0x53
0000ACAF  7505              jnz 0xacb6
0000ACB1  C606088E51        mov byte [0x8e08],0x51
0000ACB6  F606DF8DFF        test byte [0x8ddf],0xff
0000ACBB  7412              jz 0xaccf
0000ACBD  3C52              cmp al,0x52
0000ACBF  7505              jnz 0xacc6
0000ACC1  C606088E50        mov byte [0x8e08],0x50
0000ACC6  3C50              cmp al,0x50
0000ACC8  7505              jnz 0xaccf
0000ACCA  C606088E52        mov byte [0x8e08],0x52
0000ACCF  C3                ret
0000ACD0  F606E08DFF        test byte [0x8de0],0xff
0000ACD5  7408              jz 0xacdf
0000ACD7  2A06018E          sub al,[0x8e01]
0000ACDB  FEC0              inc al
0000ACDD  F6D8              neg al
0000ACDF  C3                ret
0000ACE0  F606DF8DFF        test byte [0x8ddf],0xff
0000ACE5  7408              jz 0xacef
0000ACE7  2A06008E          sub al,[0x8e00]
0000ACEB  FEC0              inc al
0000ACED  F6D8              neg al
0000ACEF  C3                ret
0000ACF0  8B36E88D          mov si,[0x8de8]
0000ACF4  AC                lodsb
0000ACF5  3C40              cmp al,0x40
0000ACF7  74F6              jz 0xacef
0000ACF9  7224              jc 0xad1f
0000ACFB  A2088E            mov [0x8e08],al
0000ACFE  E89CFF            call 0xac9d
0000AD01  3C73              cmp al,0x73
0000AD03  75EF              jnz 0xacf4
0000AD05  803EDD8D01        cmp byte [0x8ddd],0x1
0000AD0A  74E8              jz 0xacf4
0000AD0C  8A04              mov al,[si]
0000AD0E  E8BFFF            call 0xacd0
0000AD11  A2068E            mov [0x8e06],al
0000AD14  8A4401            mov al,[si+0x1]
0000AD17  E8C6FF            call 0xace0
0000AD1A  A2078E            mov [0x8e07],al
0000AD1D  EBD5              jmp short 0xacf4
0000AD1F  BFC05C            mov di,0x5cc0
0000AD22  E821FF            call 0xac46
0000AD25  32E4              xor ah,ah
0000AD27  03F8              add di,ax
0000AD29  AC                lodsb
0000AD2A  E843FF            call 0xac70
0000AD2D  F626018E          mul byte [0x8e01]
0000AD31  03F8              add di,ax
0000AD33  A0088E            mov al,[0x8e08]
0000AD36  3C77              cmp al,0x77
0000AD38  750A              jnz 0xad44
0000AD3A  E81BD9            call 0x8658
0000AD3D  80E660            and dh,0x60
0000AD40  B040              mov al,0x40
0000AD42  75B0              jnz 0xacf4
0000AD44  8805              mov [di],al
0000AD46  BB328E            mov bx,0x8e32
0000AD49  8A07              mov al,[bx]
0000AD4B  0AC0              or al,al
0000AD4D  74A5              jz 0xacf4
0000AD4F  3A06088E          cmp al,[0x8e08]
0000AD53  7405              jz 0xad5a
0000AD55  83C303            add bx,byte +0x3
0000AD58  EBEF              jmp short 0xad49
0000AD5A  8B5F01            mov bx,[bx+0x1]
0000AD5D  8A17              mov dl,[bx]
0000AD5F  0AD2              or dl,dl
0000AD61  7491              jz 0xacf4
0000AD63  32E4              xor ah,ah
0000AD65  8A4701            mov al,[bx+0x1]
0000AD68  8BE8              mov bp,ax
0000AD6A  8A4702            mov al,[bx+0x2]
0000AD6D  F626018E          mul byte [0x8e01]
0000AD71  03E8              add bp,ax
0000AD73  8813              mov [bp+di],dl
0000AD75  83C303            add bx,byte +0x3
0000AD78  EBE3              jmp short 0xad5d
0000AD7A  59                pop cx
0000AD7B  81F983AB          cmp cx,0xab83
0000AD7F  741B              jz 0xad9c
0000AD81  FFE1              jmp cx
0000AD83  8B4F0C            mov cx,[bx+0xc]
0000AD86  FE4F0E            dec byte [bx+0xe]
0000AD89  E0FB              loopne 0xad86
0000AD8B  E3ED              jcxz 0xad7a
0000AD8D  51                push cx
0000AD8E  8B5706            mov dx,[bx+0x6]
0000AD91  8B4F0A            mov cx,[bx+0xa]
0000AD94  2B4F08            sub cx,[bx+0x8]
0000AD97  D1E9              shr cx,1
0000AD99  8B7708            mov si,[bx+0x8]
0000AD9C  D1CA              ror dx,1
0000AD9E  AD                lodsw
0000AD9F  03D0              add dx,ax
0000ADA1  E2F9              loop 0xad9c
0000ADA3  58                pop ax
0000ADA4  2B5704            sub dx,[bx+0x4]
0000ADA7  74D1              jz 0xad7a
0000ADA9  C7069EABAB00      mov word [0xab9e],0xab
0000ADAF  EBE8              jmp short 0xad99
0000ADB1  C3                ret
0000ADB2  BE0C8E            mov si,0x8e0c
0000ADB5  8A16DD8D          mov dl,[0x8ddd]
0000ADB9  8A36DE8D          mov dh,[0x8dde]
0000ADBD  B90900            mov cx,0x9
0000ADC0  8B1E308E          mov bx,[0x8e30]
0000ADC4  80C347            add bl,0x47
0000ADC7  80FA01            cmp dl,0x1
0000ADCA  7501              jnz 0xadcd
0000ADCC  4B                dec bx
0000ADCD  3B14              cmp dx,[si]
0000ADCF  7503              jnz 0xadd4
0000ADD1  E80600            call 0xadda
0000ADD4  83C604            add si,byte +0x4
0000ADD7  E2F4              loop 0xadcd
0000ADD9  C3                ret
0000ADDA  BFC05C            mov di,0x5cc0
0000ADDD  8A4402            mov al,[si+0x2]
0000ADE0  E8EDFE            call 0xacd0
0000ADE3  32E4              xor ah,ah
0000ADE5  03F8              add di,ax
0000ADE7  8A4403            mov al,[si+0x3]
0000ADEA  E8F3FE            call 0xace0
0000ADED  F626018E          mul byte [0x8e01]
0000ADF1  03F8              add di,ax
0000ADF3  881D              mov [di],bl
0000ADF5  4B                dec bx
0000ADF6  C3                ret
0000ADF7  FA                cli
0000ADF8  33C0              xor ax,ax
0000ADFA  8EC0              mov es,ax
0000ADFC  B90001            mov cx,0x100
0000ADFF  33FF              xor di,di
0000AE01  FC                cld
0000AE02  33C0              xor ax,ax
0000AE04  AB                stosw
0000AE05  B84000            mov ax,0x40
0000AE08  AB                stosw
0000AE09  E2F7              loop 0xae02
0000AE0B  B88386            mov ax,0x8683
0000AE0E  BFEC03            mov di,0x3ec
0000AE11  AB                stosw
0000AE12  B84000            mov ax,0x40
0000AE15  AB                stosw
0000AE16  5D                pop bp
0000AE17  33FF              xor di,di
0000AE19  33F6              xor si,si
0000AE1B  8EC0              mov es,ax
0000AE1D  B9A9AD            mov cx,0xada9
0000AE20  F3A4              rep movsb
0000AE22  8ED8              mov ds,ax
0000AE24  8ED0              mov ss,ax
0000AE26  50                push ax
0000AE27  55                push bp
0000AE28  FB                sti
0000AE29  CB                retf
0000AE2A  BEC05C            mov si,0x5cc0
0000AE2D  33FF              xor di,di
0000AE2F  8B16048E          mov dx,[0x8e04]
0000AE33  BB3689            mov bx,0x8936
0000AE36  32E4              xor ah,ah
0000AE38  32C0              xor al,al
0000AE3A  50                push ax
0000AE3B  AC                lodsb
0000AE3C  3C72              cmp al,0x72
0000AE3E  7222              jc 0xae62
0000AE40  7502              jnz 0xae44
0000AE42  B040              mov al,0x40
0000AE44  3C78              cmp al,0x78
0000AE46  7502              jnz 0xae4a
0000AE48  B040              mov al,0x40
0000AE4A  3C73              cmp al,0x73
0000AE4C  7502              jnz 0xae50
0000AE4E  B040              mov al,0x40
0000AE50  3C74              cmp al,0x74
0000AE52  7502              jnz 0xae56
0000AE54  B055              mov al,0x55
0000AE56  3C75              cmp al,0x75
0000AE58  7502              jnz 0xae5c
0000AE5A  B058              mov al,0x58
0000AE5C  3C76              cmp al,0x76
0000AE5E  7502              jnz 0xae62
0000AE60  B05B              mov al,0x5b
0000AE62  3C71              cmp al,0x71
0000AE64  7502              jnz 0xae68
0000AE66  B068              mov al,0x68
0000AE68  56                push si
0000AE69  E82200            call 0xae8e
0000AE6C  5E                pop si
0000AE6D  58                pop ax
0000AE6E  83C710            add di,byte +0x10
0000AE71  40                inc ax
0000AE72  3A06018E          cmp al,[0x8e01]
0000AE76  72C2              jc 0xae3a
0000AE78  83C730            add di,byte +0x30
0000AE7B  03FA              add di,dx
0000AE7D  03FA              add di,dx
0000AE7F  03FA              add di,dx
0000AE81  FEC4              inc ah
0000AE83  3A26008E          cmp ah,[0x8e00]
0000AE87  72AF              jc 0xae38
0000AE89  8CC8              mov ax,cs
0000AE8B  8EC0              mov es,ax
0000AE8D  C3                ret
0000AE8E  BE7009            mov si,0x970
0000AE91  2C40              sub al,0x40
0000AE93  32E4              xor ah,ah
0000AE95  D1E0              shl ax,1
0000AE97  D1E0              shl ax,1
0000AE99  D1E0              shl ax,1
0000AE9B  D1E0              shl ax,1
0000AE9D  D1E0              shl ax,1
0000AE9F  D1E0              shl ax,1
0000AEA1  03F0              add si,ax
0000AEA3  D1E0              shl ax,1
0000AEA5  03F0              add si,ax
0000AEA7  8E07              mov es,[bx]
0000AEA9  8BEF              mov bp,di
0000AEAB  B90800            mov cx,0x8
0000AEAE  F3A5              rep movsw
0000AEB0  03FA              add di,dx
0000AEB2  B90800            mov cx,0x8
0000AEB5  F3A5              rep movsw
0000AEB7  03FA              add di,dx
0000AEB9  B90800            mov cx,0x8
0000AEBC  F3A5              rep movsw
0000AEBE  03FA              add di,dx
0000AEC0  B90800            mov cx,0x8
0000AEC3  F3A5              rep movsw
0000AEC5  8BFD              mov di,bp
0000AEC7  8E4702            mov es,[bx+0x2]
0000AECA  B90800            mov cx,0x8
0000AECD  F3A5              rep movsw
0000AECF  03FA              add di,dx
0000AED1  B90800            mov cx,0x8
0000AED4  F3A5              rep movsw
0000AED6  03FA              add di,dx
0000AED8  B90800            mov cx,0x8
0000AEDB  F3A5              rep movsw
0000AEDD  03FA              add di,dx
0000AEDF  B90800            mov cx,0x8
0000AEE2  F3A5              rep movsw
0000AEE4  8BFD              mov di,bp
0000AEE6  8E4704            mov es,[bx+0x4]
0000AEE9  B90800            mov cx,0x8
0000AEEC  F3A5              rep movsw
0000AEEE  03FA              add di,dx
0000AEF0  B90800            mov cx,0x8
0000AEF3  F3A5              rep movsw
0000AEF5  03FA              add di,dx
0000AEF7  B90800            mov cx,0x8
0000AEFA  F3A5              rep movsw
0000AEFC  03FA              add di,dx
0000AEFE  B90800            mov cx,0x8
0000AF01  F3A5              rep movsw
0000AF03  8BFD              mov di,bp
0000AF05  8CC9              mov cx,cs
0000AF07  8EC1              mov es,cx
0000AF09  C3                ret
0000AF0A  BE4E89            mov si,0x894e
0000AF0D  BA0703            mov dx,0x307
0000AF10  F6064E89FF        test byte [0x894e],0xff
0000AF15  7803              js 0xaf1a
0000AF17  E80E00            call 0xaf28
0000AF1A  BA0605            mov dx,0x506
0000AF1D  BE8389            mov si,0x8983
0000AF20  F6068389FF        test byte [0x8983],0xff
0000AF25  7901              jns 0xaf28
0000AF27  C3                ret
0000AF28  F64428FF          test byte [si+0x28],0xff
0000AF2C  7501              jnz 0xaf2f
0000AF2E  C3                ret
0000AF2F  FE4C28            dec byte [si+0x28]
0000AF32  833ECF8D00        cmp word [0x8dcf],byte +0x0
0000AF37  7405              jz 0xaf3e
0000AF39  F604FF            test byte [si],0xff
0000AF3C  753D              jnz 0xaf7b
0000AF3E  FF4403            inc word [si+0x3]
0000AF41  837C03FF          cmp word [si+0x3],byte -0x1
0000AF45  7503              jnz 0xaf4a
0000AF47  FF4C03            dec word [si+0x3]
0000AF4A  8D5C0A            lea bx,[si+0xa]
0000AF4D  B90500            mov cx,0x5
0000AF50  4B                dec bx
0000AF51  FE07              inc byte [bx]
0000AF53  803F3A            cmp byte [bx],0x3a
0000AF56  7523              jnz 0xaf7b
0000AF58  C60730            mov byte [bx],0x30
0000AF5B  83F904            cmp cx,byte +0x4
0000AF5E  7509              jnz 0xaf69
0000AF60  807C260F          cmp byte [si+0x26],0xf
0000AF64  7303              jnc 0xaf69
0000AF66  FE4426            inc byte [si+0x26]
0000AF69  E2E5              loop 0xaf50
0000AF6B  8A4401            mov al,[si+0x1]
0000AF6E  8A5C02            mov bl,[si+0x2]
0000AF71  32E4              xor ah,ah
0000AF73  32FF              xor bh,bh
0000AF75  BEA58C            mov si,0x8ca5
0000AF78  E97CD5            jmp 0x84f7
0000AF7B  56                push si
0000AF7C  E835D5            call 0x84b4
0000AF7F  5E                pop si
0000AF80  8A4401            mov al,[si+0x1]
0000AF83  8A5C02            mov bl,[si+0x2]
0000AF86  32E4              xor ah,ah
0000AF88  32FF              xor bh,bh
0000AF8A  8D7404            lea si,[si+0x4]
0000AF8D  B90500            mov cx,0x5
0000AF90  46                inc si
0000AF91  803C30            cmp byte [si],0x30
0000AF94  E1FA              loope 0xaf90
0000AF96  E95ED5            jmp 0x84f7
0000AF99  4C                dec sp
0000AF9A  41                inc cx
0000AF9B  53                push bx
0000AF9C  54                push sp
0000AF9D  B558              mov ch,0x58
0000AF9F  A5                movsw
0000AFA0  F9                stc
0000AFA1  D2811987          rol byte [bx+di-0x78e7],cl
0000AFA5  AF                scasw
0000AFA6  00C3              add bl,al
