00014F5B  4D                dec bp
00014F5C  5A                pop dx
00014F5D  A90158            test ax,0x5801
00014F60  0000              add [bx+si],al
00014F62  0020              add [bx+si],ah
00014F64  0000              add [bx+si],al
00014F66  00FF              add bh,bh
00014F68  FF00              inc word [bx+si]
00014F6A  0000              add [bx+si],al
00014F6C  009A22DB          add [bp+si-0x24de],bl
00014F70  8E00              mov es,[bx+si]
00014F72  001C              add [si],bl
00014F74  0000              add [bx+si],al
00014F76  0000              add [bx+si],al
00014F78  0000              add [bx+si],al
00014F7A  0000              add [bx+si],al
00014F7C  0000              add [bx+si],al
00014F7E  0000              add [bx+si],al
00014F80  0000              add [bx+si],al
00014F82  0000              add [bx+si],al
00014F84  0000              add [bx+si],al
00014F86  0000              add [bx+si],al
00014F88  0000              add [bx+si],al
00014F8A  0000              add [bx+si],al
00014F8C  0000              add [bx+si],al
00014F8E  0000              add [bx+si],al
00014F90  0000              add [bx+si],al
00014F92  0000              add [bx+si],al
00014F94  0000              add [bx+si],al
00014F96  0000              add [bx+si],al
00014F98  0000              add [bx+si],al
00014F9A  0000              add [bx+si],al
00014F9C  0000              add [bx+si],al
00014F9E  0000              add [bx+si],al
00014FA0  0000              add [bx+si],al
00014FA2  0000              add [bx+si],al
00014FA4  0000              add [bx+si],al
00014FA6  0000              add [bx+si],al
00014FA8  0000              add [bx+si],al
00014FAA  0000              add [bx+si],al
00014FAC  0000              add [bx+si],al
00014FAE  0000              add [bx+si],al
00014FB0  0000              add [bx+si],al
00014FB2  0000              add [bx+si],al
00014FB4  0000              add [bx+si],al
00014FB6  0000              add [bx+si],al
00014FB8  0000              add [bx+si],al
00014FBA  0000              add [bx+si],al
00014FBC  0000              add [bx+si],al
00014FBE  0000              add [bx+si],al
00014FC0  0000              add [bx+si],al
00014FC2  0000              add [bx+si],al
00014FC4  0000              add [bx+si],al
00014FC6  0000              add [bx+si],al
00014FC8  0000              add [bx+si],al
00014FCA  0000              add [bx+si],al
00014FCC  0000              add [bx+si],al
00014FCE  0000              add [bx+si],al
00014FD0  0000              add [bx+si],al
00014FD2  0000              add [bx+si],al
00014FD4  0000              add [bx+si],al
00014FD6  0000              add [bx+si],al
00014FD8  0000              add [bx+si],al
00014FDA  0000              add [bx+si],al
00014FDC  0000              add [bx+si],al
00014FDE  0000              add [bx+si],al
00014FE0  0000              add [bx+si],al
00014FE2  0000              add [bx+si],al
00014FE4  0000              add [bx+si],al
00014FE6  0000              add [bx+si],al
00014FE8  0000              add [bx+si],al
00014FEA  0000              add [bx+si],al
00014FEC  0000              add [bx+si],al
00014FEE  0000              add [bx+si],al
00014FF0  0000              add [bx+si],al
00014FF2  0000              add [bx+si],al
00014FF4  0000              add [bx+si],al
00014FF6  0000              add [bx+si],al
00014FF8  0000              add [bx+si],al
00014FFA  0000              add [bx+si],al
00014FFC  0000              add [bx+si],al
00014FFE  0000              add [bx+si],al
00015000  0000              add [bx+si],al
00015002  0000              add [bx+si],al
00015004  0000              add [bx+si],al
00015006  0000              add [bx+si],al
00015008  0000              add [bx+si],al
0001500A  0000              add [bx+si],al
0001500C  0000              add [bx+si],al
0001500E  0000              add [bx+si],al
00015010  0000              add [bx+si],al
00015012  0000              add [bx+si],al
00015014  0000              add [bx+si],al
00015016  0000              add [bx+si],al
00015018  0000              add [bx+si],al
0001501A  0000              add [bx+si],al
0001501C  0000              add [bx+si],al
0001501E  0000              add [bx+si],al
00015020  0000              add [bx+si],al
00015022  0000              add [bx+si],al
00015024  0000              add [bx+si],al
00015026  0000              add [bx+si],al
00015028  0000              add [bx+si],al
0001502A  0000              add [bx+si],al
0001502C  0000              add [bx+si],al
0001502E  0000              add [bx+si],al
00015030  0000              add [bx+si],al
00015032  0000              add [bx+si],al
00015034  0000              add [bx+si],al
00015036  0000              add [bx+si],al
00015038  0000              add [bx+si],al
0001503A  0000              add [bx+si],al
0001503C  0000              add [bx+si],al
0001503E  0000              add [bx+si],al
00015040  0000              add [bx+si],al
00015042  0000              add [bx+si],al
00015044  0000              add [bx+si],al
00015046  0000              add [bx+si],al
00015048  0000              add [bx+si],al
0001504A  0000              add [bx+si],al
0001504C  0000              add [bx+si],al
0001504E  0000              add [bx+si],al
00015050  0000              add [bx+si],al
00015052  0000              add [bx+si],al
00015054  0000              add [bx+si],al
00015056  0000              add [bx+si],al
00015058  0000              add [bx+si],al
0001505A  0000              add [bx+si],al
0001505C  0000              add [bx+si],al
0001505E  0000              add [bx+si],al
00015060  0000              add [bx+si],al
00015062  0000              add [bx+si],al
00015064  0000              add [bx+si],al
00015066  0000              add [bx+si],al
00015068  0000              add [bx+si],al
0001506A  0000              add [bx+si],al
0001506C  0000              add [bx+si],al
0001506E  0000              add [bx+si],al
00015070  0000              add [bx+si],al
00015072  0000              add [bx+si],al
00015074  0000              add [bx+si],al
00015076  0000              add [bx+si],al
00015078  0000              add [bx+si],al
0001507A  0000              add [bx+si],al
0001507C  0000              add [bx+si],al
0001507E  0000              add [bx+si],al
00015080  0000              add [bx+si],al
00015082  0000              add [bx+si],al
00015084  0000              add [bx+si],al
00015086  0000              add [bx+si],al
00015088  0000              add [bx+si],al
0001508A  0000              add [bx+si],al
0001508C  0000              add [bx+si],al
0001508E  0000              add [bx+si],al
00015090  0000              add [bx+si],al
00015092  0000              add [bx+si],al
00015094  0000              add [bx+si],al
00015096  0000              add [bx+si],al
00015098  0000              add [bx+si],al
0001509A  0000              add [bx+si],al
0001509C  0000              add [bx+si],al
0001509E  0000              add [bx+si],al
000150A0  0000              add [bx+si],al
000150A2  0000              add [bx+si],al
000150A4  0000              add [bx+si],al
000150A6  0000              add [bx+si],al
000150A8  0000              add [bx+si],al
000150AA  0000              add [bx+si],al
000150AC  0000              add [bx+si],al
000150AE  0000              add [bx+si],al
000150B0  0000              add [bx+si],al
000150B2  0000              add [bx+si],al
000150B4  0000              add [bx+si],al
000150B6  0000              add [bx+si],al
000150B8  0000              add [bx+si],al
000150BA  0000              add [bx+si],al
000150BC  0000              add [bx+si],al
000150BE  0000              add [bx+si],al
000150C0  0000              add [bx+si],al
000150C2  0000              add [bx+si],al
000150C4  0000              add [bx+si],al
000150C6  0000              add [bx+si],al
000150C8  0000              add [bx+si],al
000150CA  0000              add [bx+si],al
000150CC  0000              add [bx+si],al
000150CE  0000              add [bx+si],al
000150D0  0000              add [bx+si],al
000150D2  0000              add [bx+si],al
000150D4  0000              add [bx+si],al
000150D6  0000              add [bx+si],al
000150D8  0000              add [bx+si],al
000150DA  0000              add [bx+si],al
000150DC  0000              add [bx+si],al
000150DE  0000              add [bx+si],al
000150E0  0000              add [bx+si],al
000150E2  0000              add [bx+si],al
000150E4  0000              add [bx+si],al
000150E6  0000              add [bx+si],al
000150E8  0000              add [bx+si],al
000150EA  0000              add [bx+si],al
000150EC  0000              add [bx+si],al
000150EE  0000              add [bx+si],al
000150F0  0000              add [bx+si],al
000150F2  0000              add [bx+si],al
000150F4  0000              add [bx+si],al
000150F6  0000              add [bx+si],al
000150F8  0000              add [bx+si],al
000150FA  0000              add [bx+si],al
000150FC  0000              add [bx+si],al
000150FE  0000              add [bx+si],al
00015100  0000              add [bx+si],al
00015102  0000              add [bx+si],al
00015104  0000              add [bx+si],al
00015106  0000              add [bx+si],al
00015108  0000              add [bx+si],al
0001510A  0000              add [bx+si],al
0001510C  0000              add [bx+si],al
0001510E  0000              add [bx+si],al
00015110  0000              add [bx+si],al
00015112  0000              add [bx+si],al
00015114  0000              add [bx+si],al
00015116  0000              add [bx+si],al
00015118  0000              add [bx+si],al
0001511A  0000              add [bx+si],al
0001511C  0000              add [bx+si],al
0001511E  0000              add [bx+si],al
00015120  0000              add [bx+si],al
00015122  0000              add [bx+si],al
00015124  0000              add [bx+si],al
00015126  0000              add [bx+si],al
00015128  0000              add [bx+si],al
0001512A  0000              add [bx+si],al
0001512C  0000              add [bx+si],al
0001512E  0000              add [bx+si],al
00015130  0000              add [bx+si],al
00015132  0000              add [bx+si],al
00015134  0000              add [bx+si],al
00015136  0000              add [bx+si],al
00015138  0000              add [bx+si],al
0001513A  0000              add [bx+si],al
0001513C  0000              add [bx+si],al
0001513E  0000              add [bx+si],al
00015140  0000              add [bx+si],al
00015142  0000              add [bx+si],al
00015144  0000              add [bx+si],al
00015146  0000              add [bx+si],al
00015148  0000              add [bx+si],al
0001514A  0000              add [bx+si],al
0001514C  0000              add [bx+si],al
0001514E  0000              add [bx+si],al
00015150  0000              add [bx+si],al
00015152  0000              add [bx+si],al
00015154  0000              add [bx+si],al
00015156  0000              add [bx+si],al
00015158  0000              add [bx+si],al
0001515A  00CF              add bh,cl
0001515C  0100              add [bx+si],ax
0001515E  1400              adc al,0x0
00015160  0800              or [bx+si],al
00015162  0100              add [bx+si],ax
00015164  3C00              cmp al,0x0
00015166  FE                db 0xfe
00015167  FF960002          call [bp+0x200]
0001516B  0005              add [di],al
0001516D  00FA              add dl,bh
0001516F  0000              add [bx+si],al
00015171  00FD              add ch,bh
00015173  FF0F              dec word [bx]
00015175  0002              add [bp+si],al
00015177  0032              add [bp+si],dh
00015179  0000              add [bx+si],al
0001517B  0000              add [bx+si],al
0001517D  0001              add [bx+di],al
0001517F  001E0028          add [0x2800],bl
00015183  0000              add [bx+si],al
00015185  0000              add [bx+si],al
00015187  0001              add [bx+di],al
00015189  0028              add [bx+si],ch
0001518B  001E0000          add [0x0],bl
0001518F  0000              add [bx+si],al
00015191  0001              add [bx+di],al
00015193  003C              add [si],bh
00015195  0014              add [si],dl
00015197  00FF              add bh,bh
00015199  FF00              inc word [bx+si]
0001519B  000A              add [bp+si],cl
0001519D  000B              add [bp+di],cl
0001519F  0008              add [bx+si],cl
000151A1  00FA              add dl,bh
000151A3  FF                db 0xff
000151A4  FF                db 0xff
000151A5  FF0E0057          dec word [0x5700]
000151A9  0018              add [bx+si],bl
000151AB  0000              add [bx+si],al
000151AD  0000              add [bx+si],al
000151AF  0000              add [bx+si],al
000151B1  0000              add [bx+si],al
000151B3  0000              add [bx+si],al
000151B5  0000              add [bx+si],al
000151B7  0000              add [bx+si],al
000151B9  0000              add [bx+si],al
000151BB  0000              add [bx+si],al
000151BD  0000              add [bx+si],al
000151BF  0000              add [bx+si],al
000151C1  0000              add [bx+si],al
000151C3  0000              add [bx+si],al
000151C5  0000              add [bx+si],al
000151C7  0000              add [bx+si],al
000151C9  0000              add [bx+si],al
000151CB  0000              add [bx+si],al
000151CD  0000              add [bx+si],al
000151CF  0000              add [bx+si],al
000151D1  0000              add [bx+si],al
000151D3  0000              add [bx+si],al
000151D5  0000              add [bx+si],al
000151D7  0000              add [bx+si],al
000151D9  0000              add [bx+si],al
000151DB  0000              add [bx+si],al
000151DD  0000              add [bx+si],al
000151DF  0000              add [bx+si],al
000151E1  0000              add [bx+si],al
000151E3  0000              add [bx+si],al
000151E5  0000              add [bx+si],al
000151E7  0000              add [bx+si],al
000151E9  0000              add [bx+si],al
000151EB  0000              add [bx+si],al
000151ED  0000              add [bx+si],al
000151EF  0000              add [bx+si],al
000151F1  00BF5100          add [bx+0x51],bh
000151F5  B94600            mov cx,0x46
000151F8  32C0              xor al,al
000151FA  F3AA              rep stosb
000151FC  C3                ret
000151FD  57                push di
000151FE  56                push si
000151FF  51                push cx
00015200  B90700            mov cx,0x7
00015203  BF5100            mov di,0x51
00015206  837D0400          cmp word [di+0x4],byte +0x0
0001520A  7407              jz 0x5213
0001520C  83C70A            add di,byte +0xa
0001520F  E2F5              loop 0x5206
00015211  EB14              jmp short 0x5227
00015213  8BC8              mov cx,ax
00015215  D1E0              shl ax,1
00015217  D1E0              shl ax,1
00015219  03C1              add ax,cx
0001521B  D1E0              shl ax,1
0001521D  BE0100            mov si,0x1
00015220  03F0              add si,ax
00015222  B90500            mov cx,0x5
00015225  F3A5              rep movsw
00015227  59                pop cx
00015228  5E                pop si
00015229  5F                pop di
0001522A  C3                ret
0001522B  803EB88D01        cmp byte [0x8db8],0x1
00015230  7401              jz 0x5233
00015232  C3                ret
00015233  BE5100            mov si,0x51
00015236  B90700            mov cx,0x7
00015239  837C0400          cmp word [si+0x4],byte +0x0
0001523D  7419              jz 0x5258
0001523F  FF4C04            dec word [si+0x4]
00015242  8B5406            mov dx,[si+0x6]
00015245  8B5C08            mov bx,[si+0x8]
00015248  51                push cx
00015249  E81200            call 0x525e
0001524C  59                pop cx
0001524D  8B04              mov ax,[si]
0001524F  014406            add [si+0x6],ax
00015252  8B4402            mov ax,[si+0x2]
00015255  014408            add [si+0x8],ax
00015258  83C60A            add si,byte +0xa
0001525B  E2DC              loop 0x5239
0001525D  C3                ret
0001525E  FA                cli
0001525F  B03D              mov al,0x3d
00015261  E63A              out 0x3a,al
00015263  8BCB              mov cx,bx
00015265  E2FE              loop 0x5265
00015267  B035              mov al,0x35
00015269  E63A              out 0x3a,al
0001526B  8BCB              mov cx,bx
0001526D  E2FE              loop 0x526d
0001526F  4A                dec dx
00015270  75EC              jnz 0x525e
00015272  FB                sti
00015273  C3                ret
00015274  0000              add [bx+si],al
00015276  0000              add [bx+si],al
00015278  0000              add [bx+si],al
0001527A  0000              add [bx+si],al
0001527C  0000              add [bx+si],al
0001527E  0000              add [bx+si],al
00015280  0000              add [bx+si],al
00015282  0000              add [bx+si],al
00015284  0000              add [bx+si],al
00015286  0000              add [bx+si],al
00015288  0000              add [bx+si],al
0001528A  0000              add [bx+si],al
0001528C  0000              add [bx+si],al
0001528E  0000              add [bx+si],al
00015290  0000              add [bx+si],al
00015292  003C              add [si],bh
00015294  001E000E          add [0xe00],bl
00015298  000E000C          add [0xc00],cl
0001529C  000C              add [si],cl
0001529E  000C              add [si],cl
000152A0  00060000          add [0x0],al
000152A4  000E000E          add [0xe00],cl
000152A8  0000              add [bx+si],al
000152AA  0039              add [bx+di],bh
000152AC  C039C0            sar byte [bx+di],byte 0xc0
000152AF  10800000          adc [bx+si+0x0],al
000152B3  0000              add [bx+si],al
000152B5  0000              add [bx+si],al
000152B7  0000              add [bx+si],al
000152B9  0000              add [bx+si],al
000152BB  0000              add [bx+si],al
000152BD  0000              add [bx+si],al
000152BF  0000              add [bx+si],al
000152C1  0000              add [bx+si],al
000152C3  0C60              or al,0x60
000152C5  0C60              or al,0x60
000152C7  18C0              sbb al,al
000152C9  7FE0              jg 0x52ab
000152CB  31803180          xor [bx+si-0x7fcf],ax
000152CF  FFC0              inc ax
000152D1  6300              arpl [bx+si],ax
000152D3  C600C6            mov byte [bx+si],0xc6
000152D6  0000              add [bx+si],al
000152D8  0000              add [bx+si],al
000152DA  0012              add [bp+si],dl
000152DC  007F80            add [bx-0x80],bh
000152DF  D2C0              rol al,cl
000152E1  92                xchg ax,dx
000152E2  00D2              add dl,dl
000152E4  007F80            add [bx-0x80],bh
000152E7  12C0              adc al,al
000152E9  1240D2            adc al,[bx+si-0x2e]
000152EC  C07F8012          sar byte [bx-0x80],byte 0x12
000152F0  0000              add [bx+si],al
000152F2  0070C0            add [bx+si-0x40],dh
000152F5  C8C0C980          enter 0xc9c0,0x80
000152F9  7300              jnc 0x52fb
000152FB  06                push es
000152FC  000C              add [si],cl
000152FE  0018              add [bx+si],bl
00015300  0033              add [bp+di],dh
00015302  806640C6          and byte [bp+0x40],0xc6
00015306  40                inc ax
00015307  C3                ret
00015308  800000            add byte [bx+si],0x0
0001530B  7F00              jg 0x530d
0001530D  E180              loope 0x528f
0001530F  C0006C            rol byte [bx+si],byte 0x6c
00015312  0038              add [bx+si],bh
00015314  2060C0            and [bx+si-0x40],ah
00015317  C3                ret
00015318  80C4C0            add ah,0xc0
0001531B  E0C0              loopne 0x52dd
0001531D  FFC0              inc ax
0001531F  7F80              jg 0x52a1
00015321  0000              add [bx+si],al
00015323  1C00              sbb al,0x0
00015325  1C00              sbb al,0x0
00015327  0800              or [bx+si],al
00015329  0000              add [bx+si],al
0001532B  0000              add [bx+si],al
0001532D  0000              add [bx+si],al
0001532F  0000              add [bx+si],al
00015331  0000              add [bx+si],al
00015333  0000              add [bx+si],al
00015335  0000              add [bx+si],al
00015337  0000              add [bx+si],al
00015339  0000              add [bx+si],al
0001533B  07                pop es
0001533C  001C              add [si],bl
0001533E  0030              add [bx+si],dh
00015340  0020              add [bx+si],ah
00015342  006000            add [bx+si+0x0],ah
00015345  60                pusha
00015346  006000            add [bx+si+0x0],ah
00015349  3000              xor [bx+si],al
0001534B  3800              cmp [bx+si],al
0001534D  1E                push ds
0001534E  0007              add [bx],al
00015350  800000            add byte [bx+si],0x0
00015353  3800              cmp [bx+si],al
00015355  0E                push cs
00015356  0003              add [bp+di],al
00015358  0001              add [bx+di],al
0001535A  0001              add [bx+di],al
0001535C  800180            add byte [bx+di],0x80
0001535F  01800300          add [bx+si+0x3],ax
00015363  07                pop es
00015364  001E0078          add [0x7800],bl
00015368  0000              add [bx+si],al
0001536A  0000              add [bx+si],al
0001536C  0033              add [bp+di],dh
0001536E  001E007F          add [0x7f00],bl
00015372  801E003300        sbb byte [0x3300],0x0
00015377  0000              add [bx+si],al
00015379  0000              add [bx+si],al
0001537B  0000              add [bx+si],al
0001537D  0000              add [bx+si],al
0001537F  0000              add [bx+si],al
00015381  0000              add [bx+si],al
00015383  0000              add [bx+si],al
00015385  0E                push cs
00015386  000E000E          add [0xe00],cl
0001538A  00FF              add bh,bh
0001538C  E0FF              loopne 0x538d
0001538E  E00E              loopne 0x539e
00015390  000E000E          add [0xe00],cl
00015394  0000              add [bx+si],al
00015396  0000              add [bx+si],al
00015398  0000              add [bx+si],al
0001539A  0000              add [bx+si],al
0001539C  0000              add [bx+si],al
0001539E  0000              add [bx+si],al
000153A0  0000              add [bx+si],al
000153A2  0000              add [bx+si],al
000153A4  0000              add [bx+si],al
000153A6  0000              add [bx+si],al
000153A8  0000              add [bx+si],al
000153AA  006000            add [bx+si+0x0],ah
000153AD  7000              jo 0x53af
000153AF  60                pusha
000153B0  00C0              add al,al
000153B2  0000              add [bx+si],al
000153B4  0000              add [bx+si],al
000153B6  0000              add [bx+si],al
000153B8  0000              add [bx+si],al
000153BA  00FF              add bh,bh
000153BC  C0FFC0            sar bh,byte 0xc0
000153BF  0000              add [bx+si],al
000153C1  0000              add [bx+si],al
000153C3  0000              add [bx+si],al
000153C5  0000              add [bx+si],al
000153C7  0000              add [bx+si],al
000153C9  0000              add [bx+si],al
000153CB  0000              add [bx+si],al
000153CD  0000              add [bx+si],al
000153CF  0000              add [bx+si],al
000153D1  0000              add [bx+si],al
000153D3  0000              add [bx+si],al
000153D5  0000              add [bx+si],al
000153D7  0000              add [bx+si],al
000153D9  0000              add [bx+si],al
000153DB  3000              xor [bx+si],al
000153DD  7800              js 0x53df
000153DF  3000              xor [bx+si],al
000153E1  0000              add [bx+si],al
000153E3  006000            add [bx+si+0x0],ah
000153E6  E001              loopne 0x53e9
000153E8  C00380            rol byte [bp+di],byte 0x80
000153EB  07                pop es
000153EC  000E001C          add [0x1c00],cl
000153F0  0038              add [bx+si],bh
000153F2  007000            add [bx+si+0x0],dh
000153F5  E000              loopne 0x53f7
000153F7  C00000            rol byte [bx+si],byte 0x0
000153FA  001F              add [bx],bl
000153FC  006300            add [bp+di+0x0],ah
000153FF  C7C0C1C0          mov ax,0xc0c1
00015403  C0C0C0            rol al,byte 0xc0
00015406  C0C0C0            rol al,byte 0xc0
00015409  C0C0E1            rol al,byte 0xe1
0001540C  C07F801E          sar byte [bx-0x80],byte 0x1e
00015410  0000              add [bx+si],al
00015412  0006001E          add [0x1e00],al
00015416  007E00            add [bp+0x0],bh
00015419  0E                push cs
0001541A  000E000E          add [0xe00],cl
0001541E  000E000E          add [0xe00],cl
00015422  000E001F          add [0x1f00],cl
00015426  003F              add [bx],bh
00015428  800000            add byte [bx+si],0x0
0001542B  7FC0              jg 0x53ed
0001542D  80E0C4            and al,0xc4
00015430  60                pusha
00015431  78C0              js 0x53f3
00015433  01800600          add [bx+si+0x6],ax
00015437  1800              sbb [bx+si],al
00015439  60                pusha
0001543A  00C0              add al,al
0001543C  40                inc ax
0001543D  FFE0              jmp ax
0001543F  7FC0              jg 0x5401
00015441  0000              add [bx+si],al
00015443  7FC0              jg 0x5405
00015445  C0E070            shl al,byte 0x70
00015448  60                pusha
00015449  00C0              add al,al
0001544B  07                pop es
0001544C  0001              add [bx+di],al
0001544E  8000C0            add byte [bx+si],0xc0
00015451  40                inc ax
00015452  60                pusha
00015453  E0E0              loopne 0x5435
00015455  FFE0              jmp ax
00015457  7FC0              jg 0x5419
00015459  0000              add [bx+si],al
0001545B  3F                aas
0001545C  801300            adc byte [bp+di],0x0
0001545F  1300              adc ax,[bx+si]
00015461  2300              and ax,[bx+si]
00015463  43                inc bx
00015464  00FF              add bh,bh
00015466  E0FF              loopne 0x5467
00015468  C00300            rol byte [bp+di],byte 0x0
0001546B  0300              add ax,[bx+si]
0001546D  07                pop es
0001546E  000F              add [bx],cl
00015470  800000            add byte [bx+si],0x0
00015473  FFC0              inc ax
00015475  FF00              inc word [bx+si]
00015477  40                inc ax
00015478  004000            add [bx+si+0x0],al
0001547B  FE00              inc byte [bx+si]
0001547D  C3                ret
0001547E  8001C0            add byte [bx+di],0xc0
00015481  00C0              add al,al
00015483  41                inc cx
00015484  C0FFC0            sar bh,byte 0xc0
00015487  7F80              jg 0x5409
00015489  0000              add [bx+si],al
0001548B  1F                pop ds
0001548C  8063C0C0          and byte [bp+di-0x40],0xc0
00015490  80C000            add al,0x0
00015493  DF00              fild word [bx+si]
00015495  E180              loope 0x5417
00015497  C0C0C0            rol al,byte 0xc0
0001549A  C0E1C0            shl cl,byte 0xc0
0001549D  7F80              jg 0x541f
0001549F  1E                push ds
000154A0  0000              add [bx+si],al
000154A2  007FC0            add [bx-0x40],bh
000154A5  FFE0              jmp ax
000154A7  60                pusha
000154A8  C02180            shl byte [bx+di],byte 0x80
000154AB  43                inc bx
000154AC  0003              add [bp+di],al
000154AE  00060006          add [0x600],al
000154B2  00060006          add [0x600],al
000154B6  000F              add [bx],cl
000154B8  0000              add [bx+si],al
000154BA  007F80            add [bx-0x80],bh
000154BD  E1C0              loope 0x547f
000154BF  C0C040            rol al,byte 0x40
000154C2  803F00            cmp byte [bx],0x0
000154C5  40                inc ax
000154C6  8080408040        add byte [bx+si-0x7fc0],0x40
000154CB  C0C0FF            rol al,byte 0xff
000154CE  C07F8000          sar byte [bx-0x80],byte 0x0
000154D2  001E0061          add [0x6100],bl
000154D6  80C0C0            add al,0xc0
000154D9  C0C061            rol al,byte 0x61
000154DC  C03EC000C0        sar byte [0xc0],byte 0xc0
000154E1  00C0              add al,al
000154E3  41                inc cx
000154E4  C0FF80            sar bh,byte 0x80
000154E7  7E00              jng 0x54e9
000154E9  0000              add [bx+si],al
000154EB  0000              add [bx+si],al
000154ED  0000              add [bx+si],al
000154EF  3000              xor [bx+si],al
000154F1  7800              js 0x54f3
000154F3  3000              xor [bx+si],al
000154F5  0000              add [bx+si],al
000154F7  0000              add [bx+si],al
000154F9  0000              add [bx+si],al
000154FB  3000              xor [bx+si],al
000154FD  7800              js 0x54ff
000154FF  3000              xor [bx+si],al
00015501  0000              add [bx+si],al
00015503  0000              add [bx+si],al
00015505  0000              add [bx+si],al
00015507  3000              xor [bx+si],al
00015509  7800              js 0x550b
0001550B  3000              xor [bx+si],al
0001550D  0000              add [bx+si],al
0001550F  0000              add [bx+si],al
00015511  0000              add [bx+si],al
00015513  3000              xor [bx+si],al
00015515  3800              cmp [bx+si],al
00015517  3000              xor [bx+si],al
00015519  60                pusha
0001551A  0000              add [bx+si],al
0001551C  00FE              add dh,bh
0001551E  E0BD              loopne 0x54dd
00015520  20BEA09D          and [bp-0x6260],bh
00015524  204E40            and [bp+0x40],cl
00015527  0400              add al,0x0
00015529  0400              add al,0x0
0001552B  0400              add al,0x0
0001552D  0E                push cs
0001552E  007D40            add [di+0x40],bh
00015531  0000              add [bx+si],al
00015533  0000              add [bx+si],al
00015535  0000              add [bx+si],al
00015537  FFC0              inc ax
00015539  FFC0              inc ax
0001553B  0000              add [bx+si],al
0001553D  0000              add [bx+si],al
0001553F  FFC0              inc ax
00015541  FFC0              inc ax
00015543  0000              add [bx+si],al
00015545  0000              add [bx+si],al
00015547  0000              add [bx+si],al
00015549  0000              add [bx+si],al
0001554B  CE                into
0001554C  60                pusha
0001554D  99                cwd
0001554E  20CA              and dl,cl
00015550  60                pusha
00015551  7FC0              jg 0x5513
00015553  1F                pop ds
00015554  000F              add [bx],cl
00015556  001D              add [di],bl
00015558  001B              add [bp+di],bl
0001555A  001B              add [bp+di],bl
0001555C  0013              add [bp+di],dl
0001555E  0039              add [bx+di],bh
00015560  C00000            rol byte [bx+si],byte 0x0
00015563  7FC0              jg 0x5525
00015565  E1E0              loope 0x5547
00015567  C0E063            shl al,byte 0x63
0001556A  C00F00            ror byte [bx],byte 0x0
0001556D  1C00              sbb al,0x0
0001556F  1C00              sbb al,0x0
00015571  0E                push cs
00015572  0000              add [bx+si],al
00015574  000E000E          add [0xe00],cl
00015578  0000              add [bx+si],al
0001557A  0000              add [bx+si],al
0001557C  001F              add [bx],bl
0001557E  0060C0            add [bx+si-0x40],ah
00015581  CE                into
00015582  60                pusha
00015583  9B209960CF        wait and [bx+di-0x30a0],bl
00015588  C060001F          shl byte [bx+si+0x0],byte 0x1f
0001558C  800000            add byte [bx+si],0x0
0001558F  0000              add [bx+si],al
00015591  0000              add [bx+si],al
00015593  7FC0              jg 0x5555
00015595  93                xchg ax,bx
00015596  205340            and [bp+di+0x40],dl
00015599  23802D80          and ax,[bx+si-0x7fd3]
0001559D  7180              jno 0x551f
0001559F  41                inc cx
000155A0  8080C0C0C0        add byte [bx+si-0x3f40],0xc0
000155A5  E0C0              loopne 0x5567
000155A7  61                popa
000155A8  E000              loopne 0x55aa
000155AA  007FC0            add [bx-0x40],bh
000155AD  B0E0              mov al,0xe0
000155AF  70C0              jo 0x5571
000155B1  39803700          cmp [bx+si+0x37],ax
000155B5  318030C0          xor [bx+si-0x3fd0],ax
000155B9  306030            xor [bx+si+0x30],ah
000155BC  E07F              loopne 0x563d
000155BE  C0FF00            sar bh,byte 0x0
000155C1  0000              add [bx+si],al
000155C3  1F                pop ds
000155C4  C0                db 0xc0
000155C5  306066            xor [bx+si+0x66],ah
000155C8  E043              loopne 0x560d
000155CA  C0C000            rol al,byte 0x0
000155CD  C000E0            rol byte [bx+si],byte 0xe0
000155D0  006000            add [bx+si+0x0],ah
000155D3  7840              js 0x5615
000155D5  3F                aas
000155D6  E01F              loopne 0x55f7
000155D8  C00000            rol byte [bx+si],byte 0x0
000155DB  7E00              jng 0x55dd
000155DD  B180              mov cl,0x80
000155DF  7040              jo 0x5621
000155E1  3C40              cmp al,0x40
000155E3  3220              xor ah,[bx+si]
000155E5  3C20              cmp al,0x20
000155E7  3020              xor [bx+si],ah
000155E9  306030            xor [bx+si+0x30],ah
000155EC  E07F              loopne 0x566d
000155EE  C0FF00            sar bh,byte 0x0
000155F1  0000              add [bx+si],al
000155F3  FF8070C0          inc word [bx+si-0x3f90]
000155F7  31803200          xor [bx+si+0x32],ax
000155FB  3C00              cmp al,0x0
000155FD  3F                aas
000155FE  803000            xor byte [bx+si],0x0
00015601  3000              xor [bx+si],al
00015603  30407F            xor [bx+si+0x7f],al
00015606  C0FF80            sar bh,byte 0x80
00015609  0000              add [bx+si],al
0001560B  FF8070C0          inc word [bx+si-0x3f90]
0001560F  31803200          xor [bx+si+0x32],ax
00015613  3C00              cmp al,0x0
00015615  3F                aas
00015616  803000            xor byte [bx+si],0x0
00015619  3000              xor [bx+si],al
0001561B  3000              xor [bx+si],al
0001561D  7800              js 0x561f
0001561F  FC                cld
00015620  0000              add [bx+si],al
00015622  001F              add [bx],bl
00015624  8030C0            xor byte [bx+si],0xc0
00015627  60                pusha
00015628  804100C0          add byte [bx+di+0x0],0xc0
0001562C  00C1              add cl,al
0001562E  E0E0              loopne 0x5610
00015630  C060C078          shl byte [bx+si-0x40],byte 0x78
00015634  C03FC0            sar byte [bx],byte 0xc0
00015637  1F                pop ds
00015638  E000              loopne 0x563a
0001563A  0079C0            add [bx+di-0x40],bh
0001563D  B180              mov cl,0x80
0001563F  7180              jno 0x55c1
00015641  31803F80          xor [bx+si-0x7fc1],ax
00015645  31803180          xor [bx+si-0x7fcf],ax
00015649  31803180          xor [bx+si-0x7fcf],ax
0001564D  70C0              jo 0x560f
0001564F  F8                clc
00015650  60                pusha
00015651  0000              add [bx+si],al
00015653  3F                aas
00015654  8060C027          and byte [bx+si-0x40],0x27
00015658  C00380            rol byte [bp+di],byte 0x80
0001565B  0300              add ax,[bx+si]
0001565D  0300              add ax,[bx+si]
0001565F  0300              add ax,[bx+si]
00015661  0300              add ax,[bx+si]
00015663  23803780          and ax,[bx+si-0x7fc9]
00015667  1F                pop ds
00015668  0000              add [bx+si],al
0001566A  003F              add [bx],bh
0001566C  8060C027          and byte [bx+si-0x40],0x27
00015670  C02380            shl byte [bp+di],byte 0x80
00015673  1300              adc ax,[bx+si]
00015675  0300              add ax,[bx+si]
00015677  0300              add ax,[bx+si]
00015679  830043            add word [bx+si],byte +0x43
0001567C  8067803F          and byte [bx-0x80],0x3f
00015680  0000              add [bx+si],al
00015682  0078E0            add [bx+si-0x20],bh
00015685  B0C0              mov al,0xc0
00015687  7180              jno 0x5609
00015689  3300              xor ax,[bx+si]
0001568B  3E0033            add [ds:bp+di],dh
0001568E  0031              add [bx+di],dh
00015690  803180            xor byte [bx+di],0x80
00015693  318071C0          xor [bx+si-0x3f8f],ax
00015697  F8                clc
00015698  E000              loopne 0x569a
0001569A  00F8              add al,bh
0001569C  007000            add [bx+si+0x0],dh
0001569F  3000              xor [bx+si],al
000156A1  3000              xor [bx+si],al
000156A3  3000              xor [bx+si],al
000156A5  3000              xor [bx+si],al
000156A7  30C0              xor al,al
000156A9  308060C0          xor [bx+si-0x3fa0],al
000156AD  87E0              xchg ax,sp
000156AF  7FC0              jg 0x5671
000156B1  0000              add [bx+si],al
000156B3  7FC0              jg 0x5675
000156B5  BFA06D            mov di,0x6da0
000156B8  C04CC0C6          ror byte [si-0x40],byte 0xc6
000156BC  60                pusha
000156BD  C6                db 0xc6
000156BE  60                pusha
000156BF  C6                db 0xc6
000156C0  60                pusha
000156C1  C6                db 0xc6
000156C2  60                pusha
000156C3  C6                db 0xc6
000156C4  60                pusha
000156C5  E660              out 0x60,al
000156C7  6C                insb
000156C8  C00000            rol byte [bx+si],byte 0x0
000156CB  7F80              jg 0x564d
000156CD  B3C0              mov bl,0xc0
000156CF  70E0              jo 0x56b1
000156D1  386036            cmp [bx+si+0x36],ah
000156D4  60                pusha
000156D5  306030            xor [bx+si+0x30],ah
000156D8  C0                db 0xc0
000156D9  30C0              xor al,al
000156DB  308070C0          xor [bx+si-0x3f90],al
000156DF  F8                clc
000156E0  60                pusha
000156E1  0000              add [bx+si],al
000156E3  1E                push ds
000156E4  006380            add [bp+di-0x80],ah
000156E7  C2C0C2            ret 0xc2c0
000156EA  C0C4C0            rol ah,byte 0xc0
000156ED  C8C0D0C0          enter 0xd0c0,0xc0
000156F1  D0C0              rol al,1
000156F3  F1                int1
000156F4  C07F801E          sar byte [bx-0x80],byte 0x1e
000156F8  0000              add [bx+si],al
000156FA  007F00            add [bx+0x0],bh
000156FD  B0C0              mov al,0xc0
000156FF  7060              jo 0x5761
00015701  30603C            xor [bx+si+0x3c],ah
00015704  E037              loopne 0x573d
00015706  C0                db 0xc0
00015707  3000              xor [bx+si],al
00015709  3000              xor [bx+si],al
0001570B  3000              xor [bx+si],al
0001570D  7000              jo 0x570f
0001570F  F8                clc
00015710  0000              add [bx+si],al
00015712  001E0061          add [0x6100],bl
00015716  80C0C0            add al,0xc0
00015719  C0C0C0            rol al,byte 0xc0
0001571C  C0C0C0            rol al,byte 0xc0
0001571F  C0C0DE            rol al,byte 0xde
00015722  C0                db 0xc0
00015723  F1                int1
00015724  C07F801E          sar byte [bx-0x80],byte 0x1e
00015728  E000              loopne 0x572a
0001572A  007F80            add [bx-0x80],bh
0001572D  B0C0              mov al,0xc0
0001572F  7040              jo 0x5771
00015731  31803E00          xor [bx+si+0x3e],ax
00015735  3300              xor ax,[bx+si]
00015737  31803180          xor [bx+si-0x7fcf],ax
0001573B  318071C0          xor [bx+si-0x3f8f],ax
0001573F  F8                clc
00015740  E000              loopne 0x5742
00015742  007F00            add [bx+0x0],bh
00015745  E1C0              loope 0x5707
00015747  C0406000          rol byte [bx+si+0x60],byte 0x0
0001574B  1800              sbb [bx+si],al
0001574D  06                push es
0001574E  0001              add [bx+di],al
00015750  8078C0C4          cmp byte [bx+si-0x40],0xc4
00015754  C0FFC0            sar bh,byte 0xc0
00015757  7F80              jg 0x56d9
00015759  0000              add [bx+si],al
0001575B  7FC0              jg 0x571d
0001575D  E660              out 0x60,al
0001575F  6640              inc eax
00015761  C6                db 0xc6
00015762  20060006          and [0x600],al
00015766  00060006          add [0x600],al
0001576A  0006000E          add [0xe00],al
0001576E  001F              add [bx],bl
00015770  0000              add [bx+si],al
00015772  0071E0            add [bx+di-0x20],dh
00015775  98                cbw
00015776  C058C038          rcr byte [bx+si-0x40],byte 0x38
0001577A  C0                db 0xc0
0001577B  30C0              xor al,al
0001577D  68C066            push word 0x66c0
00015780  C061C078          shl byte [bx+di-0x40],byte 0x78
00015784  C03FC0            sar byte [bx],byte 0xc0
00015787  0FE000            pavgb mm0,[bx+si]
0001578A  0079C0            add [bx+di-0x40],bh
0001578D  CC                int3
0001578E  E078              loopne 0x5808
00015790  60                pusha
00015791  60                pusha
00015792  60                pusha
00015793  306030            xor [bx+si+0x30],ah
00015796  40                inc ax
00015797  184018            sbb [bx+si+0x18],al
0001579A  800D80            or byte [di],0x80
0001579D  0F00060000        sldt [0x0]
000157A2  00E0              add al,ah
000157A4  E0C0              loopne 0x5766
000157A6  60                pusha
000157A7  C060C060          shl byte [bx+si-0x40],byte 0x60
000157AB  C060C060          shl byte [bx+si-0x40],byte 0x60
000157AF  C06064C0          shl byte [bx+si+0x64],byte 0xc0
000157B3  6E                outsb
000157B4  C07BC031          sar byte [bp+di-0x40],byte 0x31
000157B8  800000            add byte [bx+si],0x0
000157BB  71C0              jno 0x577d
000157BD  E0C0              loopne 0x577f
000157BF  60                pusha
000157C0  803100            xor byte [bx+di],0x0
000157C3  1A00              sbb al,[bx+si]
000157C5  0C00              or al,0x0
000157C7  16                push ss
000157C8  0023              add [bp+di],ah
000157CA  006180            add [bx+di-0x80],ah
000157CD  E0C0              loopne 0x578f
000157CF  70E0              jo 0x57b1
000157D1  0000              add [bx+si],al
000157D3  71C0              jno 0x5795
000157D5  E660              out 0x60,al
000157D7  686030            push word 0x3060
000157DA  C01980            rcr byte [bx+di],byte 0x80
000157DD  0F00060006        sldt [0x600]
000157E2  0006000E          add [0xe00],al
000157E6  001F              add [bx],bl
000157E8  0000              add [bx+si],al
000157EA  00FF              add bh,bh
000157EC  C060E021          shl byte [bx+si-0x20],byte 0x21
000157F0  C0638007          shl byte [bp+di-0x80],byte 0x7
000157F4  000E001C          add [0x1c00],cl
000157F8  C03880            sar byte [bx+si],byte 0x80
000157FB  70C0              jo 0x57bd
000157FD  FFE0              jmp ax
000157FF  7FC0              jg 0x57c1
00015801  0000              add [bx+si],al
00015803  0000              add [bx+si],al
00015805  0000              add [bx+si],al
00015807  0000              add [bx+si],al
00015809  0000              add [bx+si],al
0001580B  00FF              add bh,bh
0001580D  FF                db 0xff
0001580E  FF                db 0xff
0001580F  FF                db 0xff
00015810  FF5053            call [bx+si+0x53]
00015813  51                push cx
00015814  52                push dx
00015815  55                push bp
00015816  56                push si
00015817  57                push di
00015818  06                push es
00015819  E89D02            call 0x5ab9
0001581C  50                push ax
0001581D  E87A02            call 0x5a9a
00015820  58                pop ax
00015821  E8C501            call 0x59e9
00015824  E81402            call 0x5a3b
00015827  7303              jnc 0x582c
00015829  E98E00            jmp 0x58ba
0001582C  BF0200            mov di,0x2
0001582F  9C                pushf
00015830  52                push dx
00015831  57                push di
00015832  06                push es
00015833  FA                cli
00015834  FC                cld
00015835  8AC6              mov al,dh
00015837  E60C              out 0xc,al
00015839  BA0800            mov dx,0x8
0001583C  BE0D07            mov si,0x70d
0001583F  8BEB              mov bp,bx
00015841  8BFB              mov di,bx
00015843  8CD8              mov ax,ds
00015845  8EC0              mov es,ax
00015847  B702              mov bh,0x2
00015849  B396              mov bl,0x96
0001584B  B400              mov ah,0x0
0001584D  B080              mov al,0x80
0001584F  E608              out 0x8,al
00015851  D40A              aam
00015853  D40A              aam
00015855  D40A              aam
00015857  D40A              aam
00015859  EC                in al,dx
0001585A  D0F8              sar al,1
0001585C  731C              jnc 0x587a
0001585E  75F9              jnz 0x5859
00015860  EC                in al,dx
00015861  22C3              and al,bl
00015863  74FB              jz 0x5860
00015865  E40E              in al,0xe
00015867  AA                stosb
00015868  EC                in al,dx
00015869  48                dec ax
0001586A  74FC              jz 0x5868
0001586C  3AC7              cmp al,bh
0001586E  750A              jnz 0x587a
00015870  E40E              in al,0xe
00015872  AA                stosb
00015873  EC                in al,dx
00015874  3AC7              cmp al,bh
00015876  74F8              jz 0x5870
00015878  FFE6              jmp si
0001587A  8BDF              mov bx,di
0001587C  07                pop es
0001587D  5F                pop di
0001587E  5A                pop dx
0001587F  9D                popf
00015880  E408              in al,0x8
00015882  24FF              and al,0xff
00015884  751C              jnz 0x58a2
00015886  E20D              loop 0x5895
00015888  07                pop es
00015889  5F                pop di
0001588A  5E                pop si
0001588B  5D                pop bp
0001588C  5A                pop dx
0001588D  59                pop cx
0001588E  5B                pop bx
0001588F  58                pop ax
00015890  E81F02            call 0x5ab2
00015893  F8                clc
00015894  C3                ret
00015895  FEC6              inc dh
00015897  80FE09            cmp dh,0x9
0001589A  7290              jc 0x582c
0001589C  FEC2              inc dl
0001589E  B601              mov dh,0x1
000158A0  EB82              jmp short 0x5824
000158A2  8BDD              mov bx,bp
000158A4  4F                dec di
000158A5  7418              jz 0x58bf
000158A7  A83C              test al,0x3c
000158A9  740C              jz 0x58b7
000158AB  F7C70100          test di,0x1
000158AF  7506              jnz 0x58b7
000158B1  E8E601            call 0x5a9a
000158B4  E96DFF            jmp 0x5824
000158B7  E975FF            jmp 0x582f
000158BA  A880              test al,0x80
000158BC  7401              jz 0x58bf
000158BE  F8                clc
000158BF  07                pop es
000158C0  5F                pop di
000158C1  5E                pop si
000158C2  5D                pop bp
000158C3  5A                pop dx
000158C4  59                pop cx
000158C5  5B                pop bx
000158C6  9F                lahf
000158C7  83C402            add sp,byte +0x2
000158CA  9E                sahf
000158CB  E8E401            call 0x5ab2
000158CE  721A              jc 0x58ea
000158D0  A880              test al,0x80
000158D2  750E              jnz 0x58e2
000158D4  A810              test al,0x10
000158D6  7516              jnz 0x58ee
000158D8  A80C              test al,0xc
000158DA  750A              jnz 0x58e6
000158DC  EB18              jmp short 0x58f6
000158DE  B000              mov al,0x0
000158E0  EB16              jmp short 0x58f8
000158E2  B002              mov al,0x2
000158E4  EB12              jmp short 0x58f8
000158E6  B004              mov al,0x4
000158E8  EB0E              jmp short 0x58f8
000158EA  B006              mov al,0x6
000158EC  EB0A              jmp short 0x58f8
000158EE  B008              mov al,0x8
000158F0  EB06              jmp short 0x58f8
000158F2  B00A              mov al,0xa
000158F4  EB02              jmp short 0x58f8
000158F6  B00C              mov al,0xc
000158F8  F9                stc
000158F9  C3                ret
000158FA  50                push ax
000158FB  53                push bx
000158FC  51                push cx
000158FD  52                push dx
000158FE  55                push bp
000158FF  57                push di
00015900  06                push es
00015901  E8B501            call 0x5ab9
00015904  E8E200            call 0x59e9
00015907  E83101            call 0x5a3b
0001590A  7303              jnc 0x590f
0001590C  E99C00            jmp 0x59ab
0001590F  BF0A00            mov di,0xa
00015912  51                push cx
00015913  52                push dx
00015914  56                push si
00015915  57                push di
00015916  FA                cli
00015917  FC                cld
00015918  8AC6              mov al,dh
0001591A  E60C              out 0xc,al
0001591C  BA0800            mov dx,0x8
0001591F  BFF607            mov di,0x7f6
00015922  8BEB              mov bp,bx
00015924  8BF3              mov si,bx
00015926  8CD8              mov ax,ds
00015928  8EC0              mov es,ax
0001592A  B0A0              mov al,0xa0
0001592C  E608              out 0x8,al
0001592E  D40A              aam
00015930  D40A              aam
00015932  D40A              aam
00015934  D40A              aam
00015936  B40C              mov ah,0xc
00015938  B500              mov ch,0x0
0001593A  B702              mov bh,0x2
0001593C  B3F6              mov bl,0xf6
0001593E  AC                lodsb
0001593F  91                xchg ax,cx
00015940  EC                in al,dx
00015941  D0F8              sar al,1
00015943  7320              jnc 0x5965
00015945  75F9              jnz 0x5940
00015947  EC                in al,dx
00015948  22C3              and al,bl
0001594A  74FB              jz 0x5947
0001594C  91                xchg ax,cx
0001594D  E60E              out 0xe,al
0001594F  EB0B              jmp short 0x595c
00015951  EC                in al,dx
00015952  48                dec ax
00015953  74FC              jz 0x5951
00015955  3AC7              cmp al,bh
00015957  750C              jnz 0x5965
00015959  91                xchg ax,cx
0001595A  E60E              out 0xe,al
0001595C  AC                lodsb
0001595D  91                xchg ax,cx
0001595E  EC                in al,dx
0001595F  22C7              and al,bh
00015961  75F6              jnz 0x5959
00015963  FFE7              jmp di
00015965  8BDD              mov bx,bp
00015967  81C30002          add bx,0x200
0001596B  5F                pop di
0001596C  5E                pop si
0001596D  5A                pop dx
0001596E  59                pop cx
0001596F  E408              in al,0x8
00015971  24FF              and al,0xff
00015973  751E              jnz 0x5993
00015975  E20C              loop 0x5983
00015977  07                pop es
00015978  5F                pop di
00015979  5D                pop bp
0001597A  5A                pop dx
0001597B  59                pop cx
0001597C  5B                pop bx
0001597D  58                pop ax
0001597E  E83101            call 0x5ab2
00015981  F8                clc
00015982  C3                ret
00015983  FEC6              inc dh
00015985  80FE09            cmp dh,0x9
00015988  7302              jnc 0x598c
0001598A  EB83              jmp short 0x590f
0001598C  FEC2              inc dl
0001598E  B601              mov dh,0x1
00015990  E974FF            jmp 0x5907
00015993  8BDD              mov bx,bp
00015995  4F                dec di
00015996  7418              jz 0x59b0
00015998  A83C              test al,0x3c
0001599A  740C              jz 0x59a8
0001599C  F7C70100          test di,0x1
000159A0  7506              jnz 0x59a8
000159A2  E8F500            call 0x5a9a
000159A5  E95FFF            jmp 0x5907
000159A8  E967FF            jmp 0x5912
000159AB  A880              test al,0x80
000159AD  7401              jz 0x59b0
000159AF  F8                clc
000159B0  07                pop es
000159B1  5F                pop di
000159B2  5D                pop bp
000159B3  5A                pop dx
000159B4  59                pop cx
000159B5  5B                pop bx
000159B6  9F                lahf
000159B7  83C402            add sp,byte +0x2
000159BA  9E                sahf
000159BB  E8F400            call 0x5ab2
000159BE  7303              jnc 0x59c3
000159C0  E927FF            jmp 0x58ea
000159C3  A880              test al,0x80
000159C5  7403              jz 0x59ca
000159C7  E918FF            jmp 0x58e2
000159CA  A840              test al,0x40
000159CC  7403              jz 0x59d1
000159CE  E90DFF            jmp 0x58de
000159D1  A820              test al,0x20
000159D3  7403              jz 0x59d8
000159D5  E91AFF            jmp 0x58f2
000159D8  A810              test al,0x10
000159DA  7403              jz 0x59df
000159DC  E90FFF            jmp 0x58ee
000159DF  A80C              test al,0xc
000159E1  7403              jz 0x59e6
000159E3  E900FF            jmp 0x58e6
000159E6  E90DFF            jmp 0x58f6
000159E9  53                push bx
000159EA  50                push ax
000159EB  E41C              in al,0x1c
000159ED  2403              and al,0x3
000159EF  2EC606B006FC      mov byte [cs:0x6b0],0xfc
000159F5  2E0806B006        or [cs:0x6b0],al
000159FA  58                pop ax
000159FB  B700              mov bh,0x0
000159FD  2E8A1EB006        mov bl,[cs:0x6b0]
00015A02  2EA2B006          mov [cs:0x6b0],al
00015A06  2403              and al,0x3
00015A08  80E303            and bl,0x3
00015A0B  3AC3              cmp al,bl
00015A0D  741D              jz 0x5a2c
00015A0F  50                push ax
00015A10  E40A              in al,0xa
00015A12  2E8887B106        mov [cs:bx+0x6b1],al
00015A17  58                pop ax
00015A18  8AD8              mov bl,al
00015A1A  2403              and al,0x3
00015A1C  E61C              out 0x1c,al
00015A1E  2E8A87B106        mov al,[cs:bx+0x6b1]
00015A23  E60A              out 0xa,al
00015A25  3C28              cmp al,0x28
00015A27  7203              jc 0x5a2c
00015A29  E86E00            call 0x5a9a
00015A2C  8BC2              mov ax,dx
00015A2E  B208              mov dl,0x8
00015A30  F6F2              div dl
00015A32  FEC4              inc ah
00015A34  8BD0              mov dx,ax
00015A36  80E60F            and dh,0xf
00015A39  5B                pop bx
00015A3A  C3                ret
00015A3B  53                push bx
00015A3C  51                push cx
00015A3D  52                push dx
00015A3E  02D2              add dl,dl
00015A40  BB0A00            mov bx,0xa
00015A43  2E3A16B506        cmp dl,[cs:0x6b5]
00015A48  7405              jz 0x5a4f
00015A4A  B94D01            mov cx,0x14d
00015A4D  E2FE              loop 0x5a4d
00015A4F  8AC2              mov al,dl
00015A51  D0E8              shr al,1
00015A53  E60E              out 0xe,al
00015A55  B018              mov al,0x18
00015A57  E608              out 0x8,al
00015A59  E41C              in al,0x1c
00015A5B  8AE2              mov ah,dl
00015A5D  D0E4              shl ah,1
00015A5F  D0E4              shl ah,1
00015A61  80E404            and ah,0x4
00015A64  24FB              and al,0xfb
00015A66  0AC4              or al,ah
00015A68  E61C              out 0x1c,al
00015A6A  E408              in al,0x8
00015A6C  A801              test al,0x1
00015A6E  75FA              jnz 0x5a6a
00015A70  B91482            mov cx,0x8214
00015A73  E408              in al,0x8
00015A75  A880              test al,0x80
00015A77  7407              jz 0x5a80
00015A79  E2F8              loop 0x5a73
00015A7B  4B                dec bx
00015A7C  75C5              jnz 0x5a43
00015A7E  EB11              jmp short 0x5a91
00015A80  2E3A16B506        cmp dl,[cs:0x6b5]
00015A85  7405              jz 0x5a8c
00015A87  B94D01            mov cx,0x14d
00015A8A  E2FE              loop 0x5a8a
00015A8C  2E8816B506        mov [cs:0x6b5],dl
00015A91  5A                pop dx
00015A92  59                pop cx
00015A93  5B                pop bx
00015A94  2490              and al,0x90
00015A96  7401              jz 0x5a99
00015A98  F9                stc
00015A99  C3                ret
00015A9A  B008              mov al,0x8
00015A9C  E608              out 0x8,al
00015A9E  E408              in al,0x8
00015AA0  A801              test al,0x1
00015AA2  75FA              jnz 0x5a9e
00015AA4  51                push cx
00015AA5  B9511B            mov cx,0x1b51
00015AA8  E2FE              loop 0x5aa8
00015AAA  59                pop cx
00015AAB  2EC606B50600      mov byte [cs:0x6b5],0x0
00015AB1  C3                ret
00015AB2  50                push ax
00015AB3  B027              mov al,0x27
00015AB5  E62A              out 0x2a,al
00015AB7  58                pop ax
00015AB8  C3                ret
00015AB9  50                push ax
00015ABA  B005              mov al,0x5
00015ABC  E62A              out 0x2a,al
00015ABE  58                pop ax
00015ABF  C3                ret
00015AC0  0000              add [bx+si],al
00015AC2  0000              add [bx+si],al
00015AC4  0000              add [bx+si],al
00015AC6  0000              add [bx+si],al
00015AC8  0000              add [bx+si],al
00015ACA  0000              add [bx+si],al
00015ACC  0000              add [bx+si],al
00015ACE  0000              add [bx+si],al
00015AD0  0000              add [bx+si],al
00015AD2  0000              add [bx+si],al
00015AD4  0000              add [bx+si],al
00015AD6  0000              add [bx+si],al
00015AD8  0000              add [bx+si],al
00015ADA  0000              add [bx+si],al
00015ADC  0000              add [bx+si],al
00015ADE  0000              add [bx+si],al
00015AE0  0000              add [bx+si],al
00015AE2  0000              add [bx+si],al
00015AE4  0000              add [bx+si],al
00015AE6  0000              add [bx+si],al
00015AE8  0000              add [bx+si],al
00015AEA  0000              add [bx+si],al
00015AEC  0000              add [bx+si],al
00015AEE  0000              add [bx+si],al
00015AF0  0000              add [bx+si],al
00015AF2  0000              add [bx+si],al
00015AF4  0000              add [bx+si],al
00015AF6  0000              add [bx+si],al
00015AF8  0000              add [bx+si],al
00015AFA  0000              add [bx+si],al
00015AFC  0000              add [bx+si],al
00015AFE  0000              add [bx+si],al
00015B00  0000              add [bx+si],al
00015B02  0000              add [bx+si],al
00015B04  0000              add [bx+si],al
00015B06  0000              add [bx+si],al
00015B08  0000              add [bx+si],al
00015B0A  0000              add [bx+si],al
00015B0C  0000              add [bx+si],al
00015B0E  0000              add [bx+si],al
00015B10  0000              add [bx+si],al
00015B12  0000              add [bx+si],al
00015B14  0000              add [bx+si],al
00015B16  0000              add [bx+si],al
00015B18  0000              add [bx+si],al
00015B1A  0000              add [bx+si],al
00015B1C  0000              add [bx+si],al
00015B1E  0000              add [bx+si],al
00015B20  0000              add [bx+si],al
00015B22  0000              add [bx+si],al
00015B24  0000              add [bx+si],al
00015B26  0000              add [bx+si],al
00015B28  0000              add [bx+si],al
00015B2A  0000              add [bx+si],al
00015B2C  0000              add [bx+si],al
00015B2E  0000              add [bx+si],al
00015B30  0000              add [bx+si],al
00015B32  0000              add [bx+si],al
00015B34  0000              add [bx+si],al
00015B36  0000              add [bx+si],al
00015B38  0000              add [bx+si],al
00015B3A  0000              add [bx+si],al
00015B3C  0000              add [bx+si],al
00015B3E  0000              add [bx+si],al
00015B40  0000              add [bx+si],al
00015B42  0000              add [bx+si],al
00015B44  0000              add [bx+si],al
00015B46  0000              add [bx+si],al
00015B48  0000              add [bx+si],al
00015B4A  0000              add [bx+si],al
00015B4C  0000              add [bx+si],al
00015B4E  0000              add [bx+si],al
00015B50  0000              add [bx+si],al
00015B52  0000              add [bx+si],al
00015B54  0000              add [bx+si],al
00015B56  0000              add [bx+si],al
00015B58  0000              add [bx+si],al
00015B5A  0000              add [bx+si],al
00015B5C  0000              add [bx+si],al
00015B5E  0000              add [bx+si],al
00015B60  0000              add [bx+si],al
00015B62  0000              add [bx+si],al
00015B64  0000              add [bx+si],al
00015B66  0000              add [bx+si],al
00015B68  0000              add [bx+si],al
00015B6A  0000              add [bx+si],al
00015B6C  0000              add [bx+si],al
00015B6E  0000              add [bx+si],al
00015B70  0000              add [bx+si],al
00015B72  0000              add [bx+si],al
00015B74  0000              add [bx+si],al
00015B76  0000              add [bx+si],al
00015B78  0000              add [bx+si],al
00015B7A  0000              add [bx+si],al
00015B7C  0000              add [bx+si],al
00015B7E  0000              add [bx+si],al
00015B80  0000              add [bx+si],al
00015B82  0000              add [bx+si],al
00015B84  0000              add [bx+si],al
00015B86  0000              add [bx+si],al
00015B88  0000              add [bx+si],al
00015B8A  00FF              add bh,bh
00015B8C  FF                db 0xff
00015B8D  FF                db 0xff
00015B8E  FF                db 0xff
00015B8F  FF                db 0xff
00015B90  FFF4              push sp
00015B92  D0FF              sar bh,1
00015B94  FF0F              dec word [bx]
00015B96  03FF              add di,di
00015B98  FF                db 0xff
00015B99  FF                db 0xff
00015B9A  FF                db 0xff
00015B9B  FF                db 0xff
00015B9C  FF                db 0xff
00015B9D  FF                db 0xff
00015B9E  FFD0              call ax
00015BA0  D0E8              shr al,1
00015BA2  FA                cli
00015BA3  0303              add ax,[bp+di]
00015BA5  07                pop es
00015BA6  1F                pop ds
00015BA7  FF                db 0xff
00015BA8  FF                db 0xff
00015BA9  FF                db 0xff
00015BAA  FF                db 0xff
00015BAB  FF                db 0xff
00015BAC  FF                db 0xff
00015BAD  FF                db 0xff
00015BAE  FFF4              push sp
00015BB0  F4                hlt
00015BB1  E8E80F            call 0x6b9c
00015BB4  0F07              sysret
00015BB6  07                pop es
00015BB7  FF                db 0xff
00015BB8  FF                db 0xff
00015BB9  FF                db 0xff
00015BBA  FF                db 0xff
00015BBB  FF                db 0xff
00015BBC  FF                db 0xff
00015BBD  FF                db 0xff
00015BBE  FFD0              call ax
00015BC0  D5FF              aad 0xff
00015BC2  FF03              inc word [bp+di]
00015BC4  53                push bx
00015BC5  FF                db 0xff
00015BC6  FF                db 0xff
00015BC7  FF                db 0xff
00015BC8  FF                db 0xff
00015BC9  FF                db 0xff
00015BCA  FF                db 0xff
00015BCB  FF                db 0xff
00015BCC  FF                db 0xff
00015BCD  FF                db 0xff
00015BCE  FF                db 0xff
00015BCF  FF                db 0xff
00015BD0  FFF4              push sp
00015BD2  D0FF              sar bh,1
00015BD4  FF0F              dec word [bx]
00015BD6  03FF              add di,di
00015BD8  FF                db 0xff
00015BD9  FF                db 0xff
00015BDA  FF                db 0xff
00015BDB  FF                db 0xff
00015BDC  FF                db 0xff
00015BDD  FF                db 0xff
00015BDE  FFD0              call ax
00015BE0  D0E8              shr al,1
00015BE2  FA                cli
00015BE3  0303              add ax,[bp+di]
00015BE5  07                pop es
00015BE6  1F                pop ds
00015BE7  FF                db 0xff
00015BE8  FF                db 0xff
00015BE9  FF                db 0xff
00015BEA  FF                db 0xff
00015BEB  FF                db 0xff
00015BEC  FF                db 0xff
00015BED  FF                db 0xff
00015BEE  FFF4              push sp
00015BF0  F4                hlt
00015BF1  E8E80F            call 0x6bdc
00015BF4  0F07              sysret
00015BF6  07                pop es
00015BF7  FF                db 0xff
00015BF8  FF                db 0xff
00015BF9  FF                db 0xff
00015BFA  FF                db 0xff
00015BFB  FF                db 0xff
00015BFC  FF                db 0xff
00015BFD  FF                db 0xff
00015BFE  FFD0              call ax
00015C00  D5FF              aad 0xff
00015C02  FF03              inc word [bp+di]
00015C04  53                push bx
00015C05  FF                db 0xff
00015C06  FF                db 0xff
00015C07  FF                db 0xff
00015C08  FF                db 0xff
00015C09  FF                db 0xff
00015C0A  FF                db 0xff
00015C0B  FF                db 0xff
00015C0C  FF                db 0xff
00015C0D  FF                db 0xff
00015C0E  FF                db 0xff
00015C0F  FF                db 0xff
00015C10  FFF4              push sp
00015C12  D0FF              sar bh,1
00015C14  FF0F              dec word [bx]
00015C16  03FF              add di,di
00015C18  FF                db 0xff
00015C19  FF                db 0xff
00015C1A  FF                db 0xff
00015C1B  FF                db 0xff
00015C1C  FF                db 0xff
00015C1D  FF                db 0xff
00015C1E  FFD0              call ax
00015C20  D0E8              shr al,1
00015C22  FA                cli
00015C23  0303              add ax,[bp+di]
00015C25  07                pop es
00015C26  1F                pop ds
00015C27  FF                db 0xff
00015C28  FF                db 0xff
00015C29  FF                db 0xff
00015C2A  FF                db 0xff
00015C2B  FF                db 0xff
00015C2C  FF                db 0xff
00015C2D  FF                db 0xff
00015C2E  FFF4              push sp
00015C30  F4                hlt
00015C31  E8E80F            call 0x6c1c
00015C34  0F07              sysret
00015C36  07                pop es
00015C37  FF                db 0xff
00015C38  FF                db 0xff
00015C39  FF                db 0xff
00015C3A  FF                db 0xff
00015C3B  FF                db 0xff
00015C3C  FF                db 0xff
00015C3D  FF                db 0xff
00015C3E  FFD0              call ax
00015C40  D5FF              aad 0xff
00015C42  FF03              inc word [bp+di]
00015C44  53                push bx
00015C45  FF                db 0xff
00015C46  FF                db 0xff
00015C47  FF                db 0xff
00015C48  FF                db 0xff
00015C49  FF                db 0xff
00015C4A  FF0F              dec word [bx]
00015C4C  386060            cmp [bx+si+0x60],ah
00015C4F  E038              loopne 0x5c89
00015C51  0C74              or al,0x74
00015C53  0000              add [bx+si],al
00015C55  0000              add [bx+si],al
00015C57  0000              add [bx+si],al
00015C59  0000              add [bx+si],al
00015C5B  3A0F              cmp cl,[bx]
00015C5D  0000              add [bx+si],al
00015C5F  BBD700            mov bx,0xd7
00015C62  0000              add [bx+si],al
00015C64  60                pusha
00015C65  EC                in al,dx
00015C66  1B00              sbb ax,[bx+si]
00015C68  0000              add [bx+si],al
00015C6A  800000            add byte [bx+si],0x0
00015C6D  0000              add [bx+si],al
00015C6F  0000              add [bx+si],al
00015C71  0000              add [bx+si],al
00015C73  07                pop es
00015C74  0C18              or al,0x18
00015C76  70F0              jo 0x5c68
00015C78  FC                cld
00015C79  1B30              sbb si,[bx+si]
00015C7B  0000              add [bx+si],al
00015C7D  0000              add [bx+si],al
00015C7F  0000              add [bx+si],al
00015C81  0000              add [bx+si],al
00015C83  1001              adc [bx+di],al
00015C85  0000              add [bx+si],al
00015C87  60                pusha
00015C88  C040000F          rol byte [bx+si+0x0],byte 0xf
00015C8C  386060            cmp [bx+si+0x60],ah
00015C8F  E038              loopne 0x5cc9
00015C91  0C74              or al,0x74
00015C93  0000              add [bx+si],al
00015C95  0000              add [bx+si],al
00015C97  0000              add [bx+si],al
00015C99  0000              add [bx+si],al
00015C9B  3A0F              cmp cl,[bx]
00015C9D  0000              add [bx+si],al
00015C9F  BBD700            mov bx,0xd7
00015CA2  0000              add [bx+si],al
00015CA4  60                pusha
00015CA5  EC                in al,dx
00015CA6  1B00              sbb ax,[bx+si]
00015CA8  0000              add [bx+si],al
00015CAA  800000            add byte [bx+si],0x0
00015CAD  0000              add [bx+si],al
00015CAF  0000              add [bx+si],al
00015CB1  0000              add [bx+si],al
00015CB3  07                pop es
00015CB4  0C18              or al,0x18
00015CB6  70F0              jo 0x5ca8
00015CB8  FC                cld
00015CB9  1B30              sbb si,[bx+si]
00015CBB  0000              add [bx+si],al
00015CBD  0000              add [bx+si],al
00015CBF  0000              add [bx+si],al
00015CC1  0000              add [bx+si],al
00015CC3  1001              adc [bx+di],al
00015CC5  0000              add [bx+si],al
00015CC7  60                pusha
00015CC8  C040000F          rol byte [bx+si+0x0],byte 0xf
00015CCC  386060            cmp [bx+si+0x60],ah
00015CCF  E038              loopne 0x5d09
00015CD1  0C74              or al,0x74
00015CD3  0000              add [bx+si],al
00015CD5  0000              add [bx+si],al
00015CD7  0000              add [bx+si],al
00015CD9  0000              add [bx+si],al
00015CDB  3A0F              cmp cl,[bx]
00015CDD  0000              add [bx+si],al
00015CDF  BBD700            mov bx,0xd7
00015CE2  0000              add [bx+si],al
00015CE4  60                pusha
00015CE5  EC                in al,dx
00015CE6  1B00              sbb ax,[bx+si]
00015CE8  0000              add [bx+si],al
00015CEA  800000            add byte [bx+si],0x0
00015CED  0000              add [bx+si],al
00015CEF  0000              add [bx+si],al
00015CF1  0000              add [bx+si],al
00015CF3  07                pop es
00015CF4  0C18              or al,0x18
00015CF6  70F0              jo 0x5ce8
00015CF8  FC                cld
00015CF9  1B30              sbb si,[bx+si]
00015CFB  0000              add [bx+si],al
00015CFD  0000              add [bx+si],al
00015CFF  0000              add [bx+si],al
00015D01  0000              add [bx+si],al
00015D03  1001              adc [bx+di],al
00015D05  0000              add [bx+si],al
00015D07  60                pusha
00015D08  C0400000          rol byte [bx+si+0x0],byte 0x0
00015D0C  0000              add [bx+si],al
00015D0E  0014              add [si],dl
00015D10  F5                cmc
00015D11  3A1F              cmp bl,[bx]
00015D13  2854B8            sub [si-0x48],dl
00015D16  F00000            lock add [bx+si],al
00015D19  0000              add [bx+si],al
00015D1B  0000              add [bx+si],al
00015D1D  0000              add [bx+si],al
00015D1F  003F              add [bx],bh
00015D21  67C60020          mov byte [eax],0x20
00015D25  2464              and al,0x64
00015D27  0000              add [bx+si],al
00015D29  0000              add [bx+si],al
00015D2B  0101              add [bx+di],ax
00015D2D  0101              add [bx+di],ax
00015D2F  92                xchg ax,dx
00015D30  CF                iret
00015D31  27                daa
00015D32  8F                db 0x8f
00015D33  723D              jc 0x5d72
00015D35  FA                cli
00015D36  F7000000          test word [bx+si],0x0
00015D3A  0000              add [bx+si],al
00015D3C  0000              add [bx+si],al
00015D3E  009F7F00          add [bx+0x7f],bl
00015D42  00AEFC00          add [bp+0xfc],ch
00015D46  0000              add [bx+si],al
00015D48  0000              add [bx+si],al
00015D4A  0000              add [bx+si],al
00015D4C  0000              add [bx+si],al
00015D4E  003C              add [si],bh
00015D50  EB3D              jmp short 0x5d8f
00015D52  1F                pop ds
00015D53  78AC              js 0x5d01
00015D55  58                pop ax
00015D56  F00000            lock add [bx+si],al
00015D59  0000              add [bx+si],al
00015D5B  0000              add [bx+si],al
00015D5D  0000              add [bx+si],al
00015D5F  003F              add [bx],bh
00015D61  67C60020          mov byte [eax],0x20
00015D65  2466              and al,0x66
00015D67  0000              add [bx+si],al
00015D69  0000              add [bx+si],al
00015D6B  0101              add [bx+di],ax
00015D6D  0101              add [bx+di],ax
00015D6F  92                xchg ax,dx
00015D70  CF                iret
00015D71  27                daa
00015D72  8F                db 0x8f
00015D73  733F              jnc 0x5db4
00015D75  FF                db 0xff
00015D76  FD                std
00015D77  0000              add [bx+si],al
00015D79  0000              add [bx+si],al
00015D7B  0002              add [bp+si],al
00015D7D  08419F            or [bx+di-0x61],al
00015D80  7588              jnz 0x5d0a
00015D82  01FA              add dx,di
00015D84  54                push sp
00015D85  42                inc dx
00015D86  0800              or [bx+si],al
00015D88  80204A            and byte [bx+si],0x4a
00015D8B  0000              add [bx+si],al
00015D8D  0000              add [bx+si],al
00015D8F  3CE3              cmp al,0xe3
00015D91  381F              cmp [bx],bl
00015D93  788C              js 0x5d21
00015D95  18FF              sbb bh,bh
00015D97  0000              add [bx+si],al
00015D99  0000              add [bx+si],al
00015D9B  0000              add [bx+si],al
00015D9D  0000              add [bx+si],al
00015D9F  1F                pop ds
00015DA0  1F                pop ds
00015DA1  27                daa
00015DA2  C7                db 0xc7
00015DA3  F9                stc
00015DA4  FF                db 0xff
00015DA5  FC                cld
00015DA6  FD                std
00015DA7  8040C080          add byte [bx+si-0x40],0x80
00015DAB  0001              add [bx+di],al
00015DAD  0000              add [bx+si],al
00015DAF  93                xchg ax,bx
00015DB0  CF                iret
00015DB1  27                daa
00015DB2  8F                db 0x8f
00015DB3  FC                cld
00015DB4  FC                cld
00015DB5  F8                clc
00015DB6  F00000            lock add [bx+si],al
00015DB9  0000              add [bx+si],al
00015DBB  0002              add [bp+si],al
00015DBD  08419F            or [bx+di-0x61],al
00015DC0  00880180          add [bx+si-0x7fff],cl
00015DC4  004208            add [bp+si+0x8],al
00015DC7  0080204A          add [bx+si+0x4a20],al
00015DCB  0000              add [bx+si],al
00015DCD  0000              add [bx+si],al
00015DCF  0000              add [bx+si],al
00015DD1  0000              add [bx+si],al
00015DD3  0000              add [bx+si],al
00015DD5  0000              add [bx+si],al
00015DD7  0000              add [bx+si],al
00015DD9  0000              add [bx+si],al
00015DDB  0000              add [bx+si],al
00015DDD  0000              add [bx+si],al
00015DDF  A815              test al,0x15
00015DE1  0201              add al,[bx+di]
00015DE3  0A01              or al,[bx+di]
00015DE5  0000              add [bx+si],al
00015DE7  80402010          add byte [bx+si+0x20],0x10
00015DEB  0000              add [bx+si],al
00015DED  0001              add [bx+di],al
00015DEF  0201              add al,[bx+di]
00015DF1  00C7              add bh,al
00015DF3  0000              add [bx+si],al
00015DF5  00E3              add bl,ah
00015DF7  2000              and [bx+si],al
00015DF9  00800100          add [bx+si+0x1],al
00015DFD  0000              add [bx+si],al
00015DFF  C7000000          mov word [bx+si],0x0
00015E03  E300              jcxz 0x5e05
00015E05  0000              add [bx+si],al
00015E07  800000            add byte [bx+si],0x0
00015E0A  0000              add [bx+si],al
00015E0C  0000              add [bx+si],al
00015E0E  0000              add [bx+si],al
00015E10  0101              add [bx+di],ax
00015E12  0300              add ax,[bx+si]
00015E14  8080C00000        add byte [bx+si+0xc0],0x0
00015E19  0000              add [bx+si],al
00015E1B  0000              add [bx+si],al
00015E1D  00C0              add al,al
00015E1F  0300              add ax,[bx+si]
00015E21  0000              add [bx+si],al
00015E23  C00000            rol byte [bx+si],byte 0x0
00015E26  0000              add [bx+si],al
00015E28  0000              add [bx+si],al
00015E2A  03703C            add si,[bx+si+0x3c]
00015E2D  1F                pop ds
00015E2E  1E                push ds
00015E2F  40                inc ax
00015E30  E0FF              loopne 0x5e31
00015E32  3802              cmp [bp+si],al
00015E34  07                pop es
00015E35  FF1C              call far [si]
00015E37  0E                push cs
00015E38  3CF8              cmp al,0xf8
00015E3A  780A              js 0x5e46
00015E3C  0F0000            sldt [bx+si]
00015E3F  28FF              sub bh,bh
00015E41  0000              add [bx+si],al
00015E43  14FF              adc al,0xff
00015E45  0000              add [bx+si],al
00015E47  50                push ax
00015E48  F00000            lock add [bx+si],al
00015E4B  0000              add [bx+si],al
00015E4D  0000              add [bx+si],al
00015E4F  0001              add [bx+di],al
00015E51  0103              add [bp+di],ax
00015E53  008080C0          add [bx+si-0x3f80],al
00015E57  0000              add [bx+si],al
00015E59  0000              add [bx+si],al
00015E5B  0107              add [bx],ax
00015E5D  0F                db 0x0f
00015E5E  CF                iret
00015E5F  53                push bx
00015E60  EAFDBED5FE        jmp 0xfed5:0xbefd
00015E65  FF                db 0xff
00015E66  FD                std
00015E67  00A0D0E3          add [bx+si-0x1c30],ah
00015E6B  7F3E              jg 0x5eab
00015E6D  1F                pop ds
00015E6E  1E                push ds
00015E6F  5D                pop bp
00015E70  EE                out dx,al
00015E71  FF                db 0xff
00015E72  38FA              cmp dl,bh
00015E74  F7FF              idiv di
00015E76  1CDE              sbb al,0xde
00015E78  7CF8              jl 0x5e72
00015E7A  780A              js 0x5e86
00015E7C  0F0000            sldt [bx+si]
00015E7F  28FF              sub bh,bh
00015E81  0000              add [bx+si],al
00015E83  14FF              adc al,0xff
00015E85  0000              add [bx+si],al
00015E87  50                push ax
00015E88  F00000            lock add [bx+si],al
00015E8B  0000              add [bx+si],al
00015E8D  0000              add [bx+si],al
00015E8F  0000              add [bx+si],al
00015E91  0000              add [bx+si],al
00015E93  0000              add [bx+si],al
00015E95  0000              add [bx+si],al
00015E97  0000              add [bx+si],al
00015E99  0000              add [bx+si],al
00015E9B  0000              add [bx+si],al
00015E9D  0000              add [bx+si],al
00015E9F  0000              add [bx+si],al
00015EA1  0000              add [bx+si],al
00015EA3  0000              add [bx+si],al
00015EA5  0000              add [bx+si],al
00015EA7  0000              add [bx+si],al
00015EA9  0000              add [bx+si],al
00015EAB  0000              add [bx+si],al
00015EAD  0000              add [bx+si],al
00015EAF  0000              add [bx+si],al
00015EB1  0000              add [bx+si],al
00015EB3  0000              add [bx+si],al
00015EB5  0000              add [bx+si],al
00015EB7  0000              add [bx+si],al
00015EB9  0000              add [bx+si],al
00015EBB  0000              add [bx+si],al
00015EBD  0000              add [bx+si],al
00015EBF  0000              add [bx+si],al
00015EC1  0000              add [bx+si],al
00015EC3  0000              add [bx+si],al
00015EC5  0000              add [bx+si],al
00015EC7  0000              add [bx+si],al
00015EC9  0000              add [bx+si],al
00015ECB  006075            add [bx+si+0x75],ah
00015ECE  60                pusha
00015ECF  FF                db 0xff
00015ED0  FF                db 0xff
00015ED1  FF                db 0xff
00015ED2  FFA0D0E8          jmp [bx+si-0x1730]
00015ED6  D000              rol byte [bx+si],1
00015ED8  04EA              add al,0xea
00015EDA  0430              add al,0x30
00015EDC  1807              sbb [bx],al
00015EDE  00FF              add bh,bh
00015EE0  7F7F              jg 0x5f61
00015EE2  BFE8D0            mov di,0xd0e8
00015EE5  E0D7              loopne 0x5ebe
00015EE7  0810              or [bx+si],dl
00015EE9  E000              loopne 0x5eeb
00015EEB  0000              add [bx+si],al
00015EED  0000              add [bx+si],al
00015EEF  0F0303            lsl ax,[bp+di]
00015EF2  03A0C080          add sp,[bx+si-0x7f40]
00015EF6  800000            add byte [bx+si],0x0
00015EF9  0000              add [bx+si],al
00015EFB  0000              add [bx+si],al
00015EFD  0000              add [bx+si],al
00015EFF  0307              add ax,[bx]
00015F01  3F                aas
00015F02  7F80              jg 0x5e84
00015F04  90                nop
00015F05  C4                db 0xc4
00015F06  E200              loop 0x5f08
00015F08  0000              add [bx+si],al
00015F0A  0000              add [bx+si],al
00015F0C  707F              jo 0x5f8d
00015F0E  70FF              jo 0x5f0f
00015F10  FF                db 0xff
00015F11  FF                db 0xff
00015F12  FFF5              push bp
00015F14  FA                cli
00015F15  FD                std
00015F16  FA                cli
00015F17  000EFE0E          add [0xefe],cl
00015F1B  381C              cmp [si],bl
00015F1D  07                pop es
00015F1E  00FF              add bh,bh
00015F20  7FFF              jg 0x5f21
00015F22  FF                db 0xff
00015F23  FD                std
00015F24  FA                cli
00015F25  F5                cmc
00015F26  FF1C              call far [si]
00015F28  38E0              cmp al,ah
00015F2A  0000              add [bx+si],al
00015F2C  0000              add [bx+si],al
00015F2E  000F              add [bx],cl
00015F30  0303              add ax,[bp+di]
00015F32  03F0              add si,ax
00015F34  C0C080            rol al,byte 0x80
00015F37  0000              add [bx+si],al
00015F39  0000              add [bx+si],al
00015F3B  0000              add [bx+si],al
00015F3D  0000              add [bx+si],al
00015F3F  0307              add ax,[bx]
00015F41  3F                aas
00015F42  7FC0              jg 0x5f04
00015F44  B0D4              mov al,0xd4
00015F46  EA00000000        jmp 0x0:0x0
00015F4B  0002              add [bp+si],al
00015F4D  050200            add ax,0x2
00015F50  0402              add al,0x2
00015F52  0100              add [bx+si],ax
00015F54  0078BF            add [bx+si-0x41],bh
00015F57  0000              add [bx+si],al
00015F59  0000              add [bx+si],al
00015F5B  0000              add [bx+si],al
00015F5D  0000              add [bx+si],al
00015F5F  0304              add ax,[si]
00015F61  0810              or [bx+si],dl
00015F63  0000              add [bx+si],al
00015F65  0000              add [bx+si],al
00015F67  E010              loopne 0x5f79
00015F69  0804              or [si],al
00015F6B  0000              add [bx+si],al
00015F6D  0000              add [bx+si],al
00015F6F  A03018            mov al,[0x1830]
00015F72  0400              add al,0x0
00015F74  0000              add [bx+si],al
00015F76  0004              add [si],al
00015F78  0408              add al,0x8
00015F7A  3000              xor [bx+si],al
00015F7C  0000              add [bx+si],al
00015F7E  0002              add [bp+si],al
00015F80  0000              add [bx+si],al
00015F82  00805400          add [bx+si+0x54],al
00015F86  00800000          add [bx+si+0x0],al
00015F8A  0000              add [bx+si],al
00015F8C  03060400          add ax,[0x4]
00015F90  06                push es
00015F91  0303              add ax,[bp+di]
00015F93  0000              add [bx+si],al
00015F95  2E55              cs push bp
00015F97  0000              add [bx+si],al
00015F99  00C0              add al,al
00015F9B  0000              add [bx+si],al
00015F9D  0000              add [bx+si],al
00015F9F  06                push es
00015FA0  06                push es
00015FA1  0C38              or al,0x38
00015FA3  800000            add byte [bx+si],0x0
00015FA6  00B0380C          add [bx+si+0xc38],dh
00015FAA  06                push es
00015FAB  0100              add [bx+si],ax
00015FAD  0000              add [bx+si],al
00015FAF  F01008            lock adc [bx+si],cl
00015FB2  0C00              or al,0x0
00015FB4  0000              add [bx+si],al
00015FB6  0006060C          add [0xc06],al
00015FBA  3800              cmp [bx+si],al
00015FBC  0000              add [bx+si],al
00015FBE  0007              add [bx],al
00015FC0  0100              add [bx+si],ax
00015FC2  0080FF3E          add [bx+si+0x3eff],al
00015FC6  00F0              add al,dh
00015FC8  C00000            rol byte [bx+si],byte 0x0
00015FCB  030F              add cx,[bx]
00015FCD  1F                pop ds
00015FCE  1F                pop ds
00015FCF  D0EA              shr dl,1
00015FD1  D5EA              aad 0xea
00015FD3  0000              add [bx+si],al
00015FD5  0E                push cs
00015FD6  050000            add ax,0x0
00015FD9  00C0              add al,al
00015FDB  3F                aas
00015FDC  3F                aas
00015FDD  1F                pop ds
00015FDE  0AD4              or dl,ah
00015FE0  AA                stosb
00015FE1  54                push sp
00015FE2  A800              test al,0x0
00015FE4  0000              add [bx+si],al
00015FE6  00B03804          add [bx+si+0x438],dh
00015FEA  0201              add al,[bx+di]
00015FEC  0000              add [bx+si],al
00015FEE  005010            add [bx+si+0x10],dl
00015FF1  080C              or [si],cl
00015FF3  0000              add [bx+si],al
00015FF5  0000              add [bx+si],al
00015FF7  0202              add al,[bp+si]
00015FF9  0418              add al,0x18
00015FFB  0000              add [bx+si],al
00015FFD  0000              add [bx+si],al
00015FFF  07                pop es
00016000  0100              add [bx+si],ax
00016002  0080FF3E          add [bx+si+0x3eff],al
00016006  00F0              add al,dh
00016008  C00000            rol byte [bx+si],byte 0x0
0001600B  0000              add [bx+si],al
0001600D  0000              add [bx+si],al
0001600F  0002              add [bp+si],al
00016011  0828              or [bx+si],ch
00016013  00CC              add ah,cl
00016015  1B9E0000          sbb bx,[bp+0x0]
00016019  00800000          add [bx+si+0x0],al
0001601D  0000              add [bx+si],al
0001601F  747C              jz 0x609d
00016021  7F3F              jg 0x6062
00016023  FD                std
00016024  47                inc di
00016025  A1D0C0            mov ax,[0xc0d0]
00016028  40                inc ax
00016029  C080000000        rol byte [bx+si+0x0],byte 0x0
0001602E  001F              add [bx],bl
00016030  07                pop es
00016031  0000              add [bx+si],al
00016033  EBE4              jmp short 0x6019
00016035  0000              add [bx+si],al
00016037  0000              add [bx+si],al
00016039  0000              add [bx+si],al
0001603B  0000              add [bx+si],al
0001603D  0000              add [bx+si],al
0001603F  0000              add [bx+si],al
00016041  0000              add [bx+si],al
00016043  0000              add [bx+si],al
00016045  0000              add [bx+si],al
00016047  0000              add [bx+si],al
00016049  0000              add [bx+si],al
0001604B  0000              add [bx+si],al
0001604D  0001              add [bx+di],al
0001604F  1E                push ds
00016050  60                pusha
00016051  800000            add byte [bx+si],0x0
00016054  0000              add [bx+si],al
00016056  0000              add [bx+si],al
00016058  0000              add [bx+si],al
0001605A  0002              add [bp+si],al
0001605C  0202              add al,[bp+si]
0001605E  0100              add [bx+si],ax
00016060  0000              add [bx+si],al
00016062  0000              add [bx+si],al
00016064  0000              add [bx+si],al
00016066  0000              add [bx+si],al
00016068  0000              add [bx+si],al
0001606A  0000              add [bx+si],al
0001606C  0000              add [bx+si],al
0001606E  0080601C          add [bx+si+0x1c60],al
00016072  0300              add ax,[bx+si]
00016074  0007              add [bx],al
00016076  F8                clc
00016077  0000              add [bx+si],al
00016079  0000              add [bx+si],al
0001607B  0000              add [bx+si],al
0001607D  0000              add [bx+si],al
0001607F  00060E03          add [0x30e],al
00016083  A0E4EA            mov al,[0xeae4]
00016086  F8                clc
00016087  0000              add [bx+si],al
00016089  0000              add [bx+si],al
0001608B  0000              add [bx+si],al
0001608D  0001              add [bx+di],al
0001608F  1E                push ds
00016090  679F              a32 lahf
00016092  1F                pop ds
00016093  0030              add [bx+si],dh
00016095  E060              loopne 0x60f7
00016097  0000              add [bx+si],al
00016099  0000              add [bx+si],al
0001609B  0202              add al,[bp+si]
0001609D  0201              add al,[bx+di]
0001609F  0F0300            lsl ax,[bx+si]
000160A2  0000              add [bx+si],al
000160A4  B87E3E            mov ax,0x3e7e
000160A7  0000              add [bx+si],al
000160A9  0000              add [bx+si],al
000160AB  0000              add [bx+si],al
000160AD  0000              add [bx+si],al
000160AF  80401402          add byte [bx+si+0x14],0x2
000160B3  1C18              sbb al,0x18
000160B5  05A800            add ax,0xa8
000160B8  0000              add [bx+si],al
000160BA  0000              add [bx+si],al
000160BC  0000              add [bx+si],al
000160BE  0000              add [bx+si],al
000160C0  07                pop es
000160C1  0F03E0            lsl sp,ax
000160C4  EC                in al,dx
000160C5  FE                db 0xfe
000160C6  F8                clc
000160C7  0000              add [bx+si],al
000160C9  0000              add [bx+si],al
000160CB  0300              add ax,[bx+si]
000160CD  0403              add al,0x3
000160CF  00A85032          add [bx+si+0x3250],ch
000160D3  0000              add [bx+si],al
000160D5  00800000          add [bx+si+0x0],al
000160D9  0000              add [bx+si],al
000160DB  0000              add [bx+si],al
000160DD  0005              add [di],al
000160DF  C9                leave
000160E0  93                xchg ax,bx
000160E1  643000            xor [fs:bx+si],al
000160E4  28903600          sub [bx+si+0x36],dl
000160E8  0000              add [bx+si],al
000160EA  0009              add [bx+di],cl
000160EC  050916            add ax,0x1609
000160EF  DD31              fnsave [bx+di]
000160F1  59                pop cx
000160F2  EC                in al,dx
000160F3  8932              mov [bp+si],si
000160F5  49                dec cx
000160F6  8500              test [bx+si],ax
000160F8  204020            and [bx+si+0x20],al
000160FB  3E2425            ds and al,0x25
000160FE  1F                pop ds
000160FF  42                inc dx
00016100  AA                stosb
00016101  FE                db 0xfe
00016102  EC                in al,dx
00016103  1400              adc al,0x0
00016105  0000              add [bx+si],al
00016107  80402000          add byte [bx+si+0x20],0x0
0001610B  0001              add [bx+di],al
0001610D  0000              add [bx+si],al
0001610F  0000              add [bx+si],al
00016111  80400000          add byte [bx+si+0x0],0x0
00016115  0000              add [bx+si],al
00016117  0000              add [bx+si],al
00016119  0000              add [bx+si],al
0001611B  0000              add [bx+si],al
0001611D  0007              add [bx],al
0001611F  300C              xor [si],cl
00016121  03D0              add dx,ax
00016123  0000              add [bx+si],al
00016125  00C0              add al,al
00016127  0000              add [bx+si],al
00016129  0000              add [bx+si],al
0001612B  0E                push cs
0001612C  07                pop es
0001612D  0E                push cs
0001612E  1D08D0            sbb ax,0xd008
00016131  8804              mov [si],al
00016133  300C              xor [si],cl
00016135  06                push es
00016136  A34020            mov [0x2040],ax
00016139  D4A0              aam 0xa0
0001613B  2B34              sub si,[si]
0001613D  3415              xor al,0x15
0001613F  AA                stosb
00016140  0202              add al,[bp+si]
00016142  54                push sp
00016143  55                push bp
00016144  0800              or [bx+si],al
00016146  00C8              add al,cl
00016148  E030              loopne 0x617a
0001614A  1803              sbb [bp+di],al
0001614C  07                pop es
0001614D  07                pop es
0001614E  05C0D8            add ax,0xd8c0
00016151  FE                db 0xfe
00016152  FD                std
00016153  0000              add [bx+si],al
00016155  00800000          add [bx+si+0x0],al
00016159  0000              add [bx+si],al
0001615B  0301              add ax,[bx+di]
0001615D  0002              add [bp+si],al
0001615F  FF                db 0xff
00016160  7FFF              jg 0x6161
00016162  0FE0D8            pavgb mm3,mm0
00016165  FC                cld
00016166  FA                cli
00016167  0000              add [bx+si],al
00016169  0000              add [bx+si],al
0001616B  0400              add al,0x0
0001616D  0408              add al,0x8
0001616F  07                pop es
00016170  06                push es
00016171  0100              add [bx+si],ax
00016173  FF                db 0xff
00016174  FF                db 0xff
00016175  FF1E0080          call far [0x8000]
00016179  00800010          add [bx+si+0x1000],al
0001617D  1000              adc [bx+si],al
0001617F  0000              add [bx+si],al
00016181  0000              add [bx+si],al
00016183  0100              add [bx+si],ax
00016185  0000              add [bx+si],al
00016187  C0E030            shl al,byte 0x30
0001618A  1800              sbb [bx+si],al
0001618C  0000              add [bx+si],al
0001618E  0000              add [bx+si],al
00016190  0000              add [bx+si],al
00016192  0300              add ax,[bx+si]
00016194  00C0              add al,al
00016196  C00000            rol byte [bx+si],byte 0x0
00016199  0000              add [bx+si],al
0001619B  0000              add [bx+si],al
0001619D  0000              add [bx+si],al
0001619F  0303              add ax,[bp+di]
000161A1  030B              add cx,[bp+di]
000161A3  C080E0D800        rol byte [bx+si-0x2720],byte 0x0
000161A8  0000              add [bx+si],al
000161AA  0000              add [bx+si],al
000161AC  0000              add [bx+si],al
000161AE  0001              add [bx+di],al
000161B0  234125            and ax,[bx+di+0x25]
000161B3  7EC7              jng 0x617c
000161B5  831700            adc word [bx],byte +0x0
000161B8  0000              add [bx+si],al
000161BA  0000              add [bx+si],al
000161BC  0000              add [bx+si],al
000161BE  002A              add [bp+si],ch
000161C0  140B              adc al,0xb
000161C2  123E9EFC          adc bh,[0xfc9e]
000161C6  48                dec ax
000161C7  0000              add [bx+si],al
000161C9  0000              add [bx+si],al
000161CB  0000              add [bx+si],al
000161CD  0000              add [bx+si],al
000161CF  0000              add [bx+si],al
000161D1  0102              add [bp+si],ax
000161D3  008000C0          add [bx+si-0x4000],al
000161D7  0000              add [bx+si],al
000161D9  0000              add [bx+si],al
000161DB  0000              add [bx+si],al
000161DD  0000              add [bx+si],al
000161DF  0302              add ax,[bp+si]
000161E1  031C              add bx,[si]
000161E3  40                inc ax
000161E4  C040A800          rol byte [bx+si-0x58],byte 0x0
000161E8  0000              add [bx+si],al
000161EA  0000              add [bx+si],al
000161EC  0000              add [bx+si],al
000161EE  007E73            add [bp+0x73],bh
000161F1  61                popa
000161F2  75EA              jnz 0x61de
000161F4  E5C3              in ax,0xc3
000161F6  55                push bp
000161F7  0000              add [bx+si],al
000161F9  0000              add [bx+si],al
000161FB  0000              add [bx+si],al
000161FD  0000              add [bx+si],al
000161FF  3E3C1F            ds cmp al,0x1f
00016202  1A3A              sbb bh,[bp+si]
00016204  94                xchg ax,sp
00016205  E84800            call 0x6250
00016208  0000              add [bx+si],al
0001620A  0000              add [bx+si],al
0001620C  0000              add [bx+si],al
0001620E  0001              add [bx+di],al
00016210  0303              add ax,[bp+di]
00016212  00C0              add al,al
00016214  E0C0              loopne 0x61d6
00016216  40                inc ax
00016217  0000              add [bx+si],al
00016219  0000              add [bx+si],al
0001621B  0000              add [bx+si],al
0001621D  0000              add [bx+si],al
0001621F  0000              add [bx+si],al
00016221  0200              add al,[bx+si]
00016223  0000              add [bx+si],al
00016225  40                inc ax
00016226  0800              or [bx+si],al
00016228  0000              add [bx+si],al
0001622A  0000              add [bx+si],al
0001622C  0000              add [bx+si],al
0001622E  00367361          add [0x6173],dh
00016232  714A              jno 0x627e
00016234  E5C2              in ax,0xc2
00016236  45                inc bp
00016237  0000              add [bx+si],al
00016239  0000              add [bx+si],al
0001623B  0000              add [bx+si],al
0001623D  0000              add [bx+si],al
0001623F  3E3C1F            ds cmp al,0x1f
00016242  023A              add bh,[bp+si]
00016244  14E8              adc al,0xe8
00016246  40                inc ax
00016247  0000              add [bx+si],al
00016249  0000              add [bx+si],al
0001624B  0015              add [di],dl
0001624D  3E050055          ds add ax,0x5500
00016251  B5AA              mov ch,0xaa
00016253  005054            add [bx+si+0x54],dl
00016256  AB                stosw
00016257  0000              add [bx+si],al
00016259  0000              add [bx+si],al
0001625B  1400              adc al,0x0
0001625D  0000              add [bx+si],al
0001625F  AE                scasb
00016260  6A56              push byte +0x56
00016262  55                push bp
00016263  B5AA              mov ch,0xaa
00016265  D555              aad 0x55
00016267  80C040            add al,0x40
0001626A  40                inc ax
0001626B  0001              add [bx+di],al
0001626D  0302              add ax,[bp+si]
0001626F  EA555AAAB5        jmp 0xb5aa:0x5a55
00016274  55                push bp
00016275  DAAA8000          fisubr dword [bp+si+0x80]
00016279  0000              add [bx+si],al
0001627B  0100              add [bx+si],ax
0001627D  0000              add [bx+si],al
0001627F  7F39              jg 0x62ba
00016281  7200              jc 0x6283
00016283  FF2C              jmp far [si]
00016285  59                pop cx
00016286  00E0              add al,ah
00016288  90                nop
00016289  2000              and [bx+si],al
0001628B  001F              add [bx],bl
0001628D  260300            add ax,[es:bx+si]
00016290  FFA5FF00          jmp [di+0xff]
00016294  F05C              lock pop sp
00016296  FF00              inc word [bx+si]
00016298  0000              add [bx+si],al
0001629A  001C              add [si],bl
0001629C  0000              add [bx+si],al
0001629E  00AC7F56          add [si+0x567f],ch
000162A2  7FB5              jg 0x6259
000162A4  FF95FF80          call [di-0x7f01]
000162A8  C040C000          rol byte [bx+si-0x40],byte 0x0
000162AC  0103              add [bp+di],ax
000162AE  03CA              add cx,dx
000162B0  FF5AFF            call far [bp+si-0x1]
000162B3  B5FF              mov ch,0xff
000162B5  D2FE              sar dh,cl
000162B7  800000            add byte [bx+si],0x0
000162BA  0001              add [bx+di],al
000162BC  0000              add [bx+si],al
000162BE  009F0F1F          add [bx+0x1f0f],bl
000162C2  00FF              add bh,bh
000162C4  FF                db 0xff
000162C5  FF00              inc word [bx+si]
000162C7  E0F0              loopne 0x62b9
000162C9  E000              loopne 0x62cb
000162CB  001F              add [bx],bl
000162CD  26FB              es sti
000162CF  00FF              add bh,bh
000162D1  A5                movsw
000162D2  FF00              inc word [bx+si]
000162D4  F05C              lock pop sp
000162D6  FF00              inc word [bx+si]
000162D8  0000              add [bx+si],al
000162DA  E010              loopne 0x62ec
000162DC  0000              add [bx+si],al
000162DE  00AC7F56          add [si+0x567f],ch
000162E2  7FB5              jg 0x6299
000162E4  FF95FF80          call [di-0x7f01]
000162E8  C040C000          rol byte [bx+si-0x40],byte 0x0
000162EC  0103              add [bp+di],ax
000162EE  02CA              add cl,dl
000162F0  FF5AAA            call far [bp+si-0x56]
000162F3  B5FF              mov ch,0xff
000162F5  D2AA8000          shr byte [bp+si+0x80],cl
000162F9  0000              add [bx+si],al
000162FB  0107              add [bx],ax
000162FD  0000              add [bx+si],al
000162FF  1F                pop ds
00016300  CD1B              int 0x1b
00016302  00FF              add bh,bh
00016304  AE                scasb
00016305  5D                pop bp
00016306  00E0              add al,ah
00016308  DEA00000          fisub word [bx+si+0x0]
0001630C  0103              add [bp+di],ax
0001630E  0378FF            add di,[bx+si-0x1]
00016311  55                push bp
00016312  FF1F              call far [bx]
00016314  FE                db 0xfe
00016315  55                push bp
00016316  FF80C0C0          inc word [bx+si-0x3f40]
0001631A  40                inc ax
0001631B  0101              add [bx+di],ax
0001631D  0101              add [bx+di],ax
0001631F  FF                db 0xff
00016320  FF                db 0xff
00016321  FFABFEFE          jmp far [bp+di-0x102]
00016325  FE                db 0xfe
00016326  56                push si
00016327  C0C0C0            rol al,byte 0xc0
0001632A  C00101            rol byte [bx+di],byte 0x1
0001632D  0101              add [bx+di],ax
0001632F  AB                stosw
00016330  FFABAB56          jmp far [bp+di+0x56ab]
00016334  FE                db 0xfe
00016335  56                push si
00016336  56                push si
00016337  C0C0C0            rol al,byte 0xc0
0001633A  C00101            rol byte [bx+di],byte 0x1
0001633D  0103              add [bp+di],ax
0001633F  FFABABFF          jmp far [bp+di-0x55]
00016343  FE                db 0xfe
00016344  56                push si
00016345  57                push di
00016346  FFE0              jmp ax
00016348  C080000000        rol byte [bx+si+0x0],byte 0x0
0001634D  0000              add [bx+si],al
0001634F  0000              add [bx+si],al
00016351  0000              add [bx+si],al
00016353  0000              add [bx+si],al
00016355  0000              add [bx+si],al
00016357  0000              add [bx+si],al
00016359  0000              add [bx+si],al
0001635B  0000              add [bx+si],al
0001635D  0000              add [bx+si],al
0001635F  54                push sp
00016360  54                push sp
00016361  0000              add [bx+si],al
00016363  A8A8              test al,0xa8
00016365  0000              add [bx+si],al
00016367  0000              add [bx+si],al
00016369  0000              add [bx+si],al
0001636B  0000              add [bx+si],al
0001636D  0000              add [bx+si],al
0001636F  0000              add [bx+si],al
00016371  0000              add [bx+si],al
00016373  0000              add [bx+si],al
00016375  0000              add [bx+si],al
00016377  0000              add [bx+si],al
00016379  0000              add [bx+si],al
0001637B  0000              add [bx+si],al
0001637D  0000              add [bx+si],al
0001637F  0000              add [bx+si],al
00016381  0000              add [bx+si],al
00016383  0000              add [bx+si],al
00016385  0000              add [bx+si],al
00016387  0000              add [bx+si],al
00016389  0000              add [bx+si],al
0001638B  0000              add [bx+si],al
0001638D  0000              add [bx+si],al
0001638F  0300              add ax,[bx+si]
00016391  0000              add [bx+si],al
00016393  C00000            rol byte [bx+si],byte 0x0
00016396  0000              add [bx+si],al
00016398  0000              add [bx+si],al
0001639A  0000              add [bx+si],al
0001639C  0000              add [bx+si],al
0001639E  0000              add [bx+si],al
000163A0  0000              add [bx+si],al
000163A2  0000              add [bx+si],al
000163A4  0000              add [bx+si],al
000163A6  0000              add [bx+si],al
000163A8  0000              add [bx+si],al
000163AA  0000              add [bx+si],al
000163AC  0000              add [bx+si],al
000163AE  0000              add [bx+si],al
000163B0  0000              add [bx+si],al
000163B2  0000              add [bx+si],al
000163B4  0000              add [bx+si],al
000163B6  0000              add [bx+si],al
000163B8  0000              add [bx+si],al
000163BA  0000              add [bx+si],al
000163BC  0000              add [bx+si],al
000163BE  0000              add [bx+si],al
000163C0  0000              add [bx+si],al
000163C2  0000              add [bx+si],al
000163C4  0000              add [bx+si],al
000163C6  0000              add [bx+si],al
000163C8  0000              add [bx+si],al
000163CA  0000              add [bx+si],al
000163CC  0000              add [bx+si],al
000163CE  0000              add [bx+si],al
000163D0  0000              add [bx+si],al
000163D2  F000552A          lock add [di+0x2a],dl
000163D6  55                push bp
000163D7  0000              add [bx+si],al
000163D9  A05001            mov al,[0x150]
000163DC  0000              add [bx+si],al
000163DE  03F8              add di,ax
000163E0  F000BCAA55        lock add [si+0x55aa],bh
000163E5  2A55A8            sub dl,[di-0x58]
000163E8  54                push sp
000163E9  A854              test al,0x54
000163EB  0202              add al,[bp+si]
000163ED  0303              add ax,[bp+di]
000163EF  BCB4B4            mov sp,0xb4b4
000163F2  9C                pushf
000163F3  AA                stosb
000163F4  55                push bp
000163F5  AA                stosb
000163F6  55                push bp
000163F7  A850              test al,0x50
000163F9  A00003            mov al,[0x300]
000163FC  0000              add [bx+si],al
000163FE  00FC              add ah,bh
00016400  0000              add [bx+si],al
00016402  0000              add [bx+si],al
00016404  0000              add [bx+si],al
00016406  0000              add [bx+si],al
00016408  0000              add [bx+si],al
0001640A  0000              add [bx+si],al
0001640C  040B              add al,0xb
0001640E  0460              add al,0x60
00016410  92                xchg ax,dx
00016411  0DB200            or ax,0xb2
00016414  0000              add [bx+si],al
00016416  0000              add [bx+si],al
00016418  0000              add [bx+si],al
0001641A  0005              add [di],al
0001641C  041A              add al,0x1a
0001641E  058AF2            add ax,0xf28a
00016421  F5                cmc
00016422  0A00              or al,[bx+si]
00016424  00800000          add [bx+si+0x0],al
00016428  0000              add [bx+si],al
0001642A  0005              add [di],al
0001642C  050404            add ax,0x404
0001642F  0A0A              or cl,[bp+si]
00016431  0A6200            or ah,[bp+si+0x0]
00016434  0000              add [bx+si],al
00016436  0000              add [bx+si],al
00016438  0000              add [bx+si],al
0001643A  0004              add [si],al
0001643C  07                pop es
0001643D  0D1F02            or ax,0x21f
00016440  FE                db 0xfe
00016441  57                push di
00016442  FF00              inc word [bx+si]
00016444  0000              add [bx+si],al
00016446  800000            add byte [bx+si],0x0
00016449  0000              add [bx+si],al
0001644B  00060F0F          add [0xf0f],al
0001644F  70FB              jo 0x644c
00016451  FF9F0000          call far [bx+0x0]
00016455  800000            add byte [bx+si],0x0
00016458  0000              add [bx+si],al
0001645A  000F              add [bx],cl
0001645C  0F                db 0x0f
0001645D  0F                db 0x0f
0001645E  0C8F              or al,0x8f
00016460  FFAF6300          jmp far [bx+0x63]
00016464  0000              add [bx+si],al
00016466  0000              add [bx+si],al
00016468  0000              add [bx+si],al
0001646A  000D              add [di],cl
0001646C  0D0C0C            or ax,0xc0c
0001646F  636B6B            arpl [bp+di+0x6b],bp
00016472  6300              arpl [bx+si],ax
00016474  0000              add [bx+si],al
00016476  0000              add [bx+si],al
00016478  0000              add [bx+si],al
0001647A  000C              add [si],cl
0001647C  0F0E              femms
0001647E  1F                pop ds
0001647F  03FF              add di,di
00016481  AB                stosw
00016482  FF00              inc word [bx+si]
00016484  00808000          add [bx+si+0x80],al
00016488  0000              add [bx+si],al
0001648A  0001              add [bx+di],al
0001648C  0000              add [bx+si],al
0001648E  0100              add [bx+si],ax
00016490  1405              adc al,0x5
00016492  45                inc bp
00016493  0000              add [bx+si],al
00016495  005400            add [si+0x0],dl
00016498  0000              add [bx+si],al
0001649A  0001              add [bx+di],al
0001649C  0001              add [bx+di],al
0001649E  004505            add [di+0x5],al
000164A1  050555            add ax,0x5505
000164A4  50                push ax
000164A5  40                inc ax
000164A6  0000              add [bx+si],al
000164A8  0000              add [bx+si],al
000164AA  0000              add [bx+si],al
000164AC  0002              add [bp+si],al
000164AE  0005              add [di],al
000164B0  0404              add al,0x4
000164B2  0000              add [bx+si],al
000164B4  0000              add [bx+si],al
000164B6  0000              add [bx+si],al
000164B8  0000              add [bx+si],al
000164BA  0004              add [si],al
000164BC  0008              add [bx+si],cl
000164BE  0008              add [bx+si],cl
000164C0  0400              add al,0x0
000164C2  0000              add [bx+si],al
000164C4  0000              add [bx+si],al
000164C6  0000              add [bx+si],al
000164C8  0000              add [bx+si],al
000164CA  0001              add [bx+di],al
000164CC  030605DE          add ax,[0xde05]
000164D0  17                pop ss
000164D1  F5                cmc
000164D2  B500              mov ch,0x0
000164D4  C07E5700          sar byte [bp+0x57],byte 0x0
000164D8  0000              add [bx+si],al
000164DA  B005              mov al,0x5
000164DC  06                push es
000164DD  0203              add al,[bp+di]
000164DF  B575              mov ch,0x75
000164E1  F5                cmc
000164E2  B555              mov ch,0x55
000164E4  55                push bp
000164E5  55                push bp
000164E6  55                push bp
000164E7  307060            xor [bx+si+0x60],dh
000164EA  E001              loopne 0x64ed
000164EC  0303              add ax,[bp+di]
000164EE  07                pop es
000164EF  B565              mov ch,0x65
000164F1  D575              aad 0x75
000164F3  55                push bp
000164F4  57                push di
000164F5  5E                pop si
000164F6  58                pop ax
000164F7  C080000007        rol byte [bx+si+0x0],byte 0x7
000164FC  050F00            add ax,0xf
000164FF  F2F9              repne stc
00016501  F000E0            lock add al,ah
00016504  800000            add byte [bx+si],0x0
00016507  0000              add [bx+si],al
00016509  0000              add [bx+si],al
0001650B  0003              add [bp+di],al
0001650D  06                push es
0001650E  04EC              add al,0xec
00016510  03E0              add sp,ax
00016512  B000              mov al,0x0
00016514  807C0300          cmp byte [si+0x3],0x0
00016518  0000              add [bx+si],al
0001651A  B004              mov al,0x4
0001651C  06                push es
0001651D  0203              add al,[bp+di]
0001651F  B050              mov al,0x50
00016521  E0B0              loopne 0x64d3
00016523  0000              add [bx+si],al
00016525  0000              add [bx+si],al
00016527  306060            xor [bx+si+0x60],ah
0001652A  C00101            rol byte [bx+di],byte 0x1
0001652D  0103              add [bp+di],ax
0001652F  B060              mov al,0x60
00016531  D020              shl byte [bx+si],1
00016533  0107              add [bx],ax
00016535  1C70              sbb al,0x70
00016537  800000            add byte [bx+si],0x0
0001653A  0003              add [bp+di],al
0001653C  050700            add ax,0x7
0001653F  D7                xlatb
00016540  EB50              jmp short 0x6592
00016542  00A00000          add [bx+si+0x0],ah
00016546  0000              add [bx+si],al
00016548  0000              add [bx+si],al
0001654A  0000              add [bx+si],al
0001654C  A880              test al,0x80
0001654E  54                push sp
0001654F  0228              add ch,[bx+si]
00016551  50                push ax
00016552  A4                movsb
00016553  00800000          add [bx+si+0x0],al
00016557  150125            adc ax,0x2501
0001655A  0221              add ah,[bx+di]
0001655C  2217              and dl,[bx]
0001655E  005184            add [bx+di-0x7c],dl
00016561  00800000          add [bx+si+0x0],al
00016565  004022            add [bx+si+0x22],al
00016568  2800              sub [bx+si],al
0001656A  0000              add [bx+si],al
0001656C  00060650          add [0x5006],al
00016570  0A6060            or ah,[bx+si+0x60]
00016573  2020              and [bx+si],ah
00016575  0300              add ax,[bx+si]
00016577  0000              add [bx+si],al
00016579  E030              loopne 0x65ab
0001657B  07                pop es
0001657C  0000              add [bx+si],al
0001657E  00F0              add al,dh
00016580  60                pusha
00016581  60                pusha
00016582  0001              add [bx+di],al
00016584  0303              add ax,[bp+di]
00016586  00E0              add al,ah
00016588  00F0              add al,dh
0001658A  0000              add [bx+si],al
0001658C  A8F8              test al,0xf8
0001658E  6D                insw
0001658F  1F                pop ds
00016590  7FFF              jg 0x6591
00016592  FF                db 0xff
00016593  FC                cld
00016594  FF                db 0xff
00016595  FF                db 0xff
00016596  FF15              call [di]
00016598  1F                pop ds
00016599  BBCE31            mov bx,0x31ce
0001659C  3D1D00            cmp ax,0x1d
0001659F  FF9F80C0          call far [bx-0x3f80]
000165A3  FC                cld
000165A4  F00001            lock add [bx+di],al
000165A7  DE                db 0xde
000165A8  D8C0              fadd st0
000165AA  800000            add byte [bx+si],0x0
000165AD  06                push es
000165AE  06                push es
000165AF  701F              jo 0x65d0
000165B1  60                pusha
000165B2  60                pusha
000165B3  07                pop es
000165B4  0403              add al,0x3
000165B6  0000              add [bx+si],al
000165B8  00E0              add al,ah
000165BA  3007              xor [bx],al
000165BC  0000              add [bx+si],al
000165BE  00F0              add al,dh
000165C0  60                pusha
000165C1  60                pusha
000165C2  0001              add [bx+di],al
000165C4  0303              add ax,[bp+di]
000165C6  00E0              add al,ah
000165C8  00F0              add al,dh
000165CA  0000              add [bx+si],al
000165CC  0000              add [bx+si],al
000165CE  0000              add [bx+si],al
000165D0  0000              add [bx+si],al
000165D2  0020              add [bx+si],ah
000165D4  0802              or [bp+si],al
000165D6  0800              or [bx+si],al
000165D8  0000              add [bx+si],al
000165DA  800000            add byte [bx+si],0x0
000165DD  0000              add [bx+si],al
000165DF  0000              add [bx+si],al
000165E1  0003              add [bp+di],al
000165E3  0000              add [bx+si],al
000165E5  00B00040          add [bx+si+0x4000],dh
000165E9  0000              add [bx+si],al
000165EB  0000              add [bx+si],al
000165ED  0000              add [bx+si],al
000165EF  06                push es
000165F0  0000              add [bx+si],al
000165F2  00D8              add al,bl
000165F4  D87000            fdiv dword [bx+si+0x0]
000165F7  0000              add [bx+si],al
000165F9  0000              add [bx+si],al
000165FB  0000              add [bx+si],al
000165FD  0000              add [bx+si],al
000165FF  0000              add [bx+si],al
00016601  0000              add [bx+si],al
00016603  0000              add [bx+si],al
00016605  0000              add [bx+si],al
00016607  0000              add [bx+si],al
00016609  0000              add [bx+si],al
0001660B  0305              add ax,[di]
0001660D  050555            add ax,0x5505
00016610  0000              add [bx+si],al
00016612  005500            add [di+0x0],dl
00016615  07                pop es
00016616  0F4040C0          cmovo ax,[bx+si-0x40]
0001661A  C00505            rol byte [di],byte 0x5
0001661D  050500            add ax,0x5
00016620  0000              add [bx+si],al
00016622  0005              add [di],al
00016624  0E                push cs
00016625  0000              add [bx+si],al
00016627  40                inc ax
00016628  C0404003          rol byte [bx+si+0x40],byte 0x3
0001662C  05052A            add ax,0x2a05
0001662F  FF5502            call [di+0x2]
00016632  AA                stosb
00016633  FF5504            call [di+0x4]
00016636  AA                stosb
00016637  C04040A8          rol byte [bx+si+0x40],byte 0xa8
0001663B  6D                insw
0001663C  DA                db 0xda
0001663D  FF00              inc word [bx+si]
0001663F  55                push bp
00016640  AA                stosb
00016641  FF00              inc word [bx+si]
00016643  56                push si
00016644  AB                stosw
00016645  FF00              inc word [bx+si]
00016647  AC                lodsb
00016648  56                push si
00016649  FE00              inc byte [bx+si]
0001664B  0305              add ax,[di]
0001664D  050555            add ax,0x5505
00016650  0000              add [bx+si],al
00016652  005500            add [di+0x0],dl
00016655  07                pop es
00016656  0D4040            or ax,0x4040
00016659  C0400505          rol byte [bx+si+0x5],byte 0x5
0001665D  05050A            add ax,0xa05
00016660  0000              add [bx+si],al
00016662  00DE              add dh,bl
00016664  0C00              or al,0x0
00016666  00C0              add al,al
00016668  40                inc ax
00016669  40                inc ax
0001666A  40                inc ax
0001666B  0305              add ax,[di]
0001666D  052AFF            add ax,0xff2a
00016670  55                push bp
00016671  02AAFF55          add ch,[bp+si+0x55ff]
00016675  04AA              add al,0xaa
00016677  C04040A8          rol byte [bx+si+0x40],byte 0xa8
0001667B  6D                insw
0001667C  DA                db 0xda
0001667D  FF00              inc word [bx+si]
0001667F  55                push bp
00016680  AA                stosb
00016681  FF00              inc word [bx+si]
00016683  56                push si
00016684  AB                stosw
00016685  FF00              inc word [bx+si]
00016687  AC                lodsb
00016688  56                push si
00016689  FE00              inc byte [bx+si]
0001668B  0305              add ax,[di]
0001668D  050555            add ax,0x5505
00016690  0000              add [bx+si],al
00016692  005500            add [di+0x0],dl
00016695  0000              add [bx+si],al
00016697  40                inc ax
00016698  40                inc ax
00016699  40                inc ax
0001669A  40                inc ax
0001669B  050505            add ax,0x505
0001669E  050AC3            add ax,0xc30a
000166A1  77DD              ja 0x6680
000166A3  DA01              fiadd dword [bx+di]
000166A5  BBEEC0            mov bx,0xc0ee
000166A8  40                inc ax
000166A9  C0C003            rol al,byte 0x3
000166AC  05052A            add ax,0x2a05
000166AF  55                push bp
000166B0  55                push bp
000166B1  02AA5555          add ch,[bp+si+0x5555]
000166B5  04AA              add al,0xaa
000166B7  40                inc ax
000166B8  40                inc ax
000166B9  40                inc ax
000166BA  A864              test al,0x64
000166BC  C8AA0000          enter 0xaa,0x0
000166C0  00AA0002          add [bp+si+0x200],ch
000166C4  01AA0004          add [bp+si+0x400],bp
000166C8  02AA0000          add ch,[bp+si+0x0]
000166CC  0000              add [bx+si],al
000166CE  0000              add [bx+si],al
000166D0  0000              add [bx+si],al
000166D2  0000              add [bx+si],al
000166D4  0000              add [bx+si],al
000166D6  0000              add [bx+si],al
000166D8  0000              add [bx+si],al
000166DA  0000              add [bx+si],al
000166DC  0000              add [bx+si],al
000166DE  0000              add [bx+si],al
000166E0  0000              add [bx+si],al
000166E2  0000              add [bx+si],al
000166E4  0000              add [bx+si],al
000166E6  0000              add [bx+si],al
000166E8  0000              add [bx+si],al
000166EA  0080E0F8          add [bx+si-0x720],al
000166EE  7900              jns 0x66f0
000166F0  0000              add [bx+si],al
000166F2  98                cbw
000166F3  0000              add [bx+si],al
000166F5  0019              add [bx+di],bl
000166F7  0107              add [bx],ax
000166F9  1F                pop ds
000166FA  9E                sahf
000166FB  391F              cmp [bx],bx
000166FD  07                pop es
000166FE  009999FF          add [bx+di-0x67],bl
00016702  009999FF          add [bx+di-0x67],bl
00016706  009CF8E0          add [si-0x1f08],bl
0001670A  0000              add [bx+si],al
0001670C  0000              add [bx+si],al
0001670E  000C              add [si],cl
00016710  0C0C              or al,0xc
00016712  0C30              or al,0x30
00016714  3030              xor [bx+si],dh
00016716  3000              xor [bx+si],al
00016718  0000              add [bx+si],al
0001671A  0000              add [bx+si],al
0001671C  0000              add [bx+si],al
0001671E  007C30            add [si+0x30],bh
00016721  180C              sbb [si],cl
00016723  3E0C18            ds or al,0x18
00016726  3000              xor [bx+si],al
00016728  0000              add [bx+si],al
0001672A  0080A0E8          add [bx+si-0x1760],al
0001672E  7106              jno 0x6736
00016730  0301              add ax,[bx+di]
00016732  1060C0            adc [bx+si-0x40],ah
00016735  800801            or byte [bx+si],0x1
00016738  05178E            add ax,0x8e17
0001673B  381F              cmp [bx],bl
0001673D  07                pop es
0001673E  008911FF          add [bx+di-0xef],cl
00016742  0011              add [bx+di],dl
00016744  88FF              mov bh,bh
00016746  001C              add [si],bl
00016748  F8                clc
00016749  E000              loopne 0x674b
0001674B  0000              add [bx+si],al
0001674D  0000              add [bx+si],al
0001674F  0000              add [bx+si],al
00016751  0000              add [bx+si],al
00016753  0000              add [bx+si],al
00016755  0000              add [bx+si],al
00016757  0000              add [bx+si],al
00016759  0000              add [bx+si],al
0001675B  0000              add [bx+si],al
0001675D  0000              add [bx+si],al
0001675F  0000              add [bx+si],al
00016761  0000              add [bx+si],al
00016763  0000              add [bx+si],al
00016765  0000              add [bx+si],al
00016767  0000              add [bx+si],al
00016769  0000              add [bx+si],al
0001676B  0080E070          add [bx+si+0x70e0],al
0001676F  0000              add [bx+si],al
00016771  0000              add [bx+si],al
00016773  0000              add [bx+si],al
00016775  0000              add [bx+si],al
00016777  0001              add [bx+di],al
00016779  07                pop es
0001677A  0E                push cs
0001677B  381F              cmp [bx],bl
0001677D  07                pop es
0001677E  0000              add [bx+si],al
00016780  11FF              adc di,di
00016782  0000              add [bx+si],al
00016784  88FF              mov bh,bh
00016786  001C              add [si],bl
00016788  F8                clc
00016789  E000              loopne 0x678b
0001678B  030F              add cx,[bx]
0001678D  3C7F              cmp al,0x7f
0001678F  F0F000C0          lock add al,al
00016793  0000              add [bx+si],al
00016795  0000              add [bx+si],al
00016797  0000              add [bx+si],al
00016799  0000              add [bx+si],al
0001679B  C0FFC0            sar bh,byte 0xc0
0001679E  FF00              inc word [bx+si]
000167A0  0000              add [bx+si],al
000167A2  0000              add [bx+si],al
000167A4  0000              add [bx+si],al
000167A6  0000              add [bx+si],al
000167A8  0000              add [bx+si],al
000167AA  00FF              add bh,bh
000167AC  C0FFC0            sar bh,byte 0xc0
000167AF  0000              add [bx+si],al
000167B1  0000              add [bx+si],al
000167B3  0000              add [bx+si],al
000167B5  0000              add [bx+si],al
000167B7  0000              add [bx+si],al
000167B9  0000              add [bx+si],al
000167BB  7F3C              jg 0x67f9
000167BD  0F03C0            lsl ax,ax
000167C0  00F0              add al,dh
000167C2  F00000            lock add [bx+si],al
000167C5  0000              add [bx+si],al
000167C7  0000              add [bx+si],al
000167C9  0000              add [bx+si],al
000167CB  030F              add cx,[bx]
000167CD  3C6A              cmp al,0x6a
000167CF  F0A00080          lock mov al,[0x8000]
000167D3  0000              add [bx+si],al
000167D5  000C              add [si],cl
000167D7  0000              add [bx+si],al
000167D9  0000              add [bx+si],al
000167DB  C0EAC0            shr dl,byte 0xc0
000167DE  EA0000030E        jmp 0xe03:0x0
000167E3  3CE7              cmp al,0xe7
000167E5  800000            add byte [bx+si],0x0
000167E8  FF00              inc word [bx+si]
000167EA  00EA              add dl,ch
000167EC  C0EAC0            shr dl,byte 0xc0
000167EF  0300              add ax,[bx+si]
000167F1  0000              add [bx+si],al
000167F3  80E73C            and bh,0x3c
000167F6  0C00              or al,0x0
000167F8  FF00              inc word [bx+si]
000167FA  006A3C            add [bp+si+0x3c],ch
000167FD  0F038000A0        lsl ax,[bx+si-0x6000]
00016802  F00000            lock add [bx+si],al
00016805  0000              add [bx+si],al
00016807  0000              add [bx+si],al
00016809  0000              add [bx+si],al
0001680B  030F              add cx,[bx]
0001680D  3C68              cmp al,0x68
0001680F  F00000            lock add [bx+si],al
00016812  0000              add [bx+si],al
00016814  0000              add [bx+si],al
00016816  0000              add [bx+si],al
00016818  0000              add [bx+si],al
0001681A  00C0              add al,al
0001681C  E8C0E8            call 0x50df
0001681F  0000              add [bx+si],al
00016821  0000              add [bx+si],al
00016823  0000              add [bx+si],al
00016825  0000              add [bx+si],al
00016827  0000              add [bx+si],al
00016829  0000              add [bx+si],al
0001682B  E8C0E8            call 0x50ee
0001682E  C00000            rol byte [bx+si],byte 0x0
00016831  0000              add [bx+si],al
00016833  0000              add [bx+si],al
00016835  0000              add [bx+si],al
00016837  0000              add [bx+si],al
00016839  0000              add [bx+si],al
0001683B  683C0F            push word 0xf3c
0001683E  0300              add ax,[bx+si]
00016840  0000              add [bx+si],al
00016842  F00000            lock add [bx+si],al
00016845  0000              add [bx+si],al
00016847  0000              add [bx+si],al
00016849  0000              add [bx+si],al
0001684B  07                pop es
0001684C  1F                pop ds
0001684D  3979FF            cmp [bx+di-0x1],di
00016850  99                cwd
00016851  99                cwd
00016852  98                cbw
00016853  FF999919          call far [bx+di+0x1999]
00016857  E0F8              loopne 0x6851
00016859  9C                pushf
0001685A  9E                sahf
0001685B  F8                clc
0001685C  E080              loopne 0x67de
0001685E  0000              add [bx+si],al
00016860  0000              add [bx+si],al
00016862  0000              add [bx+si],al
00016864  0000              add [bx+si],al
00016866  001F              add [bx],bl
00016868  07                pop es
00016869  0100              add [bx+si],ax
0001686B  0000              add [bx+si],al
0001686D  0000              add [bx+si],al
0001686F  0000              add [bx+si],al
00016871  0000              add [bx+si],al
00016873  0000              add [bx+si],al
00016875  0000              add [bx+si],al
00016877  0000              add [bx+si],al
00016879  0000              add [bx+si],al
0001687B  0000              add [bx+si],al
0001687D  0000              add [bx+si],al
0001687F  0000              add [bx+si],al
00016881  0000              add [bx+si],al
00016883  0000              add [bx+si],al
00016885  0000              add [bx+si],al
00016887  0000              add [bx+si],al
00016889  0000              add [bx+si],al
0001688B  07                pop es
0001688C  1F                pop ds
0001688D  3871FF            cmp [bx+di-0x1],dh
00016890  118910FF          adc [bx+di-0xf0],cx
00016894  8811              mov [bx+di],dl
00016896  08E0              or al,ah
00016898  F8                clc
00016899  1C8E              sbb al,0x8e
0001689B  E8A080            call 0xe93e
0001689E  0001              add [bx+di],al
000168A0  03060C80          add ax,[0x800c]
000168A4  C0603017          shl byte [bx+si+0x30],byte 0x17
000168A8  050100            add ax,0x1
000168AB  0000              add [bx+si],al
000168AD  0000              add [bx+si],al
000168AF  1830              sbb [bx+si],dh
000168B1  7C0C              jl 0x68bf
000168B3  180C              sbb [si],cl
000168B5  3E3000            xor [ds:bx+si],al
000168B8  0000              add [bx+si],al
000168BA  0000              add [bx+si],al
000168BC  0000              add [bx+si],al
000168BE  000C              add [si],cl
000168C0  0C0C              or al,0xc
000168C2  0030              add [bx+si],dh
000168C4  3030              xor [bx+si],dh
000168C6  0000              add [bx+si],al
000168C8  0000              add [bx+si],al
000168CA  0007              add [bx],al
000168CC  1F                pop ds
000168CD  3870FF            cmp [bx+si-0x1],dh
000168D0  1100              adc [bx+si],ax
000168D2  00FF              add bh,bh
000168D4  8800              mov [bx+si],al
000168D6  00E0              add al,ah
000168D8  F8                clc
000168D9  1C0E              sbb al,0xe
000168DB  E080              loopne 0x685d
000168DD  0000              add [bx+si],al
000168DF  0000              add [bx+si],al
000168E1  0000              add [bx+si],al
000168E3  0000              add [bx+si],al
000168E5  0000              add [bx+si],al
000168E7  07                pop es
000168E8  0100              add [bx+si],ax
000168EA  0000              add [bx+si],al
000168EC  0000              add [bx+si],al
000168EE  0000              add [bx+si],al
000168F0  0000              add [bx+si],al
000168F2  0000              add [bx+si],al
000168F4  0000              add [bx+si],al
000168F6  0000              add [bx+si],al
000168F8  0000              add [bx+si],al
000168FA  0000              add [bx+si],al
000168FC  0000              add [bx+si],al
000168FE  0000              add [bx+si],al
00016900  0000              add [bx+si],al
00016902  0000              add [bx+si],al
00016904  0000              add [bx+si],al
00016906  0000              add [bx+si],al
00016908  0000              add [bx+si],al
0001690A  0000              add [bx+si],al
0001690C  0000              add [bx+si],al
0001690E  0000              add [bx+si],al
00016910  0000              add [bx+si],al
00016912  000F              add [bx],cl
00016914  0F0003            sldt [bp+di]
00016917  C0                db 0xc0
00016918  F03CFE            lock cmp al,0xfe
0001691B  0000              add [bx+si],al
0001691D  0000              add [bx+si],al
0001691F  0000              add [bx+si],al
00016921  0000              add [bx+si],al
00016923  0000              add [bx+si],al
00016925  0000              add [bx+si],al
00016927  03FF              add di,di
00016929  03FF              add di,di
0001692B  0000              add [bx+si],al
0001692D  0000              add [bx+si],al
0001692F  0000              add [bx+si],al
00016931  0000              add [bx+si],al
00016933  0000              add [bx+si],al
00016935  0000              add [bx+si],al
00016937  FF03              inc word [bp+di]
00016939  FF03              inc word [bp+di]
0001693B  0000              add [bx+si],al
0001693D  0000              add [bx+si],al
0001693F  0000              add [bx+si],al
00016941  0000              add [bx+si],al
00016943  0300              add ax,[bx+si]
00016945  0F                db 0x0f
00016946  0FFE3C            paddd mm7,[si]
00016949  F0C00000          lock rol byte [bx+si],byte 0x0
0001694D  0000              add [bx+si],al
0001694F  0000              add [bx+si],al
00016951  0030              add [bx+si],dh
00016953  0F05              syscall
00016955  0001              add [bx+di],al
00016957  C0                db 0xc0
00016958  F03C56            lock cmp al,0x56
0001695B  00FF              add bh,bh
0001695D  0000              add [bx+si],al
0001695F  3CE7              cmp al,0xe7
00016961  0100              add [bx+si],ax
00016963  0000              add [bx+si],al
00016965  C0                db 0xc0
00016966  7003              jo 0x696b
00016968  57                push di
00016969  035700            add dx,[bx+0x0]
0001696C  FF00              inc word [bx+si]
0001696E  0001              add [bx+di],al
00016970  E73C              out 0x3c,ax
00016972  30C0              xor al,al
00016974  0000              add [bx+si],al
00016976  005703            add [bx+0x3],dl
00016979  57                push di
0001697A  0300              add ax,[bx+si]
0001697C  0000              add [bx+si],al
0001697E  0000              add [bx+si],al
00016980  0000              add [bx+si],al
00016982  0001              add [bx+di],al
00016984  0005              add [di],al
00016986  0F563C            orps xmm7,oword [si]
00016989  F0C00000          lock rol byte [bx+si],byte 0x0
0001698D  0000              add [bx+si],al
0001698F  0000              add [bx+si],al
00016991  0000              add [bx+si],al
00016993  0F0000            sldt [bx+si]
00016996  00C0              add al,al
00016998  F03C16            lock cmp al,0x16
0001699B  0000              add [bx+si],al
0001699D  0000              add [bx+si],al
0001699F  0000              add [bx+si],al
000169A1  0000              add [bx+si],al
000169A3  0000              add [bx+si],al
000169A5  0000              add [bx+si],al
000169A7  0317              add dx,[bx]
000169A9  0317              add dx,[bx]
000169AB  0000              add [bx+si],al
000169AD  0000              add [bx+si],al
000169AF  0000              add [bx+si],al
000169B1  0000              add [bx+si],al
000169B3  0000              add [bx+si],al
000169B5  0000              add [bx+si],al
000169B7  17                pop ss
000169B8  0317              add dx,[bx]
000169BA  0300              add ax,[bx+si]
000169BC  0000              add [bx+si],al
000169BE  0000              add [bx+si],al
000169C0  0000              add [bx+si],al
000169C2  0000              add [bx+si],al
000169C4  0000              add [bx+si],al
000169C6  0F163C            movhps xmm7,qword [si]
000169C9  F0C0003F          lock rol byte [bx+si],byte 0x3f
000169CD  3030              xor [bx+si],dh
000169CF  00FF              add bh,bh
000169D1  0004              add [si],al
000169D3  00FF              add bh,bh
000169D5  0101              add [bx+di],ax
000169D7  00C0              add al,al
000169D9  E0F0              loopne 0x69cb
000169DB  3031              xor [bx+di],dh
000169DD  3131              xor [bx+di],si
000169DF  55                push bp
000169E0  5B                pop bx
000169E1  6E                outsb
000169E2  5B                pop bx
000169E3  41                inc cx
000169E4  51                push cx
000169E5  D151F8            rcl word [bx+di-0x8],1
000169E8  F8                clc
000169E9  F8                clc
000169EA  F8                clc
000169EB  3030              xor [bx+si],dh
000169ED  303F              xor [bx],bh
000169EF  55                push bp
000169F0  0400              add al,0x0
000169F2  FF4101            inc word [bx+di+0x1]
000169F5  01FF              add di,di
000169F7  F8                clc
000169F8  F8                clc
000169F9  F8                clc
000169FA  F8                clc
000169FB  0A02              or al,[bp+si]
000169FD  0000              add [bx+si],al
000169FF  AA                stosb
00016A00  AA                stosb
00016A01  0000              add [bx+si],al
00016A03  AA                stosb
00016A04  AA                stosb
00016A05  0000              add [bx+si],al
00016A07  B8A800            mov ax,0xa8
00016A0A  0000              add [bx+si],al
00016A0C  3F                aas
00016A0D  3030              xor [bx+si],dh
00016A0F  00FF              add bh,bh
00016A11  0000              add [bx+si],al
00016A13  00FF              add bh,bh
00016A15  0101              add [bx+di],ax
00016A17  00808080          add [bx+si-0x7f80],al
00016A1B  3030              xor [bx+si],dh
00016A1D  3030              xor [bx+si],dh
00016A1F  0000              add [bx+si],al
00016A21  0000              add [bx+si],al
00016A23  0101              add [bx+di],ax
00016A25  0101              add [bx+di],ax
00016A27  8080808030        add byte [bx+si-0x7f80],0x30
00016A2C  3030              xor [bx+si],dh
00016A2E  3F                aas
00016A2F  0000              add [bx+si],al
00016A31  00FF              add bh,bh
00016A33  0101              add [bx+di],ax
00016A35  01FF              add di,di
00016A37  8080808000        add byte [bx+si-0x7f80],0x0
00016A3C  0000              add [bx+si],al
00016A3E  0000              add [bx+si],al
00016A40  0000              add [bx+si],al
00016A42  0000              add [bx+si],al
00016A44  0000              add [bx+si],al
00016A46  0000              add [bx+si],al
00016A48  0000              add [bx+si],al
00016A4A  0000              add [bx+si],al
00016A4C  000F              add [bx],cl
00016A4E  0F0000            sldt [bx+si]
00016A51  FF                db 0xff
00016A52  FF00              inc word [bx+si]
00016A54  00FE              add dh,bh
00016A56  FE00              inc byte [bx+si]
00016A58  40                inc ax
00016A59  60                pusha
00016A5A  700F              jo 0x6a6b
00016A5C  0F                db 0x0f
00016A5D  0F                db 0x0f
00016A5E  0FFF              ud0
00016A60  FF                db 0xff
00016A61  FF                db 0xff
00016A62  FF                db 0xff
00016A63  FE                db 0xfe
00016A64  FE                db 0xfe
00016A65  FE                db 0xfe
00016A66  FE                db 0xfe
00016A67  7878              js 0x6ae1
00016A69  7878              js 0x6ae3
00016A6B  0F                db 0x0f
00016A6C  0F                db 0x0f
00016A6D  0F                db 0x0f
00016A6E  00FF              add bh,bh
00016A70  FF                db 0xff
00016A71  FF00              inc word [bx+si]
00016A73  FE                db 0xfe
00016A74  FE                db 0xfe
00016A75  FE00              inc byte [bx+si]
00016A77  7878              js 0x6af1
00016A79  7878              js 0x6af3
00016A7B  1F                pop ds
00016A7C  07                pop es
00016A7D  0000              add [bx+si],al
00016A7F  FF                db 0xff
00016A80  FF00              inc word [bx+si]
00016A82  00FF              add bh,bh
00016A84  FF00              inc word [bx+si]
00016A86  00F8              add al,bh
00016A88  F8                clc
00016A89  0000              add [bx+si],al
00016A8B  304100            xor [bx+di+0x0],al
00016A8E  005108            add [bx+di+0x8],dl
00016A91  0402              add al,0x2
00016A93  54                push sp
00016A94  A0280A            mov al,[0xa28]
00016A97  1004              adc [si],al
00016A99  0A14              or dl,[si]
00016A9B  0002              add [bp+si],al
00016A9D  2102              and [bp+si],ax
00016A9F  001A              add [bp+si],bl
00016AA1  206000            and [bx+si+0x0],ah
00016AA4  0000              add [bx+si],al
00016AA6  0000              add [bx+si],al
00016AA8  0F0301            lsl ax,[bx+di]
00016AAB  0400              add al,0x0
00016AAD  4A                dec dx
00016AAE  0414              add al,0x14
00016AB0  00810000          add [bx+di+0x0],al
00016AB4  0000              add [bx+si],al
00016AB6  2100              and [bx+si],ax
00016AB8  00EA              add dl,ch
00016ABA  800080            add byte [bx+si],0x80
00016ABD  54                push sp
00016ABE  0000              add [bx+si],al
00016AC0  0E                push cs
00016AC1  7C00              jl 0x6ac3
00016AC3  120B              adc cl,[bp+di]
00016AC5  1000              adc [bx+si],al
00016AC7  0000              add [bx+si],al
00016AC9  A5                movsw
00016ACA  001D              add [di],bl
00016ACC  FE                db 0xfe
00016ACD  FF                db 0xff
00016ACE  FF01              inc word [bx+di]
00016AD0  A0D0A8            mov al,[0xa8d0]
00016AD3  FF                db 0xff
00016AD4  FF1F              call far [bx]
00016AD6  05E0F8            add ax,0xf8e0
00016AD9  F4                hlt
00016ADA  E800E8            call 0x52dd
00016ADD  D4F8              aam 0xf8
00016ADF  001F              add [bx],bl
00016AE1  3F                aas
00016AE2  5F                pop di
00016AE3  00FF              add bh,bh
00016AE5  FF                db 0xff
00016AE6  FF00              inc word [bx+si]
00016AE8  FA                cli
00016AE9  FD                std
00016AEA  FE                db 0xfe
00016AEB  F000B5FA2B        lock add [di+0x2bfa],dh
00016AF0  0054FA            add [si-0x6],dl
00016AF3  FF00              inc word [bx+si]
00016AF5  0081FF00          add [bx+di+0xff],al
00016AF9  FF                db 0xff
00016AFA  FF                db 0xff
00016AFB  FF7709            push word [bx+0x9]
00016AFE  00FF              add bh,bh
00016B00  F9                stc
00016B01  E300              jcxz 0x6b03
00016B03  43                inc bx
00016B04  A24100            mov [0x41],al
00016B07  FF                db 0xff
00016B08  FF5A00            call far [bp+si+0x0]
00016B0B  0014              add [si],dl
00016B0D  0A01              or al,[bx+di]
00016B0F  0000              add [bx+si],al
00016B11  800001            add byte [bx+si],0x1
00016B14  0A00              or al,[bx+si]
00016B16  0000              add [bx+si],al
00016B18  0000              add [bx+si],al
00016B1A  800000            add byte [bx+si],0x0
00016B1D  80400000          add byte [bx+si+0x0],0x0
00016B21  051000            add ax,0x10
00016B24  AA                stosb
00016B25  0000              add [bx+si],al
00016B27  00800000          add [bx+si+0x0],al
00016B2B  0000              add [bx+si],al
00016B2D  00900000          add [bx+si+0x0],dl
00016B31  005000            add [bx+si+0x0],dl
00016B34  0000              add [bx+si],al
00016B36  0000              add [bx+si],al
00016B38  0000              add [bx+si],al
00016B3A  0A2A              or ch,[bp+si]
00016B3C  050000            add ax,0x0
00016B3F  AA                stosb
00016B40  0102              add [bp+si],ax
00016B42  0000              add [bx+si],al
00016B44  0000              add [bx+si],al
00016B46  0000              add [bx+si],al
00016B48  0000              add [bx+si],al
00016B4A  000F              add [bx],cl
00016B4C  3020              xor [bx+si],ah
00016B4E  40                inc ax
00016B4F  0200              add al,[bx+si]
00016B51  0A01              or al,[bx+di]
00016B53  A05008            mov al,[0x850]
00016B56  0475              add al,0x75
00016B58  82                db 0x82
00016B59  005042            add [bx+si+0x42],dl
00016B5C  0400              add al,0x0
00016B5E  0400              add al,0x0
00016B60  0102              add [bp+si],ax
00016B62  018A048A          add [bp+si-0x75fc],cx
00016B66  1400              adc al,0x0
00016B68  60                pusha
00016B69  C28103            ret 0x381
00016B6C  0005              add [di],al
00016B6E  000A              add [bp+si],cl
00016B70  005008            add [bx+si+0x8],dl
00016B73  A000F5            mov al,[0xf500]
00016B76  A85F              test al,0x5f
00016B78  0020              add [bx+si],ah
00016B7A  0000              add [bx+si],al
00016B7C  0015              add [di],dl
00016B7E  0004              add [si],al
00016B80  224400            and al,[si+0x0]
00016B83  80402A00          add byte [bx+si+0x2a],0x0
00016B87  010A              add [bp+si],cx
00016B89  54                push sp
00016B8A  000F              add [bx],cl
00016B8C  3F                aas
00016B8D  3F                aas
00016B8E  7FFD              jg 0x6b8d
00016B90  FFF5              push bp
00016B92  FE40A8            inc byte [bx+si-0x58]
00016B95  F4                hlt
00016B96  FA                cli
00016B97  6AFD              push byte -0x3
00016B99  FF                db 0xff
00016B9A  7F7D              jg 0x6c19
00016B9C  3B3F              cmp di,[bx]
00016B9E  39FF              cmp di,di
00016BA0  FE                db 0xfe
00016BA1  FC                cld
00016BA2  FC                cld
00016BA3  747A              jz 0x6c1f
00016BA5  74E8              jz 0x6b8f
00016BA7  007FFD            add [bx-0x3],bh
00016BAA  FE0C              dec byte [si]
00016BAC  00FA              add dl,bh
00016BAE  FF7000            push word [bx+si+0x0]
00016BB1  00A05000          add [bx+si+0x50],ah
00016BB5  FF                db 0xff
00016BB6  FFF4              push sp
00016BB8  00FF              add bh,bh
00016BBA  FF                db 0xff
00016BBB  FF                db 0xff
00016BBC  FF                db 0xff
00016BBD  EA00D08810        jmp 0x1088:0xd000
00016BC2  00FF              add bh,bh
00016BC4  7F55              jg 0x6c1b
00016BC6  00FE              add dh,bh
00016BC8  F5                cmc
00016BC9  A00000            mov al,[0x0]
00016BCC  050A10            add ax,0x100a
00016BCF  0845A0            or [di-0x60],al
00016BD2  1400              adc al,0x0
00016BD4  00A01000          add [bx+si+0x10],ah
00016BD8  0000              add [bx+si],al
00016BDA  0000              add [bx+si],al
00016BDC  110A              adc [bp+si],cx
00016BDE  1102              adc [bp+si],ax
00016BE0  0400              add al,0x0
00016BE2  44                inc sp
00016BE3  0000              add [bx+si],al
00016BE5  0000              add [bx+si],al
00016BE7  000A              add [bp+si],cl
00016BE9  0000              add [bx+si],al
00016BEB  0800              or [bx+si],al
00016BED  50                push ax
00016BEE  0A20              or ah,[bx+si]
00016BF0  0000              add [bx+si],al
00016BF2  800000            add byte [bx+si],0x0
00016BF5  0000              add [bx+si],al
00016BF7  0000              add [bx+si],al
00016BF9  054001            add ax,0x140
00016BFC  0200              add al,[bx+si]
00016BFE  0000              add [bx+si],al
00016C00  0000              add [bx+si],al
00016C02  0000              add [bx+si],al
00016C04  0000              add [bx+si],al
00016C06  0000              add [bx+si],al
00016C08  0000              add [bx+si],al
00016C0A  004A85            add [bp+si-0x7b],cl
00016C0D  02550D            add dl,[di+0xd]
00016C10  3A7035            cmp dh,[bx+si+0x35]
00016C13  50                push ax
00016C14  0000              add [bx+si],al
00016C16  005008            add [bx+si+0x8],dl
00016C19  0414              add al,0x14
00016C1B  00E8              add al,ch
00016C1D  C0610050          shl byte [bx+di+0x0],byte 0x50
00016C21  0000              add [bx+si],al
00016C23  00261308          add [0x813],ah
00016C27  00AA0041          add [bp+si+0x4100],ch
00016C2B  3A00              cmp al,[bx+si]
00016C2D  250080            and ax,0x8000
00016C30  0053A3            add [bp+di-0x5d],dl
00016C33  0400              add al,0x0
00016C35  D480              aam 0x80
00016C37  0A00              or al,[bx+si]
00016C39  A5                movsw
00016C3A  50                push ax
00016C3B  01885100          add [bx+si+0x51],cx
00016C3F  006402            add [si+0x2],ah
00016C42  00C0              add al,al
00016C44  308A0020          xor [bp+si+0x2000],cl
00016C48  10800074          adc [bx+si+0x7400],al
00016C4C  FA                cli
00016C4D  FD                std
00016C4E  AA                stosb
00016C4F  0F                db 0x0f
00016C50  3F                aas
00016C51  5F                pop di
00016C52  2AFF              sub bh,bh
00016C54  FF                db 0xff
00016C55  FF                db 0xff
00016C56  FFA0F4FA          jmp [bx+si-0x50c]
00016C5A  E800BF            call 0x2b5d
00016C5D  7FBE              jg 0x6c1d
00016C5F  00AAFFFF          add [bp+si-0x1],ch
00016C63  008743A0          add [bx-0x5fbd],al
00016C67  00FF              add bh,bh
00016C69  FF                db 0xff
00016C6A  7E55              jng 0x6cc1
00016C6C  00DA              add dl,bl
00016C6E  FF                db 0xff
00016C6F  7F00              jg 0x6c71
00016C71  A34150            mov [0x5041],ax
00016C74  00FF              add bh,bh
00016C76  FF15              call [di]
00016C78  00CA              add dl,cl
00016C7A  AF                scasw
00016C7B  FE                db 0xfe
00016C7C  7429              jz 0x6ca7
00016C7E  0000              add [bx+si],al
00016C80  7AFD              jpe 0x6c7f
00016C82  00FF              add bh,bh
00016C84  2F                das
00016C85  0500DF            add ax,0xdf00
00016C88  EF                out dx,ax
00016C89  7F00              jg 0x6c8b
00016C8B  2010              and [bx+si],dl
00016C8D  2000              and [bx+si],al
00016C8F  0000              add [bx+si],al
00016C91  0000              add [bx+si],al
00016C93  050000            add ax,0x0
00016C96  0000              add [bx+si],al
00016C98  A01000            mov al,[0x10]
00016C9B  0000              add [bx+si],al
00016C9D  0000              add [bx+si],al
00016C9F  0000              add [bx+si],al
00016CA1  0805              or [di],al
00016CA3  0000              add [bx+si],al
00016CA5  0000              add [bx+si],al
00016CA7  0000              add [bx+si],al
00016CA9  0000              add [bx+si],al
00016CAB  0000              add [bx+si],al
00016CAD  50                push ax
00016CAE  AA                stosb
00016CAF  0A00              or al,[bx+si]
00016CB1  0000              add [bx+si],al
00016CB3  0000              add [bx+si],al
00016CB5  0029              add [bx+di],ch
00016CB7  0000              add [bx+si],al
00016CB9  0000              add [bx+si],al
00016CBB  0400              add al,0x0
00016CBD  0000              add [bx+si],al
00016CBF  0000              add [bx+si],al
00016CC1  0000              add [bx+si],al
00016CC3  0000              add [bx+si],al
00016CC5  0000              add [bx+si],al
00016CC7  0000              add [bx+si],al
00016CC9  0000              add [bx+si],al
00016CCB  A00000            mov al,[0x0]
00016CCE  0000              add [bx+si],al
00016CD0  0000              add [bx+si],al
00016CD2  0000              add [bx+si],al
00016CD4  0000              add [bx+si],al
00016CD6  005080            add [bx+si-0x80],dl
00016CD9  0000              add [bx+si],al
00016CDB  0000              add [bx+si],al
00016CDD  0000              add [bx+si],al
00016CDF  0000              add [bx+si],al
00016CE1  0000              add [bx+si],al
00016CE3  0A00              or al,[bx+si]
00016CE5  0800              or [bx+si],al
00016CE7  0000              add [bx+si],al
00016CE9  0000              add [bx+si],al
00016CEB  0000              add [bx+si],al
00016CED  0000              add [bx+si],al
00016CEF  A04080            mov al,[0x8040]
00016CF2  0000              add [bx+si],al
00016CF4  0000              add [bx+si],al
00016CF6  0000              add [bx+si],al
00016CF8  0000              add [bx+si],al
00016CFA  0000              add [bx+si],al
00016CFC  0000              add [bx+si],al
00016CFE  0000              add [bx+si],al
00016D00  0000              add [bx+si],al
00016D02  005080            add [bx+si-0x80],dl
00016D05  40                inc ax
00016D06  0000              add [bx+si],al
00016D08  0000              add [bx+si],al
00016D0A  0000              add [bx+si],al
00016D0C  0000              add [bx+si],al
00016D0E  0005              add [di],al
00016D10  0400              add al,0x0
00016D12  0000              add [bx+si],al
00016D14  0000              add [bx+si],al
00016D16  0000              add [bx+si],al
00016D18  0000              add [bx+si],al
00016D1A  0000              add [bx+si],al
00016D1C  0000              add [bx+si],al
00016D1E  0000              add [bx+si],al
00016D20  0000              add [bx+si],al
00016D22  0000              add [bx+si],al
00016D24  0000              add [bx+si],al
00016D26  0000              add [bx+si],al
00016D28  0000              add [bx+si],al
00016D2A  0000              add [bx+si],al
00016D2C  0000              add [bx+si],al
00016D2E  0000              add [bx+si],al
00016D30  0000              add [bx+si],al
00016D32  0000              add [bx+si],al
00016D34  0000              add [bx+si],al
00016D36  002A              add [bp+si],ch
00016D38  2000              and [bx+si],al
00016D3A  002A              add [bp+si],ch
00016D3C  2000              and [bx+si],al
00016D3E  0000              add [bx+si],al
00016D40  0000              add [bx+si],al
00016D42  0000              add [bx+si],al
00016D44  0000              add [bx+si],al
00016D46  0000              add [bx+si],al
00016D48  0000              add [bx+si],al
00016D4A  00FF              add bh,bh
00016D4C  FF                db 0xff
00016D4D  FD                std
00016D4E  00C7              add bh,al
00016D50  A7                cmpsw
00016D51  47                inc di
00016D52  00FC              add ah,bh
00016D54  F8                clc
00016D55  F4                hlt
00016D56  00FF              add bh,bh
00016D58  FF                db 0xff
00016D59  FF00              inc word [bx+si]
00016D5B  FF                db 0xff
00016D5C  FF                db 0xff
00016D5D  FF00              inc word [bx+si]
00016D5F  FF                db 0xff
00016D60  FF                db 0xff
00016D61  FA                cli
00016D62  008F4F8F          add [bx-0x70b1],cl
00016D66  00FC              add ah,bh
00016D68  F8                clc
00016D69  F4                hlt
00016D6A  00FC              add ah,bh
00016D6C  F8                clc
00016D6D  F4                hlt
00016D6E  00FF              add bh,bh
00016D70  FF                db 0xff
00016D71  FF00              inc word [bx+si]
00016D73  FF                db 0xff
00016D74  FE                db 0xfe
00016D75  F5                cmc
00016D76  003F              add [bx],bh
00016D78  3F                aas
00016D79  3F                aas
00016D7A  003F              add [bx],bh
00016D7C  3F                aas
00016D7D  3F                aas
00016D7E  00F8              add al,bh
00016D80  F4                hlt
00016D81  A800              test al,0x0
00016D83  FF                db 0xff
00016D84  FF                db 0xff
00016D85  FF00              inc word [bx+si]
00016D87  FF                db 0xff
00016D88  FF                db 0xff
00016D89  FF00              inc word [bx+si]
00016D8B  0000              add [bx+si],al
00016D8D  0000              add [bx+si],al
00016D8F  0000              add [bx+si],al
00016D91  0000              add [bx+si],al
00016D93  0000              add [bx+si],al
00016D95  0000              add [bx+si],al
00016D97  0000              add [bx+si],al
00016D99  0000              add [bx+si],al
00016D9B  0000              add [bx+si],al
00016D9D  0000              add [bx+si],al
00016D9F  0000              add [bx+si],al
00016DA1  0000              add [bx+si],al
00016DA3  0000              add [bx+si],al
00016DA5  0000              add [bx+si],al
00016DA7  0000              add [bx+si],al
00016DA9  0000              add [bx+si],al
00016DAB  0000              add [bx+si],al
00016DAD  0000              add [bx+si],al
00016DAF  A00080            mov al,[0x8000]
00016DB2  0001              add [bx+di],al
00016DB4  0200              add al,[bx+si]
00016DB6  004000            add [bx+si+0x0],al
00016DB9  0000              add [bx+si],al
00016DBB  0000              add [bx+si],al
00016DBD  0000              add [bx+si],al
00016DBF  0000              add [bx+si],al
00016DC1  0000              add [bx+si],al
00016DC3  0000              add [bx+si],al
00016DC5  0000              add [bx+si],al
00016DC7  1408              adc al,0x8
00016DC9  1000              adc [bx+si],al
00016DCB  0000              add [bx+si],al
00016DCD  0000              add [bx+si],al
00016DCF  0000              add [bx+si],al
00016DD1  0000              add [bx+si],al
00016DD3  0000              add [bx+si],al
00016DD5  0000              add [bx+si],al
00016DD7  0000              add [bx+si],al
00016DD9  0000              add [bx+si],al
00016DDB  A800              test al,0x0
00016DDD  0000              add [bx+si],al
00016DDF  0000              add [bx+si],al
00016DE1  0000              add [bx+si],al
00016DE3  54                push sp
00016DE4  40                inc ax
00016DE5  0000              add [bx+si],al
00016DE7  0000              add [bx+si],al
00016DE9  0000              add [bx+si],al
00016DEB  0000              add [bx+si],al
00016DED  0000              add [bx+si],al
00016DEF  0000              add [bx+si],al
00016DF1  0000              add [bx+si],al
00016DF3  0000              add [bx+si],al
00016DF5  0000              add [bx+si],al
00016DF7  0000              add [bx+si],al
00016DF9  0000              add [bx+si],al
00016DFB  0000              add [bx+si],al
00016DFD  0000              add [bx+si],al
00016DFF  0A08              or cl,[bx+si]
00016E01  0000              add [bx+si],al
00016E03  90                nop
00016E04  0000              add [bx+si],al
00016E06  0000              add [bx+si],al
00016E08  0000              add [bx+si],al
00016E0A  00FC              add ah,bh
00016E0C  F8                clc
00016E0D  D400              aam 0x0
00016E0F  FF                db 0xff
00016E10  FF                db 0xff
00016E11  FF00              inc word [bx+si]
00016E13  FF                db 0xff
00016E14  FF                db 0xff
00016E15  FF00              inc word [bx+si]
00016E17  F8                clc
00016E18  F4                hlt
00016E19  A800              test al,0x0
00016E1B  FF                db 0xff
00016E1C  FF                db 0xff
00016E1D  FF00              inc word [bx+si]
00016E1F  FC                cld
00016E20  FA                cli
00016E21  D400              aam 0x0
00016E23  7F7F              jg 0x6ea4
00016E25  7F00              jg 0x6e27
00016E27  9F                lahf
00016E28  9F                lahf
00016E29  1F                pop ds
00016E2A  00FC              add ah,bh
00016E2C  F8                clc
00016E2D  D400              aam 0x0
00016E2F  FF                db 0xff
00016E30  FF                db 0xff
00016E31  FE00              inc byte [bx+si]
00016E33  E3D3              jcxz 0x6e08
00016E35  A300FF            mov [0xff00],ax
00016E38  FF                db 0xff
00016E39  FF00              inc word [bx+si]
00016E3B  FF                db 0xff
00016E3C  FF                db 0xff
00016E3D  FA                cli
00016E3E  008F4F8F          add [bx-0x70b1],cl
00016E42  00FF              add bh,bh
00016E44  FE                db 0xfe
00016E45  F5                cmc
00016E46  001F              add [bx],bl
00016E48  9F                lahf
00016E49  1F                pop ds
00016E4A  0000              add [bx+si],al
00016E4C  0000              add [bx+si],al
00016E4E  0000              add [bx+si],al
00016E50  0000              add [bx+si],al
00016E52  0000              add [bx+si],al
00016E54  0000              add [bx+si],al
00016E56  0000              add [bx+si],al
00016E58  0000              add [bx+si],al
00016E5A  0000              add [bx+si],al
00016E5C  0000              add [bx+si],al
00016E5E  000A              add [bp+si],cl
00016E60  1008              adc [bx+si],cl
00016E62  0000              add [bx+si],al
00016E64  0000              add [bx+si],al
00016E66  0400              add al,0x0
00016E68  0000              add [bx+si],al
00016E6A  0000              add [bx+si],al
00016E6C  0000              add [bx+si],al
00016E6E  0000              add [bx+si],al
00016E70  0000              add [bx+si],al
00016E72  0000              add [bx+si],al
00016E74  0402              add al,0x2
00016E76  0000              add [bx+si],al
00016E78  00800000          add [bx+si+0x0],al
00016E7C  0000              add [bx+si],al
00016E7E  0000              add [bx+si],al
00016E80  0000              add [bx+si],al
00016E82  0014              add [si],dl
00016E84  2010              and [bx+si],dl
00016E86  0000              add [bx+si],al
00016E88  0000              add [bx+si],al
00016E8A  0000              add [bx+si],al
00016E8C  0000              add [bx+si],al
00016E8E  00A08000          add [bx+si+0x80],ah
00016E92  0000              add [bx+si],al
00016E94  0000              add [bx+si],al
00016E96  0000              add [bx+si],al
00016E98  0000              add [bx+si],al
00016E9A  0000              add [bx+si],al
00016E9C  0000              add [bx+si],al
00016E9E  0000              add [bx+si],al
00016EA0  0000              add [bx+si],al
00016EA2  0000              add [bx+si],al
00016EA4  0000              add [bx+si],al
00016EA6  000A              add [bp+si],cl
00016EA8  0808              or [bx+si],cl
00016EAA  0000              add [bx+si],al
00016EAC  0000              add [bx+si],al
00016EAE  0000              add [bx+si],al
00016EB0  0000              add [bx+si],al
00016EB2  0000              add [bx+si],al
00016EB4  0000              add [bx+si],al
00016EB6  0000              add [bx+si],al
00016EB8  0000              add [bx+si],al
00016EBA  002A              add [bp+si],ch
00016EBC  2000              and [bx+si],al
00016EBE  0000              add [bx+si],al
00016EC0  0000              add [bx+si],al
00016EC2  0000              add [bx+si],al
00016EC4  0000              add [bx+si],al
00016EC6  0000              add [bx+si],al
00016EC8  0000              add [bx+si],al
00016ECA  00FC              add ah,bh
00016ECC  FC                cld
00016ECD  F8                clc
00016ECE  00FF              add bh,bh
00016ED0  FF                db 0xff
00016ED1  FF00              inc word [bx+si]
00016ED3  F8                clc
00016ED4  F4                hlt
00016ED5  A800              test al,0x0
00016ED7  FF                db 0xff
00016ED8  FF                db 0xff
00016ED9  FF00              inc word [bx+si]
00016EDB  FF                db 0xff
00016EDC  FE                db 0xfe
00016EDD  F5                cmc
00016EDE  001F              add [bx],bl
00016EE0  9F                lahf
00016EE1  1F                pop ds
00016EE2  00FF              add bh,bh
00016EE4  FF                db 0xff
00016EE5  FF07              inc word [bx]
00016EE7  CF                iret
00016EE8  CF                iret
00016EE9  CF                iret
00016EEA  C0F9F1            sar cl,byte 0xf1
00016EED  A900FF            test ax,0xff00
00016EF0  FF                db 0xff
00016EF1  FD                std
00016EF2  00C7              add bh,al
00016EF4  A7                cmpsw
00016EF5  47                inc di
00016EF6  00FF              add bh,bh
00016EF8  FF                db 0xff
00016EF9  FF00              inc word [bx+si]
00016EFB  3F                aas
00016EFC  3F                aas
00016EFD  3F                aas
00016EFE  00FE              add dh,bh
00016F00  FD                std
00016F01  EA003F3F3F        jmp 0x3f3f:0x3f00
00016F06  00FF              add bh,bh
00016F08  FF                db 0xff
00016F09  FF00              inc word [bx+si]
00016F0B  FF                db 0xff
00016F0C  FF                db 0xff
00016F0D  FF                db 0xff
00016F0E  FF                db 0xff
00016F0F  FF                db 0xff
00016F10  FF                db 0xff
00016F11  FF                db 0xff
00016F12  FF                db 0xff
00016F13  FF                db 0xff
00016F14  FF                db 0xff
00016F15  FF                db 0xff
00016F16  FF                db 0xff
00016F17  FC                cld
00016F18  F4                hlt
00016F19  EC                in al,dx
00016F1A  54                push sp
00016F1B  FF                db 0xff
00016F1C  FF                db 0xff
00016F1D  FF                db 0xff
00016F1E  FF                db 0xff
00016F1F  FF                db 0xff
00016F20  FF                db 0xff
00016F21  FF                db 0xff
00016F22  FF                db 0xff
00016F23  FE                db 0xfe
00016F24  F5                cmc
00016F25  EA55AC54AC        jmp 0xac54:0xac55
00016F2A  54                push sp
00016F2B  FF                db 0xff
00016F2C  FF                db 0xff
00016F2D  FF                db 0xff
00016F2E  FF                db 0xff
00016F2F  FE                db 0xfe
00016F30  FA                cli
00016F31  EAAAEAB5AE        jmp 0xaeb5:0xeaaa
00016F36  AB                stosw
00016F37  AC                lodsb
00016F38  54                push sp
00016F39  AC                lodsb
00016F3A  54                push sp
00016F3B  FE                db 0xfe
00016F3C  FA                cli
00016F3D  D500              aad 0x0
00016F3F  AA                stosb
00016F40  AA                stosb
00016F41  55                push bp
00016F42  00AAAA55          add [bp+si+0x55aa],ch
00016F46  00EC              add ah,ch
00016F48  B45C              mov ah,0x5c
00016F4A  00FF              add bh,bh
00016F4C  F0FC              lock cld
00016F4E  FF                db 0xff
00016F4F  FF00              inc word [bx+si]
00016F51  0000              add [bx+si],al
00016F53  FF00              inc word [bx+si]
00016F55  0003              add [bp+di],al
00016F57  FC                cld
00016F58  34C4              xor al,0xc4
00016F5A  04FF              add al,0xff
00016F5C  FF                db 0xff
00016F5D  FF                db 0xff
00016F5E  FFC0              inc ax
00016F60  F0FC              lock cld
00016F62  FF0C              dec word [si]
00016F64  30C0              xor al,al
00016F66  0004              add [si],al
00016F68  0404              add al,0x4
00016F6A  04FF              add al,0xff
00016F6C  FF                db 0xff
00016F6D  FF                db 0xff
00016F6E  FF                db 0xff
00016F6F  FE                db 0xfe
00016F70  FA                cli
00016F71  EAAAC0B0AC        jmp 0xacb0:0xc0aa
00016F76  AB                stosw
00016F77  0404              add al,0x4
00016F79  0404              add al,0x4
00016F7B  FE                db 0xfe
00016F7C  FA                cli
00016F7D  D500              aad 0x0
00016F7F  AA                stosb
00016F80  AA                stosb
00016F81  55                push bp
00016F82  00AAAA55          add [bp+si+0x55aa],ch
00016F86  00C4              add ah,al
00016F88  B454              mov ah,0x54
00016F8A  00FF              add bh,bh
00016F8C  F0CC              lock int3
00016F8E  C3                ret
00016F8F  FF00              inc word [bx+si]
00016F91  0000              add [bx+si],al
00016F93  FF00              inc word [bx+si]
00016F95  0003              add [bp+di],al
00016F97  FC                cld
00016F98  34C4              xor al,0xc4
00016F9A  04C0              add al,0xc0
00016F9C  C0C0C0            rol al,byte 0xc0
00016F9F  C0                db 0xc0
00016FA0  300C              xor [si],cl
00016FA2  030C              add cx,[si]
00016FA4  30C0              xor al,al
00016FA6  0004              add [si],al
00016FA8  0404              add al,0x4
00016FAA  04C0              add al,0xc0
00016FAC  C0C0C3            rol al,byte 0xc3
00016FAF  0C30              or al,0x30
00016FB1  C000C0            rol byte [bx+si],byte 0xc0
00016FB4  300C              xor [si],cl
00016FB6  0304              add ax,[si]
00016FB8  0404              add al,0x4
00016FBA  04CC              add al,0xcc
00016FBC  F0D500            lock aad 0x0
00016FBF  0000              add [bx+si],al
00016FC1  55                push bp
00016FC2  0000              add [bx+si],al
00016FC4  005500            add [di+0x0],dl
00016FC7  C434              les si,[si]
00016FC9  54                push sp
00016FCA  0000              add [bx+si],al
00016FCC  0000              add [bx+si],al
00016FCE  0000              add [bx+si],al
00016FD0  0000              add [bx+si],al
00016FD2  0000              add [bx+si],al
00016FD4  0000              add [bx+si],al
00016FD6  0000              add [bx+si],al
00016FD8  0000              add [bx+si],al
00016FDA  0000              add [bx+si],al
00016FDC  0000              add [bx+si],al
00016FDE  0000              add [bx+si],al
00016FE0  0000              add [bx+si],al
00016FE2  0000              add [bx+si],al
00016FE4  0000              add [bx+si],al
00016FE6  0000              add [bx+si],al
00016FE8  0000              add [bx+si],al
00016FEA  0000              add [bx+si],al
00016FEC  0000              add [bx+si],al
00016FEE  0000              add [bx+si],al
00016FF0  0000              add [bx+si],al
00016FF2  0000              add [bx+si],al
00016FF4  0000              add [bx+si],al
00016FF6  0000              add [bx+si],al
00016FF8  0000              add [bx+si],al
00016FFA  0000              add [bx+si],al
00016FFC  0000              add [bx+si],al
00016FFE  0000              add [bx+si],al
00017000  0000              add [bx+si],al
00017002  0000              add [bx+si],al
00017004  0000              add [bx+si],al
00017006  0000              add [bx+si],al
00017008  0000              add [bx+si],al
0001700A  0000              add [bx+si],al
0001700C  0000              add [bx+si],al
0001700E  00060706          add [0x607],al
00017012  07                pop es
00017013  800080            add byte [bx+si],0x80
00017016  0000              add [bx+si],al
00017018  0000              add [bx+si],al
0001701A  0000              add [bx+si],al
0001701C  0000              add [bx+si],al
0001701E  0006050B          add [0xb05],al
00017022  17                pop ss
00017023  8000E0            add byte [bx+si],0xe0
00017026  F00000            lock add [bx+si],al
00017029  0000              add [bx+si],al
0001702B  0000              add [bx+si],al
0001702D  0000              add [bx+si],al
0001702F  1B0F              sbb cx,[bx]
00017031  0507F0            add ax,0xf007
00017034  E000              loopne 0x7036
00017036  0000              add [bx+si],al
00017038  0000              add [bx+si],al
0001703A  0000              add [bx+si],al
0001703C  0000              add [bx+si],al
0001703E  00060706          add [0x607],al
00017042  07                pop es
00017043  800080            add byte [bx+si],0x80
00017046  0000              add [bx+si],al
00017048  0000              add [bx+si],al
0001704A  0000              add [bx+si],al
0001704C  0000              add [bx+si],al
0001704E  0007              add [bx],al
00017050  07                pop es
00017051  07                pop es
00017052  07                pop es
00017053  C0A0C0A000        shl byte [bx+si-0x5f40],byte 0x0
00017058  0000              add [bx+si],al
0001705A  0000              add [bx+si],al
0001705C  0000              add [bx+si],al
0001705E  0007              add [bx],al
00017060  07                pop es
00017061  0F1FC0            nop ax
00017064  A0E0F0            mov al,[0xf0e0]
00017067  0000              add [bx+si],al
00017069  0000              add [bx+si],al
0001706B  0000              add [bx+si],al
0001706D  0000              add [bx+si],al
0001706F  1F                pop ds
00017070  0F05              syscall
00017072  07                pop es
00017073  F0E040            lock loopne 0x70b6
00017076  A00000            mov al,[0x0]
00017079  0000              add [bx+si],al
0001707B  0000              add [bx+si],al
0001707D  0000              add [bx+si],al
0001707F  07                pop es
00017080  07                pop es
00017081  07                pop es
00017082  07                pop es
00017083  C0A0C0A000        shl byte [bx+si-0x5f40],byte 0x0
00017088  0000              add [bx+si],al
0001708A  0000              add [bx+si],al
0001708C  0000              add [bx+si],al
0001708E  0000              add [bx+si],al
00017090  0000              add [bx+si],al
00017092  0000              add [bx+si],al
00017094  0000              add [bx+si],al
00017096  0000              add [bx+si],al
00017098  0000              add [bx+si],al
0001709A  0000              add [bx+si],al
0001709C  0000              add [bx+si],al
0001709E  0000              add [bx+si],al
000170A0  0000              add [bx+si],al
000170A2  0000              add [bx+si],al
000170A4  0000              add [bx+si],al
000170A6  0000              add [bx+si],al
000170A8  0000              add [bx+si],al
000170AA  0000              add [bx+si],al
000170AC  0000              add [bx+si],al
000170AE  0000              add [bx+si],al
000170B0  0000              add [bx+si],al
000170B2  0000              add [bx+si],al
000170B4  0000              add [bx+si],al
000170B6  0000              add [bx+si],al
000170B8  0000              add [bx+si],al
000170BA  0000              add [bx+si],al
000170BC  0000              add [bx+si],al
000170BE  0000              add [bx+si],al
000170C0  0000              add [bx+si],al
000170C2  0000              add [bx+si],al
000170C4  0000              add [bx+si],al
000170C6  0000              add [bx+si],al
000170C8  0000              add [bx+si],al
000170CA  0000              add [bx+si],al
000170CC  0000              add [bx+si],al
000170CE  0000              add [bx+si],al
000170D0  0000              add [bx+si],al
000170D2  0000              add [bx+si],al
000170D4  0000              add [bx+si],al
000170D6  0000              add [bx+si],al
000170D8  0000              add [bx+si],al
000170DA  0000              add [bx+si],al
000170DC  0000              add [bx+si],al
000170DE  FF00              inc word [bx+si]
000170E0  000B              add [bp+di],cl
000170E2  D7                xlatb
000170E3  0000              add [bx+si],al
000170E5  E0F7              loopne 0x70de
000170E7  0000              add [bx+si],al
000170E9  00FF              add bh,bh
000170EB  AA                stosb
000170EC  0000              add [bx+si],al
000170EE  009B0F00          add [bp+di+0xf],bl
000170F2  00F2              add dl,dh
000170F4  E000              loopne 0x70f6
000170F6  00AA0000          add [bp+si+0x0],ch
000170FA  0000              add [bx+si],al
000170FC  0000              add [bx+si],al
000170FE  0000              add [bx+si],al
00017100  0000              add [bx+si],al
00017102  0000              add [bx+si],al
00017104  0000              add [bx+si],al
00017106  0000              add [bx+si],al
00017108  0000              add [bx+si],al
0001710A  0000              add [bx+si],al
0001710C  0000              add [bx+si],al
0001710E  0000              add [bx+si],al
00017110  0000              add [bx+si],al
00017112  0000              add [bx+si],al
00017114  0000              add [bx+si],al
00017116  0000              add [bx+si],al
00017118  0000              add [bx+si],al
0001711A  0000              add [bx+si],al
0001711C  0000              add [bx+si],al
0001711E  FF00              inc word [bx+si]
00017120  000F              add [bx],cl
00017122  DF00              fild word [bx+si]
00017124  00E0              add al,ah
00017126  F7000000          test word [bx+si],0x0
0001712A  FF                db 0xff
0001712B  FFAA0000          jmp far [bp+si+0x0]
0001712F  DFAF0000          fild qword [bx+0x0]
00017133  F7EA              imul dx
00017135  0000              add [bx+si],al
00017137  FFAA0000          jmp far [bp+si+0x0]
0001713B  0000              add [bx+si],al
0001713D  0000              add [bx+si],al
0001713F  0000              add [bx+si],al
00017141  0000              add [bx+si],al
00017143  0000              add [bx+si],al
00017145  0000              add [bx+si],al
00017147  0000              add [bx+si],al
00017149  0000              add [bx+si],al
0001714B  0000              add [bx+si],al
0001714D  0000              add [bx+si],al
0001714F  0000              add [bx+si],al
00017151  0000              add [bx+si],al
00017153  0000              add [bx+si],al
00017155  0000              add [bx+si],al
00017157  0000              add [bx+si],al
00017159  0000              add [bx+si],al
0001715B  0000              add [bx+si],al
0001715D  0000              add [bx+si],al
0001715F  0000              add [bx+si],al
00017161  0005              add [di],al
00017163  0000              add [bx+si],al
00017165  90                nop
00017166  2202              and al,[bp+si]
00017168  0449              add al,0x49
0001716A  3200              xor al,[bx+si]
0001716C  0412              add al,0x12
0001716E  0922              or [bp+si],sp
00017170  94                xchg ax,sp
00017171  58                pop ax
00017172  A22924            mov [0x2429],al
00017175  53                push bx
00017176  8C4484            mov [si-0x7c],es
00017179  0403              add al,0x3
0001717B  06                push es
0001717C  0002              add [bp+si],al
0001717E  1201              adc al,[bx+di]
00017180  090A              or [bp+si],cx
00017182  8400              test [bx+si],al
00017184  00822100          add [bp+si+0x21],al
00017188  40                inc ax
00017189  48                dec ax
0001718A  2A00              sub al,[bx+si]
0001718C  0000              add [bx+si],al
0001718E  0000              add [bx+si],al
00017190  0000              add [bx+si],al
00017192  0000              add [bx+si],al
00017194  0000              add [bx+si],al
00017196  0000              add [bx+si],al
00017198  0007              add [bx],al
0001719A  7F00              jg 0x719c
0001719C  010F              add [bx],cx
0001719E  3F                aas
0001719F  0FFF              ud0
000171A1  FF                db 0xff
000171A2  FA                cli
000171A3  F3FF6FDD          rep jmp far [bx-0x23]
000171A7  FD                std
000171A8  FB                sti
000171A9  B6CD              mov dh,0xcd
000171AB  7F7B              jg 0x7228
000171AD  6D                insw
000171AE  36                ss
000171AF  DD                db 0xdd
000171B0  6BA75DD6DB        imul sp,[bx-0x29a3],byte -0x25
000171B5  AC                lodsb
000171B6  73BB              jnc 0x7173
000171B8  7BFB              jpo 0x71b5
000171BA  FC                cld
000171BB  197FFD            sbb [bx-0x3],di
000171BE  ED                in ax,dx
000171BF  FE                db 0xfe
000171C0  F6F5              div ch
000171C2  7BFF              jpo 0x71c3
000171C4  FF                db 0xff
000171C5  7DDE              jnl 0x71a5
000171C7  FF                db 0xff
000171C8  BFB7D5            mov di,0xd5b7
000171CB  0000              add [bx+si],al
000171CD  0000              add [bx+si],al
000171CF  0000              add [bx+si],al
000171D1  0000              add [bx+si],al
000171D3  0000              add [bx+si],al
000171D5  0000              add [bx+si],al
000171D7  0000              add [bx+si],al
000171D9  07                pop es
000171DA  7000              jo 0x71dc
000171DC  010E380F          add [0xf38],cx
000171E0  F00000            lock add [bx+si],al
000171E3  F30E              rep push cs
000171E5  08908103          or [bx+si+0x381],dl
000171E9  06                push es
000171EA  0C70              or al,0x70
000171EC  60                pusha
000171ED  60                pusha
000171EE  2001              and [bx+di],al
000171F0  0204              add al,[si]
000171F2  0810              or [bx+si],dl
000171F4  0020              add [bx+si],ah
000171F6  60                pusha
000171F7  2950A0            sub [bx+si-0x60],dx
000171FA  C00061            rol byte [bx+si],byte 0x61
000171FD  C181000001        rol word [bx+di+0x0],byte 0x1
00017202  03C0              add ax,ax
00017204  A00080            mov al,[0x8000]
00017207  8080808000        add byte [bx+si-0x7f80],0x0
0001720C  0000              add [bx+si],al
0001720E  800000            add byte [bx+si],0x0
00017211  050200            add ax,0x2
00017214  30C0              xor al,al
00017216  0000              add [bx+si],al
00017218  00804800          add [bx+si+0x48],al
0001721C  0000              add [bx+si],al
0001721E  0224              add ah,[si]
00017220  98                cbw
00017221  60                pusha
00017222  82                db 0x82
00017223  1010              adc [bx+si],dl
00017225  A04044            mov al,[0x4440]
00017228  2425              and al,0x25
0001722A  A20105            mov [0x501],al
0001722D  222C              and ch,[si]
0001722F  0104              add [si],ax
00017231  0304              add ax,[si]
00017233  40                inc ax
00017234  800080            add byte [bx+si],0x80
00017237  42                inc dx
00017238  21A044D4          and [bx+si-0x2bbc],sp
0001723C  00945113          add [si+0x1351],dl
00017240  4D                dec bp
00017241  3431              xor al,0x31
00017243  214970            and [bx+di+0x70],cx
00017246  1F                pop ds
00017247  285AC2            sub [bp+si-0x3e],bl
0001724A  1000              adc [bx+si],al
0001724C  07                pop es
0001724D  FF                db 0xff
0001724E  7F1F              jg 0x726f
00017250  FF                db 0xff
00017251  FA                cli
00017252  FD                std
00017253  FFCF              dec di
00017255  3F                aas
00017256  FFE0              jmp ax
00017258  FE                db 0xfe
00017259  7FB7              jg 0x7212
0001725B  FF                db 0xff
0001725C  FF                db 0xff
0001725D  FF                db 0xff
0001725E  FD                std
0001725F  DB                db 0xdb
00017260  679F              a32 lahf
00017262  7DEF              jnl 0x7253
00017264  EF                out dx,ax
00017265  5F                pop di
00017266  BFBBDB            mov di,0xdbbb
00017269  DA5DFE            ficomp dword [di-0x2]
0001726C  FA                cli
0001726D  DDD3              fst st3
0001726F  FE                db 0xfe
00017270  FB                sti
00017271  FC                cld
00017272  FB                sti
00017273  BF7FFF            mov di,0xff7f
00017276  7FBD              jg 0x7235
00017278  DE5FBB            ficomp word [bx-0x45]
0001727B  2F                das
0001727C  FF6FBF            jmp far [bx-0x41]
0001727F  EC                in al,dx
00017280  B3CF              mov bl,0xcf
00017282  DF                db 0xdf
00017283  DEB6CFF0          fidiv word [bp-0xf31]
00017287  D7                xlatb
00017288  B57D              mov ch,0x7d
0001728A  FF00              inc word [bx+si]
0001728C  0007              add [bx],al
0001728E  3C00              cmp al,0x0
00017290  E000              loopne 0x7292
00017292  0000              add [bx+si],al
00017294  0000              add [bx+si],al
00017296  0800              or [bx+si],al
00017298  0E                push cs
00017299  0300              add ax,[bx+si]
0001729B  D0A00080          shl byte [bx+si-0x8000],1
0001729F  0000              add [bx+si],al
000172A1  106008            adc [bx+si+0x8],ah
000172A4  0818              or [bx+si],bl
000172A6  3000              xor [bx+si],al
000172A8  0000              add [bx+si],al
000172AA  0000              add [bx+si],al
000172AC  0001              add [bx+di],al
000172AE  02C0              add al,al
000172B0  80408030          add byte [bx+si-0x80],0x30
000172B4  60                pusha
000172B5  E060              loopne 0x7317
000172B7  0000              add [bx+si],al
000172B9  0020              add [bx+si],ah
000172BB  050C0E            add ax,0xe0c
000172BE  3F                aas
000172BF  40                inc ax
000172C0  81071FD0          add word [bx],0xd01f
000172C4  B0C0              mov al,0xc0
000172C6  F01030            lock adc [bx+si],dh
000172C9  78FC              js 0x72c7
000172CB  0000              add [bx+si],al
000172CD  2012              and [bp+si],dl
000172CF  0000              add [bx+si],al
000172D1  0000              add [bx+si],al
000172D3  0000              add [bx+si],al
000172D5  0000              add [bx+si],al
000172D7  0000              add [bx+si],al
000172D9  0000              add [bx+si],al
000172DB  0908              or [bx+si],cx
000172DD  0424              add al,0x24
000172DF  00809149          add [bx+si+0x4991],al
000172E3  0000              add [bx+si],al
000172E5  004100            add [bx+di+0x0],al
000172E8  0000              add [bx+si],al
000172EA  004488            add [si-0x78],al
000172ED  51                push cx
000172EE  004440            add [si+0x40],al
000172F1  44                inc sp
000172F2  82                db 0x82
000172F3  80A0409080        and byte [bx+si-0x6fc0],0x80
000172F8  80404005          add byte [bx+si+0x40],0x5
000172FC  0212              add dl,[bp+si]
000172FE  90                nop
000172FF  0412              add al,0x12
00017301  0C24              or al,0x24
00017303  60                pusha
00017304  8870C0            mov [bx+si-0x40],dh
00017307  40                inc ax
00017308  204010            and [bx+si+0x10],al
0001730B  0000              add [bx+si],al
0001730D  DFED              fucomip st5
0001730F  0000              add [bx+si],al
00017311  E0FF              loopne 0x7312
00017313  0000              add [bx+si],al
00017315  0000              add [bx+si],al
00017317  0000              add [bx+si],al
00017319  0000              add [bx+si],al
0001731B  F6F7              div bh
0001731D  FB                sti
0001731E  DB                db 0xdb
0001731F  FF                db 0xff
00017320  7F6E              jg 0x7390
00017322  B6E0              mov dh,0xe0
00017324  F8                clc
00017325  FC                cld
00017326  BE0000            mov si,0x0
00017329  00C0              add al,al
0001732B  BB77AE            mov bx,0xae77
0001732E  FF                db 0xff
0001732F  BBBFBB            mov bx,0xbbbf
00017332  7D7F              jnl 0x73b3
00017334  5F                pop di
00017335  BF6F70            mov di,0x706f
00017338  7CBE              jl 0x72f8
0001733A  BEFAFD            mov si,0xfdfa
0001733D  ED                in ax,dx
0001733E  6F                outsw
0001733F  FB                sti
00017340  ED                in ax,dx
00017341  F3DB9F778F        rep fistp dword [bx-0x7089]
00017346  BFBFDF            mov di,0xdfbf
00017349  BF6F00            mov di,0x6f
0001734C  00C7              add bh,al
0001734E  60                pusha
0001734F  0000              add [bx+si],al
00017351  E0AF              loopne 0x7302
00017353  0000              add [bx+si],al
00017355  0000              add [bx+si],al
00017357  0000              add [bx+si],al
00017359  0000              add [bx+si],al
0001735B  3011              xor [bx+di],dl
0001735D  0909              or [bx+di],cx
0001735F  0100              add [bx+si],ax
00017361  0886E038          or [bp+0x38e0],al
00017365  0C06              or al,0x6
00017367  0000              add [bx+si],al
00017369  00800830          add [bx+si+0x3008],al
0001736D  0000              add [bx+si],al
0001736F  8381810103        add word [bx+di+0x181],byte +0x3
00017374  01800050          add [bx+si+0x5000],ax
00017378  28848000          sub [si+0x80],al
0001737C  0000              add [bx+si],al
0001737E  0201              add al,[bx+di]
00017380  0101              add [bx+di],ax
00017382  03800080          add ax,[bx+si-0x8000]
00017386  81808080000A      add word [bx+si-0x7f80],0xa00
0001738C  2022              and [bp+si],ah
0001738E  084E88            or [bp-0x78],cl
00017391  12883484          adc cl,[bx+si-0x7bcc]
00017395  20881284          and [bx+si-0x7bee],cl
00017399  28800208          sub [bx+si+0x802],al
0001739D  2209              and cl,[bx+di]
0001739F  20C0              and al,al
000173A1  8080020000        add byte [bx+si+0x2],0x0
000173A6  0020              add [bx+si],ah
000173A8  8828              mov [bx+si],ch
000173AA  0C23              or al,0x23
000173AC  0822              or [bp+si],ah
000173AE  08C0              or al,al
000173B0  E078              loopne 0x742a
000173B2  9F                lahf
000173B3  0000              add [bx+si],al
000173B5  00FC              add ah,bh
000173B7  280C              sub [si],cl
000173B9  2A8C2208          sub cl,[si+0x822]
000173BD  2208              and cl,[bx+si]
000173BF  22882288          and cl,[bx+si-0x77de]
000173C3  22882288          and cl,[bx+si-0x77de]
000173C7  2AAC2AAC          sub ch,[si-0x53d6]
000173CB  775F              ja 0x742c
000173CD  1F                pop ds
000173CE  1F                pop ds
000173CF  B3F7              mov bl,0xf7
000173D1  EF                out dx,ax
000173D2  FF                db 0xff
000173D3  EBFB              jmp short 0x73d0
000173D5  FF                db 0xff
000173D6  FFCD              dec bp
000173D8  DB                db 0xdb
000173D9  E6FC              out 0xfc,al
000173DB  1F                pop ds
000173DC  1F                pop ds
000173DD  3F                aas
000173DE  3EE080            ds loopne 0x7361
000173E1  8080030000        add byte [bx+si+0x3],0x0
000173E6  00F8              add al,bh
000173E8  F8                clc
000173E9  7438              jz 0x7423
000173EB  3E7F7F            ds jg 0x746d
000173EE  7F80              jg 0x7370
000173F0  A0A8EA            mov al,[0xeaa8]
000173F3  0000              add [bx+si],al
000173F5  00AB347A          add [bp+di+0x7a34],ch
000173F9  F6FA              idiv dl
000173FB  7F7F              jg 0x747c
000173FD  7F3F              jg 0x743e
000173FF  FF                db 0xff
00017400  FF                db 0xff
00017401  FF                db 0xff
00017402  FF                db 0xff
00017403  FF                db 0xff
00017404  FF                db 0xff
00017405  FF                db 0xff
00017406  FFF6              push si
00017408  DA                db 0xda
00017409  F6D8              neg al
0001740B  47                inc di
0001740C  47                inc di
0001740D  0F1F8387CF        nop word [bp+di-0x3079]
00017412  FFE0              jmp ax
00017414  F1                int1
00017415  FD                std
00017416  FEC0              inc al
00017418  C0A0D01F1F        shl byte [bx+si+0x1fd0],byte 0x1f
0001741D  3F                aas
0001741E  3EE080            ds loopne 0x73a1
00017421  0000              add [bx+si],al
00017423  0300              add ax,[bx+si]
00017425  0000              add [bx+si],al
00017427  B0D0              mov al,0xd0
00017429  7410              jz 0x743b
0001742B  3E7F7F            ds jg 0x74ad
0001742E  7F00              jg 0x7430
00017430  0080E000          add [bx+si+0xe0],al
00017434  0000              add [bx+si],al
00017436  0334              add si,[si]
00017438  52                push dx
00017439  B4D2              mov ah,0xd2
0001743B  7F7F              jg 0x74bc
0001743D  7F3F              jg 0x747e
0001743F  FF                db 0xff
00017440  FF                db 0xff
00017441  FF                db 0xff
00017442  FF                db 0xff
00017443  FF                db 0xff
00017444  FE                db 0xfe
00017445  FB                sti
00017446  EE                out dx,al
00017447  94                xchg ax,sp
00017448  D2945000          rcl byte [si+0x50],cl
0001744C  0000              add [bx+si],al
0001744E  0000              add [bx+si],al
00017450  0000              add [bx+si],al
00017452  0000              add [bx+si],al
00017454  0000              add [bx+si],al
00017456  0000              add [bx+si],al
00017458  0000              add [bx+si],al
0001745A  0000              add [bx+si],al
0001745C  0000              add [bx+si],al
0001745E  0000              add [bx+si],al
00017460  0000              add [bx+si],al
00017462  0000              add [bx+si],al
00017464  0000              add [bx+si],al
00017466  0000              add [bx+si],al
00017468  0000              add [bx+si],al
0001746A  0000              add [bx+si],al
0001746C  0000              add [bx+si],al
0001746E  0000              add [bx+si],al
00017470  0000              add [bx+si],al
00017472  0000              add [bx+si],al
00017474  0000              add [bx+si],al
00017476  0000              add [bx+si],al
00017478  0000              add [bx+si],al
0001747A  0000              add [bx+si],al
0001747C  0000              add [bx+si],al
0001747E  0000              add [bx+si],al
00017480  0000              add [bx+si],al
00017482  0000              add [bx+si],al
00017484  0000              add [bx+si],al
00017486  0000              add [bx+si],al
00017488  0000              add [bx+si],al
0001748A  0000              add [bx+si],al
0001748C  0003              add [bp+di],al
0001748E  06                push es
0001748F  00FF              add bh,bh
00017491  BFF51F            mov di,0x1ff5
00017494  FA                cli
00017495  A005FE            mov al,[0xfe05]
00017498  1AB57F0D          sbb dh,[di+0xd7f]
0001749C  0F1B12            bndstx [bp,si],bnd2
0001749F  E0F4              loopne 0x7495
000174A1  DAAE4B9D          fisubr dword [bp-0x62b5]
000174A5  17                pop ss
000174A6  AF                scasw
000174A7  FA                cli
000174A8  B572              mov ch,0x72
000174AA  B9395D            mov cx,0x5d39
000174AD  3A18              cmp bl,[bx+si]
000174AF  D7                xlatb
000174B0  A24420            mov [0x2044],al
000174B3  DD                db 0xdd
000174B4  AA                stosb
000174B5  2140DE            and [bx+si-0x22],ax
000174B8  E13C              loope 0x74f6
000174BA  5F                pop di
000174BB  305038            xor [bx+si+0x38],dl
000174BE  1804              sbb [si],al
000174C0  0004              add [si],al
000174C2  0201              add al,[bx+di]
000174C4  0002              add [bp+si],al
000174C6  004596            add [di-0x6a],al
000174C9  2004              and [si],al
000174CB  0000              add [bx+si],al
000174CD  0000              add [bx+si],al
000174CF  0000              add [bx+si],al
000174D1  1000              adc [bx+si],al
000174D3  0000              add [bx+si],al
000174D5  0000              add [bx+si],al
000174D7  2000              and [bx+si],al
000174D9  1440              adc al,0x40
000174DB  0000              add [bx+si],al
000174DD  0000              add [bx+si],al
000174DF  2024              and [si],ah
000174E1  1204              adc al,[si]
000174E3  0004              add [si],al
000174E5  0004              add [si],al
000174E7  0000              add [bx+si],al
000174E9  0000              add [bx+si],al
000174EB  0010              add [bx+si],dl
000174ED  0001              add [bx+di],al
000174EF  0000              add [bx+si],al
000174F1  41                inc cx
000174F2  0904              or [si],ax
000174F4  0000              add [bx+si],al
000174F6  8C00              mov [bx+si],es
000174F8  60                pusha
000174F9  1000              adc [bx+si],al
000174FB  1101              adc [bx+di],ax
000174FD  0000              add [bx+si],al
000174FF  99                cwd
00017500  99                cwd
00017501  DC7098            fdiv qword [bx+si-0x68]
00017504  98                cbw
00017505  B0D0              mov al,0xd0
00017507  0000              add [bx+si],al
00017509  0000              add [bx+si],al
0001750B  0000              add [bx+si],al
0001750D  0000              add [bx+si],al
0001750F  0000              add [bx+si],al
00017511  0000              add [bx+si],al
00017513  0000              add [bx+si],al
00017515  0000              add [bx+si],al
00017517  0000              add [bx+si],al
00017519  0000              add [bx+si],al
0001751B  0000              add [bx+si],al
0001751D  0000              add [bx+si],al
0001751F  0000              add [bx+si],al
00017521  0000              add [bx+si],al
00017523  0000              add [bx+si],al
00017525  0000              add [bx+si],al
00017527  0000              add [bx+si],al
00017529  0000              add [bx+si],al
0001752B  0000              add [bx+si],al
0001752D  0000              add [bx+si],al
0001752F  0000              add [bx+si],al
00017531  0000              add [bx+si],al
00017533  0000              add [bx+si],al
00017535  0000              add [bx+si],al
00017537  0000              add [bx+si],al
00017539  0000              add [bx+si],al
0001753B  0000              add [bx+si],al
0001753D  0000              add [bx+si],al
0001753F  0000              add [bx+si],al
00017541  0000              add [bx+si],al
00017543  0000              add [bx+si],al
00017545  0000              add [bx+si],al
00017547  0000              add [bx+si],al
00017549  0000              add [bx+si],al
0001754B  00A0FD1F          add [bx+si+0x1ffd],ah
0001754F  011EE105          add [0x5e1],bx
00017553  FE                db 0xfe
00017554  156EFF            adc ax,0xff6e
00017557  00C0              add al,al
00017559  E0B0              loopne 0x750b
0001755B  2EDFBA585B        fistp qword [cs:bp+si+0x5b58]
00017560  FE                db 0xfe
00017561  1F                pop ds
00017562  6BC016            imul ax,ax,byte +0x16
00017565  C0EAF8            shr dl,byte 0xf8
00017568  1CAE              sbb al,0xae
0001756A  FE                db 0xfe
0001756B  61                popa
0001756C  B8F0A0            mov ax,0xa0f0
0001756F  FF30              push word [bx+si]
00017571  0200              add al,[bx+si]
00017573  FD                std
00017574  2F                das
00017575  8B427C            mov ax,[bp+si+0x7c]
00017578  D0FC              sar ah,1
0001757A  F6D4              not ah
0001757C  A01C7A            mov al,[0x7a1c]
0001757F  0810              or [bx+si],dl
00017581  0000              add [bx+si],al
00017583  050409            add ax,0x904
00017586  24DC              and al,0xdc
00017588  E87CDC            call 0x5207
0001758B  0000              add [bx+si],al
0001758D  0110              add [bx+si],dx
0001758F  0012              add [bp+si],dl
00017591  0000              add [bx+si],al
00017593  0000              add [bx+si],al
00017595  004300            add [bp+di+0x0],al
00017598  00802008          add [bx+si+0x820],al
0001759C  81200000          and word [bx+si],0x0
000175A0  60                pusha
000175A1  0400              add al,0x0
000175A3  0000              add [bx+si],al
000175A5  0002              add [bp+si],al
000175A7  0000              add [bx+si],al
000175A9  0484              add al,0x84
000175AB  01830303          add [bp+di+0x303],ax
000175AF  0820              or [bx+si],ah
000175B1  326300            xor ah,[bp+di+0x0]
000175B4  000A              add [bp+si],cl
000175B6  0000              add [bx+si],al
000175B8  40                inc ax
000175B9  0400              add al,0x0
000175BB  51                push cx
000175BC  0104              add [si],ax
000175BE  00E3              add bl,ah
000175C0  C2C7DA            ret 0xdac7
000175C3  30E0              xor al,ah
000175C5  81000000          add word [bx+si],0x0
000175C9  40                inc ax
000175CA  0800              or [bx+si],al
000175CC  0000              add [bx+si],al
000175CE  0000              add [bx+si],al
000175D0  0000              add [bx+si],al
000175D2  0000              add [bx+si],al
000175D4  0000              add [bx+si],al
000175D6  0000              add [bx+si],al
000175D8  0000              add [bx+si],al
000175DA  0000              add [bx+si],al
000175DC  0000              add [bx+si],al
000175DE  0000              add [bx+si],al
000175E0  0000              add [bx+si],al
000175E2  0000              add [bx+si],al
000175E4  0000              add [bx+si],al
000175E6  0000              add [bx+si],al
000175E8  0000              add [bx+si],al
000175EA  0000              add [bx+si],al
000175EC  0000              add [bx+si],al
000175EE  0000              add [bx+si],al
000175F0  0000              add [bx+si],al
000175F2  0000              add [bx+si],al
000175F4  0000              add [bx+si],al
000175F6  0000              add [bx+si],al
000175F8  0000              add [bx+si],al
000175FA  0000              add [bx+si],al
000175FC  0000              add [bx+si],al
000175FE  0000              add [bx+si],al
00017600  0000              add [bx+si],al
00017602  0000              add [bx+si],al
00017604  0000              add [bx+si],al
00017606  0000              add [bx+si],al
00017608  0000              add [bx+si],al
0001760A  0031              add [bx+di],dh
0001760C  6461              fs popa
0001760E  27                daa
0001760F  0000              add [bx+si],al
00017611  F08C00            lock mov [bx+si],es
00017614  0100              add [bx+si],ax
00017616  00890444          add [bx+di+0x4404],cl
0001761A  08723E            or [bp+si+0x3e],dh
0001761D  731F              jnc 0x763e
0001761F  F7E1              mul cx
00017621  687640            push word 0x4076
00017624  E2C8              loop 0x75ee
00017626  7100              jno 0x7628
00017628  0000              add [bx+si],al
0001762A  0024              add [si],ah
0001762C  0900              or [bx+si],ax
0001762E  009D2B44          add [di+0x442b],bl
00017632  007CE8            add [si-0x18],bh
00017635  800080            add byte [bx+si],0x80
00017638  0000              add [bx+si],al
0001763A  0000              add [bx+si],al
0001763C  0000              add [bx+si],al
0001763E  0000              add [bx+si],al
00017640  0000              add [bx+si],al
00017642  0000              add [bx+si],al
00017644  0000              add [bx+si],al
00017646  0000              add [bx+si],al
00017648  0000              add [bx+si],al
0001764A  0010              add [bx+si],dl
0001764C  0020              add [bx+si],ah
0001764E  0038              add [bx+si],bh
00017650  1F                pop ds
00017651  0308              add cx,[bx+si]
00017653  58                pop ax
00017654  69FC2F01          imul di,sp,word 0x12f
00017658  0000              add [bx+si],al
0001765A  0800              or [bx+si],al
0001765C  1002              adc [bp+si],al
0001765E  00C0              add al,al
00017660  2008              and [bx+si],cl
00017662  0405              add al,0x5
00017664  0000              add [bx+si],al
00017666  01F0              add ax,si
00017668  BD6E35            mov bp,0x356e
0001766B  0400              add al,0x0
0001766D  0000              add [bx+si],al
0001766F  8400              test [bx+si],al
00017671  0000              add [bx+si],al
00017673  2800              sub [bx+si],al
00017675  0107              add [bx],ax
00017677  3B75AB            cmp si,[di-0x55]
0001767A  55                push bp
0001767B  0000              add [bx+si],al
0001767D  0000              add [bx+si],al
0001767F  0000              add [bx+si],al
00017681  0F000A            str [bp+si]
00017684  F5                cmc
00017685  AB                stosw
00017686  00BACF01          add [bp+si+0x1cf],bh
0001768A  0000              add [bx+si],al
0001768C  0000              add [bx+si],al
0001768E  0000              add [bx+si],al
00017690  0000              add [bx+si],al
00017692  0000              add [bx+si],al
00017694  0000              add [bx+si],al
00017696  0000              add [bx+si],al
00017698  0000              add [bx+si],al
0001769A  0000              add [bx+si],al
0001769C  0000              add [bx+si],al
0001769E  0000              add [bx+si],al
000176A0  0000              add [bx+si],al
000176A2  0000              add [bx+si],al
000176A4  0000              add [bx+si],al
000176A6  0000              add [bx+si],al
000176A8  0000              add [bx+si],al
000176AA  0000              add [bx+si],al
000176AC  0000              add [bx+si],al
000176AE  0000              add [bx+si],al
000176B0  0000              add [bx+si],al
000176B2  0000              add [bx+si],al
000176B4  0000              add [bx+si],al
000176B6  0000              add [bx+si],al
000176B8  0000              add [bx+si],al
000176BA  0000              add [bx+si],al
000176BC  0000              add [bx+si],al
000176BE  0000              add [bx+si],al
000176C0  0000              add [bx+si],al
000176C2  0000              add [bx+si],al
000176C4  0000              add [bx+si],al
000176C6  0000              add [bx+si],al
000176C8  0000              add [bx+si],al
000176CA  00F4              add ah,dh
000176CC  A810              test al,0x10
000176CE  40                inc ax
000176CF  0002              add [bp+si],al
000176D1  0412              add al,0x12
000176D3  094211            or [bp+si+0x11],ax
000176D6  42                inc dx
000176D7  3A16BCF8          cmp dl,[0xf8bc]
000176DB  0000              add [bx+si],al
000176DD  0200              add al,[bx+si]
000176DF  0842E4            or [bp+si-0x1c],al
000176E2  57                push di
000176E3  251B2E            and ax,0x2e1b
000176E6  57                push di
000176E7  F098              lock cbw
000176E9  E080              loopne 0x766b
000176EB  0100              add [bx+si],ax
000176ED  0000              add [bx+si],al
000176EF  3B4512            cmp ax,[di+0x12]
000176F2  00FE              add dh,bh
000176F4  651288E040        adc cl,[gs:bx+si+0x40e0]
000176F9  0000              add [bx+si],al
000176FB  0000              add [bx+si],al
000176FD  0000              add [bx+si],al
000176FF  0000              add [bx+si],al
00017701  0000              add [bx+si],al
00017703  0000              add [bx+si],al
00017705  0000              add [bx+si],al
00017707  0000              add [bx+si],al
00017709  0000              add [bx+si],al
0001770B  0101              add [bx+di],ax
0001770D  030EE8A0          add cx,[0xa0e8]
00017711  40                inc ax
00017712  800000            add byte [bx+si],0x0
00017715  0000              add [bx+si],al
00017717  0810              or [bx+si],dl
00017719  2000              and [bx+si],al
0001771B  3DEAD4            cmp ax,0xd4ea
0001771E  AC                lodsb
0001771F  0800              or [bx+si],al
00017721  0001              add [bx+di],al
00017723  0000              add [bx+si],al
00017725  0802              or [bp+si],al
00017727  0010              add [bx+si],dl
00017729  0080D6AA          add [bx+si-0x552a],al
0001772D  DD                db 0xdd
0001772E  AF                scasw
0001772F  1000              adc [bx+si],al
00017731  00800444          add [bx+si+0x4404],al
00017735  0200              add al,[bx+si]
00017737  0000              add [bx+si],al
00017739  0000              add [bx+si],al
0001773B  D6                salc
0001773C  6F                outsw
0001773D  D6                salc
0001773E  00E0              add al,ah
00017740  5F                pop di
00017741  A10000            mov ax,[0x0]
00017744  80F800            cmp al,0x0
00017747  0000              add [bx+si],al
00017749  0000              add [bx+si],al
0001774B  0000              add [bx+si],al
0001774D  0000              add [bx+si],al
0001774F  0000              add [bx+si],al
00017751  0000              add [bx+si],al
00017753  800040            add byte [bx+si],0x40
00017756  1000              adc [bx+si],al
00017758  0000              add [bx+si],al
0001775A  0000              add [bx+si],al
0001775C  0000              add [bx+si],al
0001775E  0400              add al,0x0
00017760  0000              add [bx+si],al
00017762  0000              add [bx+si],al
00017764  40                inc ax
00017765  0010              add [bx+si],dl
00017767  0000              add [bx+si],al
00017769  0000              add [bx+si],al
0001776B  0000              add [bx+si],al
0001776D  0000              add [bx+si],al
0001776F  0000              add [bx+si],al
00017771  0000              add [bx+si],al
00017773  004010            add [bx+si+0x10],al
00017776  0000              add [bx+si],al
00017778  0008              add [bx+si],cl
0001777A  0004              add [si],al
0001777C  0001              add [bx+di],al
0001777E  0000              add [bx+si],al
00017780  0000              add [bx+si],al
00017782  40                inc ax
00017783  40                inc ax
00017784  1000              adc [bx+si],al
00017786  0000              add [bx+si],al
00017788  0800              or [bx+si],al
0001778A  0000              add [bx+si],al
0001778C  0000              add [bx+si],al
0001778E  0003              add [bp+di],al
00017790  0F1F1F            hint_nop59 word [bx]
00017793  40                inc ax
00017794  D0A8E800          shr byte [bx+si+0xe8],1
00017798  0000              add [bx+si],al
0001779A  0000              add [bx+si],al
0001779C  347A              xor al,0x7a
0001779E  7A1F              jpe 0x77bf
000177A0  1F                pop ds
000177A1  1F                pop ds
000177A2  1F                pop ds
000177A3  B8A8E8            mov ax,0xe8a8
000177A6  A800              test al,0x0
000177A8  0000              add [bx+si],al
000177AA  007E7A            add [bp+0x7a],bh
000177AD  7E7A              jng 0x7829
000177AF  1F                pop ds
000177B0  1F                pop ds
000177B1  1F                pop ds
000177B2  1F                pop ds
000177B3  B8A8E8            mov ax,0xe8a8
000177B6  B868F4            mov ax,0xf468
000177B9  F4                hlt
000177BA  FC                cld
000177BB  7A3F              jpe 0x77fc
000177BD  3E1F              ds pop ds
000177BF  1F                pop ds
000177C0  1F                pop ds
000177C1  EF                out dx,ax
000177C2  B7A8              mov bh,0xa8
000177C4  E8B8E8            call 0x607f
000177C7  F4                hlt
000177C8  F4                hlt
000177C9  FC                cld
000177CA  F4                hlt
000177CB  0000              add [bx+si],al
000177CD  0000              add [bx+si],al
000177CF  0001              add [bx+di],al
000177D1  0401              add al,0x1
000177D3  0000              add [bx+si],al
000177D5  0000              add [bx+si],al
000177D7  0000              add [bx+si],al
000177D9  0000              add [bx+si],al
000177DB  0000              add [bx+si],al
000177DD  1000              adc [bx+si],al
000177DF  050405            add ax,0x504
000177E2  0100              add [bx+si],ax
000177E4  0000              add [bx+si],al
000177E6  0000              add [bx+si],al
000177E8  0000              add [bx+si],al
000177EA  0010              add [bx+si],dl
000177EC  1000              adc [bx+si],al
000177EE  1004              adc [si],al
000177F0  050401            add ax,0x104
000177F3  0000              add [bx+si],al
000177F5  0000              add [bx+si],al
000177F7  0020              add [bx+si],ah
000177F9  0020              add [bx+si],ah
000177FB  0008              add [bx+si],cl
000177FD  0004              add [si],al
000177FF  0405              add al,0x5
00017801  0105              add [di],ax
00017803  0000              add [bx+si],al
00017805  0000              add [bx+si],al
00017807  0020              add [bx+si],ah
00017809  2000              and [bx+si],al
0001780B  0000              add [bx+si],al
0001780D  0000              add [bx+si],al
0001780F  0008              add [bx+si],cl
00017811  0000              add [bx+si],al
00017813  104000            adc [bx+si+0x0],al
00017816  0008              add [bx+si],cl
00017818  0010              add [bx+si],dl
0001781A  40                inc ax
0001781B  0000              add [bx+si],al
0001781D  0110              add [bx+si],dx
0001781F  0001              add [bx+di],al
00017821  0000              add [bx+si],al
00017823  1000              adc [bx+si],al
00017825  40                inc ax
00017826  0000              add [bx+si],al
00017828  0000              add [bx+si],al
0001782A  2001              and [bx+di],al
0001782C  0024              add [si],ah
0001782E  0001              add [bx+di],al
00017830  0000              add [bx+si],al
00017832  0110              add [bx+si],dx
00017834  104000            adc [bx+si+0x0],al
00017837  0440              add al,0x40
00017839  0220              add ah,[bx+si]
0001783B  0000              add [bx+si],al
0001783D  0000              add [bx+si],al
0001783F  0001              add [bx+di],al
00017841  0000              add [bx+si],al
00017843  1000              adc [bx+si],al
00017845  0000              add [bx+si],al
00017847  0000              add [bx+si],al
00017849  0000              add [bx+si],al
0001784B  0F0100            sgdt [bx+si]
0001784E  00F7              add bh,dh
00017850  F72E1FA9          imul word [0xa91f]
00017854  BBE9AA            mov bx,0xaae9
00017857  F4                hlt
00017858  F8                clc
00017859  E8B000            call 0x790c
0001785C  0001              add [bx+di],al
0001785E  111E1E1F          adc [0x1f1e],bx
00017862  1E                push ds
00017863  E9BAA8            jmp 0x2120
00017866  E84000            call 0x78a9
00017869  0020              add [bx+si],ah
0001786B  0908              or [bx+si],cx
0001786D  2416              and al,0x16
0001786F  1E                push ds
00017870  9F                lahf
00017871  9E                sahf
00017872  9E                sahf
00017873  A8A8              test al,0xa8
00017875  B8E94C            mov ax,0x4ce9
00017878  50                push ax
00017879  92                xchg ax,dx
0001787A  A4                movsb
0001787B  0B15              or dx,[di]
0001787D  0000              add [bx+si],al
0001787F  EF                out dx,ax
00017880  76A9              jna 0x782b
00017882  00AFDF52          add [bx+0x52df],ch
00017886  0068D4            add [bx+si-0x2c],ch
00017889  800001            add byte [bx+si],0x1
0001788C  0000              add [bx+si],al
0001788E  0000              add [bx+si],al
00017890  2400              and al,0x0
00017892  0400              add al,0x0
00017894  0000              add [bx+si],al
00017896  0020              add [bx+si],ah
00017898  00800000          add [bx+si+0x0],al
0001789C  0000              add [bx+si],al
0001789E  0004              add [si],al
000178A0  0004              add [si],al
000178A2  0400              add al,0x0
000178A4  0000              add [bx+si],al
000178A6  0000              add [bx+si],al
000178A8  0000              add [bx+si],al
000178AA  0000              add [bx+si],al
000178AC  0000              add [bx+si],al
000178AE  0000              add [bx+si],al
000178B0  0404              add al,0x4
000178B2  0000              add [bx+si],al
000178B4  0000              add [bx+si],al
000178B6  0000              add [bx+si],al
000178B8  0000              add [bx+si],al
000178BA  0000              add [bx+si],al
000178BC  0000              add [bx+si],al
000178BE  0004              add [si],al
000178C0  0000              add [bx+si],al
000178C2  0000              add [bx+si],al
000178C4  0000              add [bx+si],al
000178C6  0000              add [bx+si],al
000178C8  0000              add [bx+si],al
000178CA  0000              add [bx+si],al
000178CC  0000              add [bx+si],al
000178CE  0000              add [bx+si],al
000178D0  0000              add [bx+si],al
000178D2  0000              add [bx+si],al
000178D4  0000              add [bx+si],al
000178D6  0000              add [bx+si],al
000178D8  0000              add [bx+si],al
000178DA  0000              add [bx+si],al
000178DC  0000              add [bx+si],al
000178DE  0000              add [bx+si],al
000178E0  0000              add [bx+si],al
000178E2  0000              add [bx+si],al
000178E4  0000              add [bx+si],al
000178E6  0000              add [bx+si],al
000178E8  0000              add [bx+si],al
000178EA  0000              add [bx+si],al
000178EC  0000              add [bx+si],al
000178EE  0000              add [bx+si],al
000178F0  0000              add [bx+si],al
000178F2  0000              add [bx+si],al
000178F4  0000              add [bx+si],al
000178F6  0001              add [bx+di],al
000178F8  0000              add [bx+si],al
000178FA  0000              add [bx+si],al
000178FC  0000              add [bx+si],al
000178FE  0000              add [bx+si],al
00017900  0000              add [bx+si],al
00017902  0000              add [bx+si],al
00017904  0000              add [bx+si],al
00017906  0000              add [bx+si],al
00017908  0000              add [bx+si],al
0001790A  0000              add [bx+si],al
0001790C  0000              add [bx+si],al
0001790E  0000              add [bx+si],al
00017910  0000              add [bx+si],al
00017912  0000              add [bx+si],al
00017914  0005              add [di],al
00017916  3F                aas
00017917  1F                pop ds
00017918  FE                db 0xfe
00017919  55                push bp
0001791A  DF00              fild word [bx+si]
0001791C  0000              add [bx+si],al
0001791E  0001              add [bx+di],al
00017920  053FFF            add ax,0xff3f
00017923  FF55EF            call [di-0x11]
00017926  DFBF55FB          fistp qword [bx-0x4ab]
0001792A  F7020F3F          test word [bp+si],0x3f0f
0001792E  55                push bp
0001792F  AA                stosb
00017930  F7EF              imul di
00017932  55                push bp
00017933  AA                stosb
00017934  FD                std
00017935  FB                sti
00017936  55                push bp
00017937  AA                stosb
00017938  FF                db 0xff
00017939  FE                db 0xfe
0001793A  55                push bp
0001793B  FB                sti
0001793C  F70000FE          test word [bx+si],0xfe00
00017940  FD                std
00017941  0000              add [bx+si],al
00017943  FF                db 0xff
00017944  FF00              inc word [bx+si]
00017946  00BF7F00          add [bx+0x7f],bh
0001794A  001D              add [di],bl
0001794C  0A0605B7          or al,[0xb705]
00017950  AA                stosb
00017951  EC                in al,dx
00017952  54                push sp
00017953  0000              add [bx+si],al
00017955  053F1F            add ax,0x1f3f
00017958  FE                db 0xfe
00017959  55                push bp
0001795A  DF07              fild word [bx]
0001795C  050605            add ax,0x506
0001795F  BD55FF            mov bp,0xff55
00017962  FF                db 0xff
00017963  FF55EF            call [di-0x11]
00017966  DFBF55FB          fistp qword [bx-0x4ab]
0001796A  F6060F2A55        test byte [0x2a0f],0x55
0001796F  AA                stosb
00017970  F7AA55AA          imul word [bp+si-0x55ab]
00017974  FD                std
00017975  AA                stosb
00017976  55                push bp
00017977  AA                stosb
00017978  F5                cmc
00017979  AA                stosb
0001797A  55                push bp
0001797B  AA                stosb
0001797C  55                push bp
0001797D  0837              or [bx],dh
0001797F  AA                stosb
00017980  55                push bp
00017981  8877AA            mov [bx-0x56],dh
00017984  55                push bp
00017985  8877AA            mov [bx-0x56],dh
00017988  55                push bp
00017989  887700            mov [bx+0x0],dh
0001798C  0000              add [bx+si],al
0001798E  0000              add [bx+si],al
00017990  01061800          add [0x18],ax
00017994  00C0              add al,al
00017996  3000              xor [bx+si],al
00017998  0000              add [bx+si],al
0001799A  0000              add [bx+si],al
0001799C  01060860          add [0x6008],ax
000179A0  800510            add byte [di],0x10
000179A3  0C03              or al,0x3
000179A5  40                inc ax
000179A6  1000              adc [bx+si],al
000179A8  00C0              add al,al
000179AA  205000            and [bx+si+0x0],dl
000179AD  0000              add [bx+si],al
000179AF  2020              and [bx+si],ah
000179B1  2020              and [bx+si],ah
000179B3  0808              or [bx+si],cl
000179B5  0808              or [bx+si],cl
000179B7  1000              adc [bx+si],al
000179B9  0000              add [bx+si],al
000179BB  0000              add [bx+si],al
000179BD  0000              add [bx+si],al
000179BF  2A00              sub al,[bx+si]
000179C1  0000              add [bx+si],al
000179C3  A800              test al,0x0
000179C5  0000              add [bx+si],al
000179C7  0000              add [bx+si],al
000179C9  0000              add [bx+si],al
000179CB  7FFF              jg 0x79cc
000179CD  55                push bp
000179CE  F7DF              neg di
000179D0  BF5EF8            mov di,0xf85e
000179D3  F7FB              idiv bx
000179D5  FA                cli
000179D6  3F                aas
000179D7  FB                sti
000179D8  FD                std
000179D9  AA                stosb
000179DA  DFEF              fucomip st7
000179DC  57                push di
000179DD  FE                db 0xfe
000179DE  F8                clc
000179DF  E080              loopne 0x7961
000179E1  07                pop es
000179E2  190F              sbb [bx],cx
000179E4  03C0              add ax,ax
000179E6  30EF              xor bh,ch
000179E8  D5FF              aad 0xff
000179EA  3F                aas
000179EB  B070              mov al,0x70
000179ED  F050              lock push ax
000179EF  212A              and [bp+si],bp
000179F1  2121              and [bx+di],sp
000179F3  08A80808          or [bx+si+0x808],ch
000179F7  1A1D              sbb bl,[di]
000179F9  1E                push ds
000179FA  15F0F0            adc ax,0xf0f0
000179FD  0000              add [bx+si],al
000179FF  3F                aas
00017A00  0000              add [bx+si],al
00017A02  00F8              add al,bh
00017A04  0000              add [bx+si],al
00017A06  001F              add [bx],bl
00017A08  1F                pop ds
00017A09  0000              add [bx+si],al
00017A0B  7FFF              jg 0x7a0c
00017A0D  55                push bp
00017A0E  F7DE              neg si
00017A10  B9479F            mov cx,0x9f47
00017A13  F75BCA            neg word [bp+di-0x36]
00017A16  75FB              jnz 0x7a13
00017A18  FD                std
00017A19  AA                stosb
00017A1A  5F                pop di
00017A1B  EE                out dx,al
00017A1C  51                push cx
00017A1D  C7                db 0xc7
00017A1E  AF                scasw
00017A1F  7DE2              jnl 0x7a03
00017A21  DF79DC            fistp qword [bx+di-0x24]
00017A24  27                daa
00017A25  DD37              fnsave [bx]
00017A27  AF                scasw
00017A28  55                push bp
00017A29  CA6598            retf 0x9865
00017A2C  47                inc di
00017A2D  AD                lodsw
00017A2E  42                inc dx
00017A2F  A16AE1            mov ax,[0xe16a]
00017A32  2108              and [bx+si],cx
00017A34  AF                scasw
00017A35  0D0A92            or ax,0x920a
00017A38  65CA25AD          gs retf 0xad25
00017A3C  47                inc di
00017A3D  8877FF            mov [bx-0x1],dh
00017A40  7788              ja 0x79ca
00017A42  77FD              ja 0x7a41
00017A44  7788              ja 0x79ce
00017A46  77CA              ja 0x7a12
00017A48  65887700          mov [gs:bx+0x0],dh
00017A4C  0000              add [bx+si],al
00017A4E  0000              add [bx+si],al
00017A50  0000              add [bx+si],al
00017A52  0000              add [bx+si],al
00017A54  0000              add [bx+si],al
00017A56  0000              add [bx+si],al
00017A58  0000              add [bx+si],al
00017A5A  0000              add [bx+si],al
00017A5C  0000              add [bx+si],al
00017A5E  0000              add [bx+si],al
00017A60  0000              add [bx+si],al
00017A62  0000              add [bx+si],al
00017A64  0000              add [bx+si],al
00017A66  0000              add [bx+si],al
00017A68  0000              add [bx+si],al
00017A6A  0000              add [bx+si],al
00017A6C  0000              add [bx+si],al
00017A6E  0000              add [bx+si],al
00017A70  0000              add [bx+si],al
00017A72  0000              add [bx+si],al
00017A74  0000              add [bx+si],al
00017A76  0000              add [bx+si],al
00017A78  0000              add [bx+si],al
00017A7A  0000              add [bx+si],al
00017A7C  0000              add [bx+si],al
00017A7E  0000              add [bx+si],al
00017A80  0000              add [bx+si],al
00017A82  0000              add [bx+si],al
00017A84  0000              add [bx+si],al
00017A86  0000              add [bx+si],al
00017A88  0000              add [bx+si],al
00017A8A  00F0              add al,dh
00017A8C  FE                db 0xfe
00017A8D  AA                stosb
00017A8E  F7000080          test word [bx+si],0x8000
00017A92  F8                clc
00017A93  0000              add [bx+si],al
00017A95  0000              add [bx+si],al
00017A97  0000              add [bx+si],al
00017A99  0000              add [bx+si],al
00017A9B  FB                sti
00017A9C  55                push bp
00017A9D  BFDFFF            mov di,0xffdf
00017AA0  55                push bp
00017AA1  EF                out dx,ax
00017AA2  F70040F8          test word [bx+si],0xf840
00017AA6  FE00              inc byte [bx+si]
00017AA8  0000              add [bx+si],al
00017AAA  00AAFFFF          add [bp+si-0x1],ch
00017AAE  55                push bp
00017AAF  AA                stosb
00017AB0  7FBF              jg 0x7a71
00017AB2  55                push bp
00017AB3  AA                stosb
00017AB4  DFEF              fucomip st7
00017AB6  55                push bp
00017AB7  80E0F8            and al,0xf8
00017ABA  54                push sp
00017ABB  FB                sti
00017ABC  FD                std
00017ABD  0000              add [bx+si],al
00017ABF  FE                db 0xfe
00017AC0  FF00              inc word [bx+si]
00017AC2  00FF              add bh,bh
00017AC4  7F00              jg 0x7ac6
00017AC6  00BEDE00          add [bp+0xde],bh
00017ACA  00F0              add al,dh
00017ACC  FE                db 0xfe
00017ACD  AA                stosb
00017ACE  F7000080          test word [bx+si],0x8000
00017AD2  F8                clc
00017AD3  0000              add [bx+si],al
00017AD5  0000              add [bx+si],al
00017AD7  0000              add [bx+si],al
00017AD9  0000              add [bx+si],al
00017ADB  FB                sti
00017ADC  55                push bp
00017ADD  BF57FF            mov di,0xff57
00017AE0  55                push bp
00017AE1  EF                out dx,ax
00017AE2  F70040F8          test word [bx+si],0xf840
00017AE6  FE00              inc byte [bx+si]
00017AE8  0000              add [bx+si],al
00017AEA  00AA55AA          add [bp+si-0x55ab],ch
00017AEE  55                push bp
00017AEF  AA                stosb
00017AF0  7FAA              jg 0x7a9c
00017AF2  55                push bp
00017AF3  AA                stosb
00017AF4  DFAA5580          fild qword [bp+si-0x7fab]
00017AF8  E0A8              loopne 0x7aa2
00017AFA  54                push sp
00017AFB  AA                stosb
00017AFC  55                push bp
00017AFD  8877AA            mov [bx-0x56],dh
00017B00  55                push bp
00017B01  8877AA            mov [bx-0x56],dh
00017B04  55                push bp
00017B05  8877AA            mov [bx-0x56],dh
00017B08  54                push sp
00017B09  887000            mov [bx+si+0x0],dh
00017B0C  0000              add [bx+si],al
00017B0E  0000              add [bx+si],al
00017B10  0A20              or ah,[bx+si]
00017B12  40                inc ax
00017B13  00A00804          add [bx+si+0x408],ah
00017B17  0000              add [bx+si],al
00017B19  0000              add [bx+si],al
00017B1B  0000              add [bx+si],al
00017B1D  0000              add [bx+si],al
00017B1F  40                inc ax
00017B20  40                inc ax
00017B21  04A0              add al,0xa0
00017B23  0400              add al,0x0
00017B25  024000            add al,[bx+si+0x0]
00017B28  0000              add [bx+si],al
00017B2A  0000              add [bx+si],al
00017B2C  0000              add [bx+si],al
00017B2E  0000              add [bx+si],al
00017B30  0000              add [bx+si],al
00017B32  0000              add [bx+si],al
00017B34  0000              add [bx+si],al
00017B36  0000              add [bx+si],al
00017B38  0000              add [bx+si],al
00017B3A  0000              add [bx+si],al
00017B3C  0055AA            add [di-0x56],dl
00017B3F  0000              add [bx+si],al
00017B41  55                push bp
00017B42  AA                stosb
00017B43  0000              add [bx+si],al
00017B45  55                push bp
00017B46  AA                stosb
00017B47  0000              add [bx+si],al
00017B49  54                push sp
00017B4A  AA                stosb
00017B4B  0000              add [bx+si],al
00017B4D  0000              add [bx+si],al
00017B4F  000F              add [bx],cl
00017B51  314100            xor [bx+di+0x0],ax
00017B54  E018              loopne 0x7b6e
00017B56  0400              add al,0x0
00017B58  0000              add [bx+si],al
00017B5A  0000              add [bx+si],al
00017B5C  0000              add [bx+si],al
00017B5E  004141            add [bx+di+0x41],al
00017B61  46                inc si
00017B62  F4                hlt
00017B63  0404              add al,0x4
00017B65  07                pop es
00017B66  EC                in al,dx
00017B67  0000              add [bx+si],al
00017B69  0000              add [bx+si],al
00017B6B  0000              add [bx+si],al
00017B6D  0000              add [bx+si],al
00017B6F  5B                pop bx
00017B70  7F3F              jg 0x7bb1
00017B72  009CFCF8          add [si-0x704],bl
00017B76  0000              add [bx+si],al
00017B78  0000              add [bx+si],al
00017B7A  0000              add [bx+si],al
00017B7C  007FFF            add [bx-0x1],bh
00017B7F  0000              add [bx+si],al
00017B81  FF                db 0xff
00017B82  FF00              inc word [bx+si]
00017B84  00FF              add bh,bh
00017B86  FF00              inc word [bx+si]
00017B88  00FC              add ah,bh
00017B8A  FE                db 0xfe
00017B8B  5D                pop bp
00017B8C  221D              and bl,[di]
00017B8E  77DD              ja 0x7b6d
00017B90  2F                das
00017B91  F1                int1
00017B92  41                inc cx
00017B93  DDE2              fucom st2
00017B95  1D07DC            sbb ax,0xdc07
00017B98  20D8              and al,bl
00017B9A  7408              jz 0x7ba4
00017B9C  37                aaa
00017B9D  5D                pop bp
00017B9E  22C1              and al,cl
00017BA0  41                inc cx
00017BA1  C00004            rol byte [bx+si],byte 0x4
00017BA4  07                pop es
00017BA5  0002              add [bp+si],al
00017BA7  8870DC            mov [bx+si-0x24],dh
00017BAA  201D              and [di],bl
00017BAC  7708              ja 0x7bb6
00017BAE  37                aaa
00017BAF  C06EBD62          shr byte [bp-0x43],byte 0x62
00017BB3  054FE8            add ax,0xe84f
00017BB6  27                daa
00017BB7  D87488            fdiv dword [si-0x78]
00017BBA  705D              jo 0x7c19
00017BBC  227FFF            and bh,[bx-0x1]
00017BBF  DD22              frstor [bp+si]
00017BC1  FF                db 0xff
00017BC2  FF                db 0xff
00017BC3  DD22              frstor [bp+si]
00017BC5  FF                db 0xff
00017BC6  FF                db 0xff
00017BC7  DC20              fsub qword [bx+si]
00017BC9  FC                cld
00017BCA  FE00              inc byte [bx+si]
00017BCC  0000              add [bx+si],al
00017BCE  0000              add [bx+si],al
00017BD0  0000              add [bx+si],al
00017BD2  1400              adc al,0x0
00017BD4  0000              add [bx+si],al
00017BD6  0000              add [bx+si],al
00017BD8  0000              add [bx+si],al
00017BDA  0000              add [bx+si],al
00017BDC  0000              add [bx+si],al
00017BDE  0020              add [bx+si],ah
00017BE0  2000              and [bx+si],al
00017BE2  0100              add [bx+si],ax
00017BE4  0000              add [bx+si],al
00017BE6  0000              add [bx+si],al
00017BE8  0000              add [bx+si],al
00017BEA  0000              add [bx+si],al
00017BEC  0000              add [bx+si],al
00017BEE  0002              add [bp+si],al
00017BF0  0200              add al,[bx+si]
00017BF2  0200              add al,[bx+si]
00017BF4  0000              add [bx+si],al
00017BF6  0000              add [bx+si],al
00017BF8  0000              add [bx+si],al
00017BFA  0000              add [bx+si],al
00017BFC  0000              add [bx+si],al
00017BFE  0000              add [bx+si],al
00017C00  0000              add [bx+si],al
00017C02  0000              add [bx+si],al
00017C04  0000              add [bx+si],al
00017C06  0000              add [bx+si],al
00017C08  0000              add [bx+si],al
00017C0A  0000              add [bx+si],al
00017C0C  0000              add [bx+si],al
00017C0E  0000              add [bx+si],al
00017C10  0000              add [bx+si],al
00017C12  1F                pop ds
00017C13  0000              add [bx+si],al
00017C15  00C0              add al,al
00017C17  0000              add [bx+si],al
00017C19  0000              add [bx+si],al
00017C1B  0000              add [bx+si],al
00017C1D  0000              add [bx+si],al
00017C1F  3030              xor [bx+si],dh
00017C21  0001              add [bx+di],al
00017C23  E060              loopne 0x7c85
00017C25  E0C0              loopne 0x7be7
00017C27  0000              add [bx+si],al
00017C29  0000              add [bx+si],al
00017C2B  0000              add [bx+si],al
00017C2D  0000              add [bx+si],al
00017C2F  0303              add ax,[bp+di]
00017C31  0003              add [bp+di],al
00017C33  800000            add byte [bx+si],0x0
00017C36  0000              add [bx+si],al
00017C38  0000              add [bx+si],al
00017C3A  0000              add [bx+si],al
00017C3C  0000              add [bx+si],al
00017C3E  0000              add [bx+si],al
00017C40  0000              add [bx+si],al
00017C42  0000              add [bx+si],al
00017C44  0000              add [bx+si],al
00017C46  0000              add [bx+si],al
00017C48  0000              add [bx+si],al
00017C4A  0000              add [bx+si],al
00017C4C  0000              add [bx+si],al
00017C4E  0000              add [bx+si],al
00017C50  0000              add [bx+si],al
00017C52  0100              add [bx+si],ax
00017C54  0000              add [bx+si],al
00017C56  40                inc ax
00017C57  0000              add [bx+si],al
00017C59  0000              add [bx+si],al
00017C5B  0000              add [bx+si],al
00017C5D  0000              add [bx+si],al
00017C5F  0000              add [bx+si],al
00017C61  0000              add [bx+si],al
00017C63  2020              and [bx+si],ah
00017C65  0000              add [bx+si],al
00017C67  0000              add [bx+si],al
00017C69  0000              add [bx+si],al
00017C6B  0000              add [bx+si],al
00017C6D  0000              add [bx+si],al
00017C6F  0000              add [bx+si],al
00017C71  0000              add [bx+si],al
00017C73  0000              add [bx+si],al
00017C75  0000              add [bx+si],al
00017C77  0000              add [bx+si],al
00017C79  0000              add [bx+si],al
00017C7B  0000              add [bx+si],al
00017C7D  0000              add [bx+si],al
00017C7F  0000              add [bx+si],al
00017C81  0000              add [bx+si],al
00017C83  0000              add [bx+si],al
00017C85  0000              add [bx+si],al
00017C87  0000              add [bx+si],al
00017C89  0000              add [bx+si],al
00017C8B  0000              add [bx+si],al
00017C8D  0000              add [bx+si],al
00017C8F  0001              add [bx+di],al
00017C91  011F              add [bx],bx
00017C93  80C0C0            add al,0xc0
00017C96  FC                cld
00017C97  0000              add [bx+si],al
00017C99  0000              add [bx+si],al
00017C9B  0000              add [bx+si],al
00017C9D  07                pop es
00017C9E  0F05              syscall
00017CA0  0100              add [bx+si],ax
00017CA2  80D0C0            adc al,0xc0
00017CA5  8081000000        add byte [bx+di+0x0],0x0
00017CAA  C00700            rol byte [bx],byte 0x0
00017CAD  0000              add [bx+si],al
00017CAF  0000              add [bx+si],al
00017CB1  0007              add [bx],al
00017CB3  0301              add ax,[bx+di]
00017CB5  0000              add [bx+si],al
00017CB7  E0C0              loopne 0x7c79
00017CB9  0000              add [bx+si],al
00017CBB  0000              add [bx+si],al
00017CBD  0000              add [bx+si],al
00017CBF  0F07              sysret
00017CC1  0000              add [bx+si],al
00017CC3  800000            add byte [bx+si],0x0
00017CC6  0000              add [bx+si],al
00017CC8  0000              add [bx+si],al
00017CCA  0000              add [bx+si],al
00017CCC  0000              add [bx+si],al
00017CCE  0000              add [bx+si],al
00017CD0  0101              add [bx+di],ax
00017CD2  1E                push ds
00017CD3  80C0C0            add al,0xc0
00017CD6  3C00              cmp al,0x0
00017CD8  0000              add [bx+si],al
00017CDA  0002              add [bp+si],al
00017CDC  07                pop es
00017CDD  07                pop es
00017CDE  7805              js 0x7ce5
00017CE0  0100              add [bx+si],ax
00017CE2  F0D0C0            lock rol al,1
00017CE5  81810080C0C0      add word [bx+di-0x8000],0xc0c0
00017CEB  17                pop ss
00017CEC  07                pop es
00017CED  0202              add al,[bp+si]
00017CEF  40                inc ax
00017CF0  0000              add [bx+si],al
00017CF2  07                pop es
00017CF3  1E                push ds
00017CF4  050100            add ax,0x1
00017CF7  3CD0              cmp al,0xd0
00017CF9  C080000000        rol byte [bx+si+0x0],byte 0x0
00017CFE  0008              add [bx+si],cl
00017D00  07                pop es
00017D01  0000              add [bx+si],al
00017D03  800000            add byte [bx+si],0x0
00017D06  00800000          add [bx+si+0x0],al
00017D0A  0000              add [bx+si],al
00017D0C  0000              add [bx+si],al
00017D0E  0000              add [bx+si],al
00017D10  0001              add [bx+di],al
00017D12  0300              add ax,[bx+si]
00017D14  00C0              add al,al
00017D16  E000              loopne 0x7d18
00017D18  0000              add [bx+si],al
00017D1A  0002              add [bp+si],al
00017D1C  07                pop es
00017D1D  07                pop es
00017D1E  7F01              jg 0x7d21
00017D20  0000              add [bx+si],al
00017D22  F0C00000          lock rol byte [bx+si],byte 0x0
00017D26  0100              add [bx+si],ax
00017D28  0000              add [bx+si],al
00017D2A  C01707            rcl byte [bx],byte 0x7
00017D2D  0202              add al,[bp+si]
00017D2F  42                inc dx
00017D30  0207              add al,[bx]
00017D32  17                pop ss
00017D33  0301              add ax,[bx+di]
00017D35  0040E0            add [bx+si-0x20],al
00017D38  C00000            rol byte [bx+si],byte 0x0
00017D3B  0000              add [bx+si],al
00017D3D  0000              add [bx+si],al
00017D3F  7F07              jg 0x7d48
00017D41  07                pop es
00017D42  02F0              add dh,al
00017D44  0000              add [bx+si],al
00017D46  0000              add [bx+si],al
00017D48  0000              add [bx+si],al
00017D4A  0000              add [bx+si],al
00017D4C  0001              add [bx+di],al
00017D4E  0000              add [bx+si],al
00017D50  0004              add [si],al
00017D52  D800              fadd dword [bx+si]
00017D54  0010              add [bx+si],dl
00017D56  0D0000            or ax,0x0
00017D59  40                inc ax
00017D5A  800000            add byte [bx+si],0x0
00017D5D  0100              add [bx+si],ax
00017D5F  88D8              mov al,bl
00017D61  0400              add al,0x0
00017D63  080D              or [di],cl
00017D65  1008              adc [bx+si],cl
00017D67  8080400000        add byte [bx+si+0x40],0x0
00017D6C  0403              add al,0x3
00017D6E  0200              add al,[bx+si]
00017D70  106021            adc [bx+si+0x21],ah
00017D73  085D36            or [di+0x36],bl
00017D76  E300              jcxz 0x7d78
00017D78  0000              add [bx+si],al
00017D7A  C00304            rol byte [bp+di],byte 0x4
00017D7D  0000              add [bx+si],al
00017D7F  60                pusha
00017D80  1000              adc [bx+si],al
00017D82  00775D            add [bx+0x5d],dh
00017D85  0800              or [bx+si],al
00017D87  0000              add [bx+si],al
00017D89  0000              add [bx+si],al
00017D8B  0000              add [bx+si],al
00017D8D  0100              add [bx+si],ax
00017D8F  0000              add [bx+si],al
00017D91  04F8              add al,0xf8
00017D93  0002              add [bp+si],al
00017D95  17                pop ss
00017D96  0F0000            sldt [bx+si]
00017D99  40                inc ax
00017D9A  800000            add byte [bx+si],0x0
00017D9D  0100              add [bx+si],ax
00017D9F  F8                clc
00017DA0  F8                clc
00017DA1  0480              add al,0x80
00017DA3  7F1F              jg 0x7dc4
00017DA5  17                pop ss
00017DA6  0AF0              or dh,al
00017DA8  C0400000          rol byte [bx+si+0x0],byte 0x0
00017DAC  05031F            add ax,0x1f03
00017DAF  80D0E0            adc al,0xe0
00017DB2  FD                std
00017DB3  0A5D3E            or bl,[di+0x3e]
00017DB6  FF00              inc word [bx+si]
00017DB8  0000              add [bx+si],al
00017DBA  C00705            rol byte [bx],byte 0x5
00017DBD  0000              add [bx+si],al
00017DBF  F0D080007F        lock rol byte [bx+si+0x7f00],1
00017DC4  5D                pop bp
00017DC5  0800              or [bx+si],al
00017DC7  0000              add [bx+si],al
00017DC9  0000              add [bx+si],al
00017DCB  0000              add [bx+si],al
00017DCD  0100              add [bx+si],ax
00017DCF  0020              add [bx+si],ah
00017DD1  74F8              jz 0x7dcb
00017DD3  0002              add [bp+si],al
00017DD5  17                pop ss
00017DD6  0F0000            sldt [bx+si]
00017DD9  40                inc ax
00017DDA  800701            add byte [bx],0x1
00017DDD  0100              add [bx+si],ax
00017DDF  FF                db 0xff
00017DE0  FC                cld
00017DE1  7420              jz 0x7e03
00017DE3  7F1F              jg 0x7e04
00017DE5  17                pop ss
00017DE6  02F0              add dh,al
00017DE8  C0400000          rol byte [bx+si+0x0],byte 0x0
00017DEC  0403              add al,0x3
00017DEE  0320              add sp,[bx+si]
00017DF0  10E0              adc al,ah
00017DF2  E002              loopne 0x7df6
00017DF4  41                inc cx
00017DF5  3E3E0000          add [ds:bx+si],al
00017DF9  0000              add [bx+si],al
00017DFB  0304              add ax,[si]
00017DFD  0000              add [bx+si],al
00017DFF  E010              loopne 0x7e11
00017E01  0000              add [bx+si],al
00017E03  3E41              ds inc cx
00017E05  0000              add [bx+si],al
00017E07  0000              add [bx+si],al
00017E09  0000              add [bx+si],al
00017E0B  0000              add [bx+si],al
00017E0D  0000              add [bx+si],al
00017E0F  0000              add [bx+si],al
00017E11  0103              add [bp+di],ax
00017E13  0000              add [bx+si],al
00017E15  C0E000            shl al,byte 0x0
00017E18  0000              add [bx+si],al
00017E1A  0000              add [bx+si],al
00017E1C  0007              add [bx],al
00017E1E  0F0100            sgdt [bx+si]
00017E21  0080C000          add [bx+si+0xc0],al
00017E25  0001              add [bx+di],al
00017E27  0000              add [bx+si],al
00017E29  00C0              add al,al
00017E2B  07                pop es
00017E2C  0000              add [bx+si],al
00017E2E  0002              add [bp+si],al
00017E30  0207              add al,[bx]
00017E32  17                pop ss
00017E33  0301              add ax,[bx+di]
00017E35  0040E0            add [bx+si-0x20],al
00017E38  C00000            rol byte [bx+si],byte 0x0
00017E3B  0000              add [bx+si],al
00017E3D  0000              add [bx+si],al
00017E3F  7F07              jg 0x7e48
00017E41  07                pop es
00017E42  02F0              add dh,al
00017E44  0000              add [bx+si],al
00017E46  0000              add [bx+si],al
00017E48  0000              add [bx+si],al
00017E4A  0000              add [bx+si],al
00017E4C  0000              add [bx+si],al
00017E4E  0000              add [bx+si],al
00017E50  0001              add [bx+di],al
00017E52  0200              add al,[bx+si]
00017E54  00C0              add al,al
00017E56  2000              and [bx+si],al
00017E58  0000              add [bx+si],al
00017E5A  0002              add [bp+si],al
00017E5C  07                pop es
00017E5D  07                pop es
00017E5E  7801              js 0x7e61
00017E60  0000              add [bx+si],al
00017E62  F0C00001          lock rol byte [bx+si],byte 0x1
00017E66  0100              add [bx+si],ax
00017E68  80C0C0            add al,0xc0
00017E6B  17                pop ss
00017E6C  07                pop es
00017E6D  0202              add al,[bp+si]
00017E6F  42                inc dx
00017E70  0207              add al,[bx]
00017E72  17                pop ss
00017E73  1E                push ds
00017E74  050140            add ax,0x4001
00017E77  3CD0              cmp al,0xd0
00017E79  C080000000        rol byte [bx+si+0x0],byte 0x0
00017E7E  007807            add [bx+si+0x7],bh
00017E81  07                pop es
00017E82  02F0              add dh,al
00017E84  0000              add [bx+si],al
00017E86  00800000          add [bx+si+0x0],al
00017E8A  0000              add [bx+si],al
00017E8C  0000              add [bx+si],al
00017E8E  0000              add [bx+si],al
00017E90  0101              add [bx+di],ax
00017E92  1F                pop ds
00017E93  80C0C0            add al,0xc0
00017E96  FC                cld
00017E97  0000              add [bx+si],al
00017E99  0000              add [bx+si],al
00017E9B  0000              add [bx+si],al
00017E9D  07                pop es
00017E9E  0F05              syscall
00017EA0  0100              add [bx+si],ax
00017EA2  80D0C0            adc al,0xc0
00017EA5  81810080C0C0      add word [bx+di-0x8000],0xc0c0
00017EAB  07                pop es
00017EAC  0000              add [bx+si],al
00017EAE  0000              add [bx+si],al
00017EB0  0000              add [bx+si],al
00017EB2  07                pop es
00017EB3  1F                pop ds
00017EB4  050100            add ax,0x1
00017EB7  FC                cld
00017EB8  D0C0              rol al,1
00017EBA  800000            add byte [bx+si],0x0
00017EBD  0000              add [bx+si],al
00017EBF  0F07              sysret
00017EC1  0000              add [bx+si],al
00017EC3  800000            add byte [bx+si],0x0
00017EC6  00800000          add [bx+si+0x0],al
00017ECA  0000              add [bx+si],al
00017ECC  0001              add [bx+di],al
00017ECE  0000              add [bx+si],al
00017ED0  2074D8            and [si-0x28],dh
00017ED3  0000              add [bx+si],al
00017ED5  100D              adc [di],cl
00017ED7  0000              add [bx+si],al
00017ED9  40                inc ax
00017EDA  800701            add byte [bx],0x1
00017EDD  0100              add [bx+si],ax
00017EDF  8F                db 0x8f
00017EE0  DC7420            fdiv qword [si+0x20]
00017EE3  080D              or [di],cl
00017EE5  1000              adc [bx+si],al
00017EE7  8080400000        add byte [bx+si+0x40],0x0
00017EEC  0403              add al,0x3
00017EEE  0220              add ah,[bx+si]
00017EF0  106020            adc [bx+si+0x20],ah
00017EF3  004136            add [bx+di+0x36],al
00017EF6  2200              and al,[bx+si]
00017EF8  0000              add [bx+si],al
00017EFA  0003              add [bp+di],al
00017EFC  0400              add al,0x0
00017EFE  006010            add [bx+si+0x10],ah
00017F01  0000              add [bx+si],al
00017F03  3641              ss inc cx
00017F05  0000              add [bx+si],al
00017F07  0000              add [bx+si],al
00017F09  0000              add [bx+si],al
00017F0B  0000              add [bx+si],al
00017F0D  0100              add [bx+si],ax
00017F0F  0020              add [bx+si],ah
00017F11  74F8              jz 0x7f0b
00017F13  0002              add [bp+si],al
00017F15  17                pop ss
00017F16  0F0000            sldt [bx+si]
00017F19  40                inc ax
00017F1A  800701            add byte [bx],0x1
00017F1D  0100              add [bx+si],ax
00017F1F  FF                db 0xff
00017F20  FC                cld
00017F21  74A0              jz 0x7ec3
00017F23  7F1F              jg 0x7f44
00017F25  17                pop ss
00017F26  02F0              add dh,al
00017F28  C0400000          rol byte [bx+si+0x0],byte 0x0
00017F2C  05031F            add ax,0x1f03
00017F2F  A0D0E0            mov al,[0xe0d0]
00017F32  FC                cld
00017F33  02413E            add al,[bx+di+0x3e]
00017F36  3E0000            add [ds:bx+si],al
00017F39  0000              add [bx+si],al
00017F3B  07                pop es
00017F3C  050000            add ax,0x0
00017F3F  F0D080003E        lock rol byte [bx+si+0x3e00],1
00017F44  41                inc cx
00017F45  0000              add [bx+si],al
00017F47  0000              add [bx+si],al
00017F49  0000              add [bx+si],al
00017F4B  0000              add [bx+si],al
00017F4D  0100              add [bx+si],ax
00017F4F  0000              add [bx+si],al
00017F51  04F8              add al,0xf8
00017F53  0000              add [bx+si],al
00017F55  100F              adc [bx],cl
00017F57  0000              add [bx+si],al
00017F59  40                inc ax
00017F5A  800000            add byte [bx+si],0x0
00017F5D  0100              add [bx+si],ax
00017F5F  F8                clc
00017F60  F8                clc
00017F61  0480              add al,0x80
00017F63  0F                db 0x0f
00017F64  0F1008            movups xmm1,oword [bx+si]
00017F67  8080400000        add byte [bx+si+0x40],0x0
00017F6C  05031F            add ax,0x1f03
00017F6F  80D0E0            adc al,0xe0
00017F72  FD                std
00017F73  085D3E            or [di+0x3e],bl
00017F76  FF00              inc word [bx+si]
00017F78  0000              add [bx+si],al
00017F7A  C00705            rol byte [bx],byte 0x5
00017F7D  0000              add [bx+si],al
00017F7F  F0D080007F        lock rol byte [bx+si+0x7f00],1
00017F84  5D                pop bp
00017F85  0800              or [bx+si],al
00017F87  0000              add [bx+si],al
00017F89  0000              add [bx+si],al
00017F8B  0000              add [bx+si],al
00017F8D  0000              add [bx+si],al
00017F8F  0000              add [bx+si],al
00017F91  0000              add [bx+si],al
00017F93  0000              add [bx+si],al
00017F95  0000              add [bx+si],al
00017F97  0000              add [bx+si],al
00017F99  0000              add [bx+si],al
00017F9B  0000              add [bx+si],al
00017F9D  0000              add [bx+si],al
00017F9F  081F              or [bx],bl
00017FA1  2F                das
00017FA2  1F                pop ds
00017FA3  08FE              or dh,bh
00017FA5  F7F3              div bx
00017FA7  0000              add [bx+si],al
00017FA9  00800000          add [bx+si+0x0],al
00017FAD  0000              add [bx+si],al
00017FAF  000F              add [bx],cl
00017FB1  0E                push cs
00017FB2  1E                push ds
00017FB3  00F0              add al,dh
00017FB5  F07800            lock js 0x7fb8
00017FB8  0000              add [bx+si],al
00017FBA  0000              add [bx+si],al
00017FBC  0000              add [bx+si],al
00017FBE  00261800          add [0x18],ah
00017FC2  0038              add [bx+si],bh
00017FC4  3838              cmp [bx+si],bh
00017FC6  3C00              cmp al,0x0
00017FC8  0000              add [bx+si],al
00017FCA  0000              add [bx+si],al
00017FCC  0000              add [bx+si],al
00017FCE  0000              add [bx+si],al
00017FD0  0000              add [bx+si],al
00017FD2  0000              add [bx+si],al
00017FD4  0000              add [bx+si],al
00017FD6  0000              add [bx+si],al
00017FD8  0000              add [bx+si],al
00017FDA  0000              add [bx+si],al
00017FDC  0000              add [bx+si],al
00017FDE  000F              add [bx],cl
00017FE0  17                pop ss
00017FE1  27                daa
00017FE2  37                aaa
00017FE3  F8                clc
00017FE4  FE                db 0xfe
00017FE5  F7F3              div bx
00017FE7  0000              add [bx+si],al
00017FE9  00800000          add [bx+si+0x0],al
00017FED  0000              add [bx+si],al
00017FEF  1F                pop ds
00017FF0  0F0E              femms
00017FF2  14F1              adc al,0xf1
00017FF4  F0F07880          lock js 0x7f78
00017FF8  800000            add byte [bx+si],0x0
00017FFB  0000              add [bx+si],al
00017FFD  0000              add [bx+si],al
00017FFF  2418              and al,0x18
00018001  0000              add [bx+si],al
00018003  3838              cmp [bx+si],bh
00018005  282C              sub [si],ch
00018007  0000              add [bx+si],al
00018009  0000              add [bx+si],al
0001800B  0000              add [bx+si],al
0001800D  0000              add [bx+si],al
0001800F  0307              add ax,[bx]
00018011  07                pop es
00018012  03F0              add si,ax
00018014  F8                clc
00018015  F8                clc
00018016  F00000            lock add [bx+si],al
00018019  0000              add [bx+si],al
0001801B  0000              add [bx+si],al
0001801D  0000              add [bx+si],al
0001801F  0005              add [di],al
00018021  0325              add sp,[di]
00018023  08FE              or dh,bh
00018025  E7F3              out 0xf3,ax
00018027  0000              add [bx+si],al
00018029  00800000          add [bx+si+0x0],al
0001802D  0000              add [bx+si],al
0001802F  1005              adc [di],al
00018031  0A00              or al,[bx+si]
00018033  01F1              add cx,si
00018035  F07880            lock js 0x7fb8
00018038  800000            add byte [bx+si],0x0
0001803B  0000              add [bx+si],al
0001803D  0000              add [bx+si],al
0001803F  0000              add [bx+si],al
00018041  0000              add [bx+si],al
00018043  3838              cmp [bx+si],bh
00018045  0000              add [bx+si],al
00018047  0000              add [bx+si],al
00018049  0000              add [bx+si],al
0001804B  0000              add [bx+si],al
0001804D  0000              add [bx+si],al
0001804F  0000              add [bx+si],al
00018051  0000              add [bx+si],al
00018053  0000              add [bx+si],al
00018055  0000              add [bx+si],al
00018057  0000              add [bx+si],al
00018059  0000              add [bx+si],al
0001805B  0000              add [bx+si],al
0001805D  0000              add [bx+si],al
0001805F  083F              or [bx],bh
00018061  77E7              ja 0x804a
00018063  08FC              or ah,bh
00018065  FA                cli
00018066  FC                cld
00018067  0000              add [bx+si],al
00018069  0000              add [bx+si],al
0001806B  0000              add [bx+si],al
0001806D  0000              add [bx+si],al
0001806F  0007              add [bx],al
00018071  07                pop es
00018072  0F                db 0x0f
00018073  00F8              add al,bh
00018075  B83C00            mov ax,0x3c
00018078  0000              add [bx+si],al
0001807A  0000              add [bx+si],al
0001807C  0000              add [bx+si],al
0001807E  000E0E0E          add [0xe0e],cl
00018082  1E                push ds
00018083  320C              xor cl,[si]
00018085  0000              add [bx+si],al
00018087  0000              add [bx+si],al
00018089  0000              add [bx+si],al
0001808B  0000              add [bx+si],al
0001808D  0000              add [bx+si],al
0001808F  0000              add [bx+si],al
00018091  0000              add [bx+si],al
00018093  0000              add [bx+si],al
00018095  0000              add [bx+si],al
00018097  0000              add [bx+si],al
00018099  0000              add [bx+si],al
0001809B  0000              add [bx+si],al
0001809D  0000              add [bx+si],al
0001809F  0F                db 0x0f
000180A0  3F                aas
000180A1  77E7              ja 0x808a
000180A3  F8                clc
000180A4  F4                hlt
000180A5  F2F60000          repne test byte [bx+si],0x0
000180A9  0000              add [bx+si],al
000180AB  0000              add [bx+si],al
000180AD  0000              add [bx+si],al
000180AF  C787070FFCF8      mov word [bx+0xf07],0xf8fc
000180B5  B81400            mov ax,0x14
000180B8  0000              add [bx+si],al
000180BA  0000              add [bx+si],al
000180BC  0000              add [bx+si],al
000180BE  000E0E0A          add [0xa0e],cl
000180C2  1A12              sbb dl,[bp+si]
000180C4  0C00              or al,0x0
000180C6  0000              add [bx+si],al
000180C8  0000              add [bx+si],al
000180CA  0000              add [bx+si],al
000180CC  0000              add [bx+si],al
000180CE  0007              add [bx],al
000180D0  0F                db 0x0f
000180D1  0F07              sysret
000180D3  E0F0              loopne 0x80c5
000180D5  F0E000            lock loopne 0x80d8
000180D8  0000              add [bx+si],al
000180DA  0000              add [bx+si],al
000180DC  0000              add [bx+si],al
000180DE  0008              add [bx+si],cl
000180E0  3F                aas
000180E1  73E7              jnc 0x80ca
000180E3  00D0              add al,dl
000180E5  E0D2              loopne 0x80b9
000180E7  0000              add [bx+si],al
000180E9  0000              add [bx+si],al
000180EB  0000              add [bx+si],al
000180ED  0000              add [bx+si],al
000180EF  C0C707            rol bh,byte 0x7
000180F2  0F                db 0x0f
000180F3  04D0              add al,0xd0
000180F5  A800              test al,0x0
000180F7  0000              add [bx+si],al
000180F9  0000              add [bx+si],al
000180FB  0000              add [bx+si],al
000180FD  0000              add [bx+si],al
000180FF  0E                push cs
00018100  0E                push cs
00018101  0000              add [bx+si],al
00018103  0000              add [bx+si],al
00018105  0000              add [bx+si],al
00018107  0000              add [bx+si],al
00018109  0000              add [bx+si],al
0001810B  0000              add [bx+si],al
0001810D  0000              add [bx+si],al
0001810F  0003              add [bp+di],al
00018111  050200            add ax,0x2
00018114  40                inc ax
00018115  60                pusha
00018116  40                inc ax
00018117  0000              add [bx+si],al
00018119  0000              add [bx+si],al
0001811B  0000              add [bx+si],al
0001811D  0000              add [bx+si],al
0001811F  1976CF            sbb [bp-0x31],si
00018122  ED                in ax,dx
00018123  0C7E              or al,0x7e
00018125  F6F6              div dh
00018127  0000              add [bx+si],al
00018129  0000              add [bx+si],al
0001812B  0000              add [bx+si],al
0001812D  0000              add [bx+si],al
0001812F  3807              cmp [bx],al
00018131  0E                push cs
00018132  0E                push cs
00018133  00F0              add al,dh
00018135  F07800            lock js 0x8138
00018138  0000              add [bx+si],al
0001813A  0000              add [bx+si],al
0001813C  0000              add [bx+si],al
0001813E  000A              add [bp+si],cl
00018140  3C00              cmp al,0x0
00018142  0038              add [bx+si],bh
00018144  3838              cmp [bx+si],bh
00018146  3E0000            add [ds:bx+si],al
00018149  0000              add [bx+si],al
0001814B  0000              add [bx+si],al
0001814D  0000              add [bx+si],al
0001814F  0001              add [bx+di],al
00018151  050200            add ax,0x2
00018154  006040            add [bx+si+0x40],ah
00018157  0000              add [bx+si],al
00018159  0000              add [bx+si],al
0001815B  0000              add [bx+si],al
0001815D  0000              add [bx+si],al
0001815F  1F                pop ds
00018160  77C7              ja 0x8129
00018162  E8FCF6            call 0x7861
00018165  F6F6              div dh
00018167  0000              add [bx+si],al
00018169  0000              add [bx+si],al
0001816B  0000              add [bx+si],al
0001816D  0000              add [bx+si],al
0001816F  3A0D              cmp cl,[di]
00018171  0E                push cs
00018172  0E                push cs
00018173  F4                hlt
00018174  F0F07800          lock js 0x8178
00018178  0000              add [bx+si],al
0001817A  0000              add [bx+si],al
0001817C  0000              add [bx+si],al
0001817E  0014              add [si],dl
00018180  1400              adc al,0x0
00018182  0038              add [bx+si],bh
00018184  2828              sub [bx+si],ch
00018186  2A00              sub al,[bx+si]
00018188  0000              add [bx+si],al
0001818A  0000              add [bx+si],al
0001818C  0000              add [bx+si],al
0001818E  0007              add [bx],al
00018190  0D0F07            or ax,0x70f
00018193  E0B0              loopne 0x8145
00018195  F0E000            lock loopne 0x8198
00018198  0000              add [bx+si],al
0001819A  0000              add [bx+si],al
0001819C  0000              add [bx+si],al
0001819E  0011              add [bx+di],dl
000181A0  62                db 0x62
000181A1  C5                db 0xc5
000181A2  E700              out 0x0,ax
000181A4  74F2              jz 0x8198
000181A6  7000              jo 0x81a8
000181A8  0000              add [bx+si],al
000181AA  0000              add [bx+si],al
000181AC  0000              add [bx+si],al
000181AE  0037              add [bx],dh
000181B0  000A              add [bp+si],cl
000181B2  040C              add al,0xc
000181B4  F0F07800          lock js 0x81b8
000181B8  0000              add [bx+si],al
000181BA  0000              add [bx+si],al
000181BC  0000              add [bx+si],al
000181BE  0000              add [bx+si],al
000181C0  0000              add [bx+si],al
000181C2  0038              add [bx+si],bh
000181C4  0000              add [bx+si],al
000181C6  0000              add [bx+si],al
000181C8  0000              add [bx+si],al
000181CA  0000              add [bx+si],al
000181CC  0000              add [bx+si],al
000181CE  0000              add [bx+si],al
000181D0  0305              add ax,[di]
000181D2  0200              add al,[bx+si]
000181D4  40                inc ax
000181D5  60                pusha
000181D6  40                inc ax
000181D7  0000              add [bx+si],al
000181D9  0000              add [bx+si],al
000181DB  0000              add [bx+si],al
000181DD  0000              add [bx+si],al
000181DF  307E6F            xor [bp+0x6f],bh
000181E2  6F                outsw
000181E3  98                cbw
000181E4  6E                outsb
000181E5  F3B700            rep mov bh,0x0
000181E8  0000              add [bx+si],al
000181EA  0000              add [bx+si],al
000181EC  0000              add [bx+si],al
000181EE  0000              add [bx+si],al
000181F0  0F                db 0x0f
000181F1  0F1E1C            hint_nop51 word [si]
000181F4  E070              loopne 0x8266
000181F6  7000              jo 0x81f8
000181F8  0000              add [bx+si],al
000181FA  0000              add [bx+si],al
000181FC  0000              add [bx+si],al
000181FE  001C              add [si],bl
00018200  1C1C              sbb al,0x1c
00018202  7C50              jl 0x8254
00018204  3C00              cmp al,0x0
00018206  0000              add [bx+si],al
00018208  0000              add [bx+si],al
0001820A  0000              add [bx+si],al
0001820C  0000              add [bx+si],al
0001820E  0000              add [bx+si],al
00018210  0105              add [di],ax
00018212  0200              add al,[bx+si]
00018214  006040            add [bx+si+0x40],ah
00018217  0000              add [bx+si],al
00018219  0000              add [bx+si],al
0001821B  0000              add [bx+si],al
0001821D  0000              add [bx+si],al
0001821F  3F                aas
00018220  6F                outsw
00018221  6F                outsw
00018222  6F                outsw
00018223  F8                clc
00018224  EE                out dx,al
00018225  E317              jcxz 0x823e
00018227  0000              add [bx+si],al
00018229  0000              add [bx+si],al
0001822B  0000              add [bx+si],al
0001822D  0000              add [bx+si],al
0001822F  2F                das
00018230  0F                db 0x0f
00018231  0F1E5CB0          hint_nop51 word [si-0x50]
00018235  7070              jo 0x82a7
00018237  0000              add [bx+si],al
00018239  0000              add [bx+si],al
0001823B  0000              add [bx+si],al
0001823D  0000              add [bx+si],al
0001823F  1C14              sbb al,0x14
00018241  1454              adc al,0x54
00018243  2828              sub [bx+si],ch
00018245  0000              add [bx+si],al
00018247  0000              add [bx+si],al
00018249  0000              add [bx+si],al
0001824B  0000              add [bx+si],al
0001824D  0000              add [bx+si],al
0001824F  07                pop es
00018250  0D0F07            or ax,0x70f
00018253  E0B0              loopne 0x8205
00018255  F0E000            lock loopne 0x8258
00018258  0000              add [bx+si],al
0001825A  0000              add [bx+si],al
0001825C  0000              add [bx+si],al
0001825E  0000              add [bx+si],al
00018260  2E4F              cs dec di
00018262  0E                push cs
00018263  8846A3            mov [bp-0x5d],al
00018266  E700              out 0x0,ax
00018268  0000              add [bx+si],al
0001826A  0000              add [bx+si],al
0001826C  0000              add [bx+si],al
0001826E  0030              add [bx+si],dh
00018270  0F                db 0x0f
00018271  0F1EEC            hint_nop53 sp
00018274  005020            add [bx+si+0x20],dl
00018277  0000              add [bx+si],al
00018279  0000              add [bx+si],al
0001827B  0000              add [bx+si],al
0001827D  0000              add [bx+si],al
0001827F  1C00              sbb al,0x0
00018281  0000              add [bx+si],al
00018283  0000              add [bx+si],al
00018285  0000              add [bx+si],al
00018287  0000              add [bx+si],al
00018289  0000              add [bx+si],al
0001828B  0000              add [bx+si],al
0001828D  0000              add [bx+si],al
0001828F  0003              add [bp+di],al
00018291  06                push es
00018292  0100              add [bx+si],ax
00018294  80A0400000        and byte [bx+si+0x40],0x0
00018299  0000              add [bx+si],al
0001829B  0000              add [bx+si],al
0001829D  0002              add [bp+si],al
0001829F  000F              add [bx],cl
000182A1  3F                aas
000182A2  7704              ja 0x82a8
000182A4  FE                db 0xfe
000182A5  F9                stc
000182A6  E000              loopne 0x82a8
000182A8  0000              add [bx+si],al
000182AA  800000            add byte [bx+si],0x0
000182AD  0000              add [bx+si],al
000182AF  0005              add [di],al
000182B1  0A14              or dl,[si]
000182B3  08F8              or al,bh
000182B5  F8                clc
000182B6  7840              js 0x82f8
000182B8  80400000          add byte [bx+si+0x0],0x0
000182BC  0000              add [bx+si],al
000182BE  0008              add [bx+si],cl
000182C0  3C38              cmp al,0x38
000182C2  F8                clc
000182C3  3C1F              cmp al,0x1f
000182C5  07                pop es
000182C6  0000              add [bx+si],al
000182C8  00C0              add al,al
000182CA  C00000            rol byte [bx+si],byte 0x0
000182CD  0000              add [bx+si],al
000182CF  0004              add [si],al
000182D1  0201              add al,[bx+di]
000182D3  0080A040          add [bx+si+0x40a0],al
000182D7  0000              add [bx+si],al
000182D9  0000              add [bx+si],al
000182DB  0000              add [bx+si],al
000182DD  0003              add [bp+di],al
000182DF  030F              add cx,[bx]
000182E1  3CF3              cmp al,0xf3
000182E3  F8                clc
000182E4  FA                cli
000182E5  FB                sti
000182E6  FB                sti
000182E7  0000              add [bx+si],al
000182E9  00800000          add [bx+si+0x0],al
000182ED  0000              add [bx+si],al
000182EF  0307              add ax,[bx]
000182F1  0F1EF9            hint_nop55 cx
000182F4  F8                clc
000182F5  F8                clc
000182F6  78C0              js 0x82b8
000182F8  80400000          add byte [bx+si+0x0],0x0
000182FC  0000              add [bx+si],al
000182FE  001C              add [si],bl
00018300  2828              sub [bx+si],ch
00018302  A83C              test al,0x3c
00018304  1D0500            sbb ax,0x5
00018307  0000              add [bx+si],al
00018309  40                inc ax
0001830A  40                inc ax
0001830B  0000              add [bx+si],al
0001830D  0000              add [bx+si],al
0001830F  0304              add ax,[si]
00018311  07                pop es
00018312  03F0              add si,ax
00018314  78F8              js 0x830e
00018316  F00000            lock add [bx+si],al
00018319  0000              add [bx+si],al
0001831B  0000              add [bx+si],al
0001831D  0006000F          add [0xf00],al
00018321  3C73              cmp al,0x73
00018323  00F8              add al,bh
00018325  F8                clc
00018326  E200              loop 0x8328
00018328  0000              add [bx+si],al
0001832A  0000              add [bx+si],al
0001832C  0000              add [bx+si],al
0001832E  0000              add [bx+si],al
00018330  0104              add [si],ax
00018332  0A09              or cl,[bx+di]
00018334  F8                clc
00018335  F8                clc
00018336  7800              js 0x8338
00018338  C0C000            rol al,byte 0x0
0001833B  0000              add [bx+si],al
0001833D  0000              add [bx+si],al
0001833F  1C00              sbb al,0x0
00018341  0000              add [bx+si],al
00018343  3C1C              cmp al,0x1c
00018345  0000              add [bx+si],al
00018347  0000              add [bx+si],al
00018349  0000              add [bx+si],al
0001834B  0000              add [bx+si],al
0001834D  0000              add [bx+si],al
0001834F  0003              add [bp+di],al
00018351  06                push es
00018352  0100              add [bx+si],ax
00018354  80A0400000        and byte [bx+si+0x40],0x0
00018359  0000              add [bx+si],al
0001835B  0000              add [bx+si],al
0001835D  0000              add [bx+si],al
0001835F  0002              add [bp+si],al
00018361  0303              add ax,[bp+di]
00018363  B078              mov al,0x78
00018365  D8B80000          fdivr dword [bx+si+0x0]
00018369  0000              add [bx+si],al
0001836B  0000              add [bx+si],al
0001836D  0000              add [bx+si],al
0001836F  0100              add [bx+si],ax
00018371  0307              add ax,[bx]
00018373  7000              jo 0x8375
00018375  E0C0              loopne 0x8337
00018377  0000              add [bx+si],al
00018379  0000              add [bx+si],al
0001837B  0000              add [bx+si],al
0001837D  0000              add [bx+si],al
0001837F  07                pop es
00018380  0101              add [bx+di],ax
00018382  05C0F8            add ax,0xf8c0
00018385  0C18              or al,0x18
00018387  0000              add [bx+si],al
00018389  0000              add [bx+si],al
0001838B  0000              add [bx+si],al
0001838D  0000              add [bx+si],al
0001838F  0004              add [si],al
00018391  0201              add al,[bx+di]
00018393  0080A040          add [bx+si+0x40a0],al
00018397  0000              add [bx+si],al
00018399  0000              add [bx+si],al
0001839B  0000              add [bx+si],al
0001839D  0000              add [bx+si],al
0001839F  0203              add al,[bp+di]
000183A1  0303              add ax,[bp+di]
000183A3  B0F8              mov al,0xf8
000183A5  B87800            mov ax,0x78
000183A8  0000              add [bx+si],al
000183AA  0000              add [bx+si],al
000183AC  0000              add [bx+si],al
000183AE  0002              add [bp+si],al
000183B0  0103              add [bp+di],ax
000183B2  07                pop es
000183B3  F070E0            lock jo 0x8396
000183B6  A00000            mov al,[0x0]
000183B9  0000              add [bx+si],al
000183BB  0000              add [bx+si],al
000183BD  0000              add [bx+si],al
000183BF  07                pop es
000183C0  0302              add ax,[bp+si]
000183C2  0A20              or ah,[bx+si]
000183C4  D494              aam 0x94
000183C6  8800              mov [bx+si],al
000183C8  0000              add [bx+si],al
000183CA  0000              add [bx+si],al
000183CC  0000              add [bx+si],al
000183CE  0003              add [bp+di],al
000183D0  0407              add al,0x7
000183D2  03F0              add si,ax
000183D4  78F8              js 0x83ce
000183D6  F00000            lock add [bx+si],al
000183D9  0000              add [bx+si],al
000183DB  0000              add [bx+si],al
000183DD  0000              add [bx+si],al
000183DF  0100              add [bx+si],ax
000183E1  0303              add ax,[bp+di]
000183E3  F07898            lock js 0x837e
000183E6  3800              cmp [bx+si],al
000183E8  0000              add [bx+si],al
000183EA  0000              add [bx+si],al
000183EC  0000              add [bx+si],al
000183EE  0000              add [bx+si],al
000183F0  0303              add ax,[bp+di]
000183F2  03E0              add sp,ax
000183F4  C0E080            shl al,byte 0x80
000183F7  0000              add [bx+si],al
000183F9  0000              add [bx+si],al
000183FB  0000              add [bx+si],al
000183FD  0000              add [bx+si],al
000183FF  07                pop es
00018400  0000              add [bx+si],al
00018402  0000              add [bx+si],al
00018404  C00000            rol byte [bx+si],byte 0x0
00018407  0000              add [bx+si],al
00018409  0000              add [bx+si],al
0001840B  0000              add [bx+si],al
0001840D  0000              add [bx+si],al
0001840F  0003              add [bp+di],al
00018411  06                push es
00018412  0100              add [bx+si],ax
00018414  80A0400000        and byte [bx+si+0x40],0x0
00018419  0000              add [bx+si],al
0001841B  0000              add [bx+si],al
0001841D  0000              add [bx+si],al
0001841F  000C              add [si],cl
00018421  0F2F8C1FFB        comiss xmm1,dword [si-0x4e1]
00018426  E000              loopne 0x8428
00018428  00C0              add al,al
0001842A  800000            add byte [bx+si],0x0
0001842D  0000              add [bx+si],al
0001842F  0007              add [bx],al
00018431  0F1E08            hint_nop49 word [bx+si]
00018434  F8                clc
00018435  E85020            call 0xa488
00018438  1000              adc [bx+si],al
0001843A  0000              add [bx+si],al
0001843C  0000              add [bx+si],al
0001843E  001C              add [si],bl
00018440  3C38              cmp al,0x38
00018442  F8                clc
00018443  380E0F01          cmp [0x10f],cl
00018447  0000              add [bx+si],al
00018449  8080000000        add byte [bx+si+0x0],0x0
0001844E  0000              add [bx+si],al
00018450  0402              add al,0x2
00018452  0100              add [bx+si],ax
00018454  80A0400000        and byte [bx+si+0x40],0x0
00018459  0000              add [bx+si],al
0001845B  0000              add [bx+si],al
0001845D  0001              add [bx+di],al
0001845F  06                push es
00018460  07                pop es
00018461  0B7BBC            or di,[bp+di-0x44]
00018464  FF                db 0xff
00018465  EBF8              jmp short 0x845f
00018467  0000              add [bx+si],al
00018469  C0E000            shl al,byte 0x0
0001846C  0000              add [bx+si],al
0001846E  0003              add [bp+di],al
00018470  07                pop es
00018471  0F1EF8            hint_nop55 ax
00018474  F8                clc
00018475  D0F8              sar al,1
00018477  60                pusha
00018478  1000              adc [bx+si],al
0001847A  0000              add [bx+si],al
0001847C  0000              add [bx+si],al
0001847E  001C              add [si],bl
00018480  2828              sub [bx+si],ch
00018482  A878              test al,0x78
00018484  3A0A              cmp cl,[bp+si]
00018486  0000              add [bx+si],al
00018488  00808000          add [bx+si+0x80],al
0001848C  0000              add [bx+si],al
0001848E  0003              add [bp+di],al
00018490  0407              add al,0x7
00018492  03F0              add si,ax
00018494  78F8              js 0x848e
00018496  F00000            lock add [bx+si],al
00018499  0000              add [bx+si],al
0001849B  0000              add [bx+si],al
0001849D  0001              add [bx+di],al
0001849F  0104              add [si],ax
000184A1  0383CC1F          add ax,[bp+di+0x1fcc]
000184A5  E3E0              jcxz 0x8487
000184A7  0000              add [bx+si],al
000184A9  C0A0000000        shl byte [bx+si+0x0],byte 0x0
000184AE  0000              add [bx+si],al
000184B0  07                pop es
000184B1  0F1E00            hint_nop48 word [bx+si]
000184B4  F0D020            lock shl byte [bx+si],1
000184B7  3030              xor [bx+si],dh
000184B9  0000              add [bx+si],al
000184BB  0000              add [bx+si],al
000184BD  0000              add [bx+si],al
000184BF  1C00              sbb al,0x0
000184C1  0000              add [bx+si],al
000184C3  50                push ax
000184C4  1800              sbb [bx+si],al
000184C6  0000              add [bx+si],al
000184C8  0000              add [bx+si],al
000184CA  0000              add [bx+si],al
000184CC  0000              add [bx+si],al
000184CE  0000              add [bx+si],al
000184D0  03060100          add ax,[0x1]
000184D4  80A0400000        and byte [bx+si+0x40],0x0
000184D9  0000              add [bx+si],al
000184DB  0000              add [bx+si],al
000184DD  0000              add [bx+si],al
000184DF  0002              add [bp+si],al
000184E1  0303              add ax,[bp+di]
000184E3  B078              mov al,0x78
000184E5  B87800            mov ax,0x78
000184E8  0000              add [bx+si],al
000184EA  0000              add [bx+si],al
000184EC  0000              add [bx+si],al
000184EE  0000              add [bx+si],al
000184F0  0000              add [bx+si],al
000184F2  02E0              add ah,al
000184F4  10F0              adc al,dh
000184F6  F00000            lock add [bx+si],al
000184F9  0000              add [bx+si],al
000184FB  0000              add [bx+si],al
000184FD  0000              add [bx+si],al
000184FF  0100              add [bx+si],ax
00018501  0000              add [bx+si],al
00018503  7478              jz 0x857d
00018505  30F8              xor al,bh
00018507  0000              add [bx+si],al
00018509  0000              add [bx+si],al
0001850B  0000              add [bx+si],al
0001850D  0000              add [bx+si],al
0001850F  0004              add [si],al
00018511  0201              add al,[bx+di]
00018513  0080A040          add [bx+si+0x40a0],al
00018517  0000              add [bx+si],al
00018519  0000              add [bx+si],al
0001851B  0000              add [bx+si],al
0001851D  0000              add [bx+si],al
0001851F  0203              add al,[bp+di]
00018521  0303              add ax,[bp+di]
00018523  B0F8              mov al,0xf8
00018525  F8                clc
00018526  B80000            mov ax,0x0
00018529  0000              add [bx+si],al
0001852B  0000              add [bx+si],al
0001852D  0000              add [bx+si],al
0001852F  0302              add ax,[bp+si]
00018531  050470            add ax,0x7004
00018534  B0F0              mov al,0xf0
00018536  F00000            lock add [bx+si],al
00018539  0000              add [bx+si],al
0001853B  0000              add [bx+si],al
0001853D  0000              add [bx+si],al
0001853F  0200              add al,[bx+si]
00018541  0000              add [bx+si],al
00018543  7A52              jpe 0x8597
00018545  2AA80000          sub ch,[bx+si+0x0]
00018549  0000              add [bx+si],al
0001854B  0000              add [bx+si],al
0001854D  0000              add [bx+si],al
0001854F  0304              add ax,[si]
00018551  07                pop es
00018552  03F0              add si,ax
00018554  78F8              js 0x854e
00018556  F00000            lock add [bx+si],al
00018559  0000              add [bx+si],al
0001855B  0000              add [bx+si],al
0001855D  0000              add [bx+si],al
0001855F  0100              add [bx+si],ax
00018561  0303              add ax,[bp+di]
00018563  F078B8            lock js 0x851e
00018566  3800              cmp [bx+si],al
00018568  0000              add [bx+si],al
0001856A  0000              add [bx+si],al
0001856C  0000              add [bx+si],al
0001856E  0000              add [bx+si],al
00018570  0300              add ax,[bx+si]
00018572  0070C0            add [bx+si-0x40],dh
00018575  E0E0              loopne 0x8557
00018577  0000              add [bx+si],al
00018579  0000              add [bx+si],al
0001857B  0000              add [bx+si],al
0001857D  0000              add [bx+si],al
0001857F  0000              add [bx+si],al
00018581  0000              add [bx+si],al
00018583  7000              jo 0x8585
00018585  0000              add [bx+si],al
00018587  0000              add [bx+si],al
00018589  0000              add [bx+si],al
0001858B  0000              add [bx+si],al
0001858D  0000              add [bx+si],al
0001858F  0002              add [bp+si],al
00018591  050200            add ax,0x2
00018594  E040              loopne 0x85d6
00018596  800000            add byte [bx+si],0x0
00018599  0000              add [bx+si],al
0001859B  0000              add [bx+si],al
0001859D  0301              add ax,[bx+di]
0001859F  31F8              xor ax,di
000185A1  DF07              fild word [bx]
000185A3  0030              add [bx+si],dh
000185A5  F0F4              lock hlt
000185A7  0000              add [bx+si],al
000185A9  0000              add [bx+si],al
000185AB  0408              add al,0x8
000185AD  0000              add [bx+si],al
000185AF  101F              adc [bx],bl
000185B1  130A              adc cx,[bp+si]
000185B3  00E0              add al,ah
000185B5  F07800            lock js 0x85b8
000185B8  0000              add [bx+si],al
000185BA  0000              add [bx+si],al
000185BC  0001              add [bx+di],al
000185BE  011C              add [si],bx
000185C0  70F0              jo 0x85b2
000185C2  80383C            cmp byte [bx+si],0x3c
000185C5  1C1F              sbb al,0x1f
000185C7  0000              add [bx+si],al
000185C9  0000              add [bx+si],al
000185CB  0000              add [bx+si],al
000185CD  0000              add [bx+si],al
000185CF  0002              add [bp+si],al
000185D1  050200            add ax,0x2
000185D4  204080            and [bx+si-0x80],al
000185D7  0000              add [bx+si],al
000185D9  0000              add [bx+si],al
000185DB  0000              add [bx+si],al
000185DD  0307              add ax,[bx]
000185DF  3DFFD7            cmp ax,0xd7ff
000185E2  1F                pop ds
000185E3  60                pusha
000185E4  E0D0              loopne 0x85b6
000185E6  DF00              fild word [bx+si]
000185E8  0000              add [bx+si],al
000185EA  00060800          add [0x8],al
000185EE  001F              add [bx],bl
000185F0  1F                pop ds
000185F1  0F1FC0            nop ax
000185F4  E0F0              loopne 0x85e6
000185F6  7800              js 0x85f8
000185F8  0000              add [bx+si],al
000185FA  0000              add [bx+si],al
000185FC  0001              add [bx+di],al
000185FE  011E5C50          add [0x505c],bx
00018602  0038              add [bx+si],bh
00018604  1414              adc al,0x14
00018606  150000            adc ax,0x0
00018609  0000              add [bx+si],al
0001860B  0000              add [bx+si],al
0001860D  0000              add [bx+si],al
0001860F  0F1F1F            hint_nop59 word [bx]
00018612  0FE020            pavgb mm4,[bx+si]
00018615  E0C0              loopne 0x85d7
00018617  0000              add [bx+si],al
00018619  0000              add [bx+si],al
0001861B  0000              add [bx+si],al
0001861D  0305              add ax,[di]
0001861F  33F8              xor di,ax
00018621  C7078020          mov word [bx],0x2080
00018625  C0C100            rol cl,byte 0x0
00018628  0000              add [bx+si],al
0001862A  800C0C            or byte [si],0xc
0001862D  0000              add [bx+si],al
0001862F  000F              add [bx],cl
00018631  0B04              or ax,[si]
00018633  00E0              add al,ah
00018635  F07800            lock js 0x8638
00018638  0000              add [bx+si],al
0001863A  0000              add [bx+si],al
0001863C  0000              add [bx+si],al
0001863E  000A              add [bp+si],cl
00018640  1800              sbb [bx+si],al
00018642  0038              add [bx+si],bh
00018644  0000              add [bx+si],al
00018646  0000              add [bx+si],al
00018648  0000              add [bx+si],al
0001864A  0000              add [bx+si],al
0001864C  0000              add [bx+si],al
0001864E  0000              add [bx+si],al
00018650  0205              add al,[di]
00018652  0200              add al,[bx+si]
00018654  E040              loopne 0x8696
00018656  800000            add byte [bx+si],0x0
00018659  0000              add [bx+si],al
0001865B  0000              add [bx+si],al
0001865D  0000              add [bx+si],al
0001865F  0D1E1D            or ax,0x1d1e
00018662  1E                push ds
00018663  0040C0            add [bx+si-0x40],al
00018666  C00000            rol byte [bx+si],byte 0x0
00018669  0000              add [bx+si],al
0001866B  0000              add [bx+si],al
0001866D  0000              add [bx+si],al
0001866F  07                pop es
00018670  080F              or [bx],cl
00018672  0F0000            sldt [bx+si]
00018675  004000            add [bx+si+0x0],al
00018678  0000              add [bx+si],al
0001867A  0000              add [bx+si],al
0001867C  0000              add [bx+si],al
0001867E  002E1E0C          add [0xc1e],ch
00018682  1F                pop ds
00018683  800000            add byte [bx+si],0x0
00018686  0000              add [bx+si],al
00018688  0000              add [bx+si],al
0001868A  0000              add [bx+si],al
0001868C  0000              add [bx+si],al
0001868E  0000              add [bx+si],al
00018690  0205              add al,[di]
00018692  0200              add al,[bx+si]
00018694  204080            and [bx+si-0x80],al
00018697  0000              add [bx+si],al
00018699  0000              add [bx+si],al
0001869B  0000              add [bx+si],al
0001869D  0000              add [bx+si],al
0001869F  0D1F1F            or ax,0x1f1f
000186A2  1D40C0            sbb ax,0xc040
000186A5  C0C000            rol al,byte 0x0
000186A8  0000              add [bx+si],al
000186AA  0000              add [bx+si],al
000186AC  0000              add [bx+si],al
000186AE  000E0D0F          add [0xf0d],cl
000186B2  0FC040A0          xadd [bx+si-0x60],al
000186B6  2000              and [bx+si],al
000186B8  0000              add [bx+si],al
000186BA  0000              add [bx+si],al
000186BC  0000              add [bx+si],al
000186BE  005E4A            add [bp+0x4a],bl
000186C1  54                push sp
000186C2  154000            adc ax,0x40
000186C5  0000              add [bx+si],al
000186C7  0000              add [bx+si],al
000186C9  0000              add [bx+si],al
000186CB  0000              add [bx+si],al
000186CD  0000              add [bx+si],al
000186CF  0F1F1F            hint_nop59 word [bx]
000186D2  0FE020            pavgb mm4,[bx+si]
000186D5  E0C0              loopne 0x8697
000186D7  0000              add [bx+si],al
000186D9  0000              add [bx+si],al
000186DB  0000              add [bx+si],al
000186DD  0000              add [bx+si],al
000186DF  0F1E1D            hint_nop51 word [di]
000186E2  1C80              sbb al,0x80
000186E4  00C0              add al,al
000186E6  C00000            rol byte [bx+si],byte 0x0
000186E9  0000              add [bx+si],al
000186EB  0000              add [bx+si],al
000186ED  0000              add [bx+si],al
000186EF  0E                push cs
000186F0  0307              add ax,[bx]
000186F2  07                pop es
000186F3  00C0              add al,al
000186F5  0000              add [bx+si],al
000186F7  0000              add [bx+si],al
000186F9  0000              add [bx+si],al
000186FB  0000              add [bx+si],al
000186FD  0000              add [bx+si],al
000186FF  0E                push cs
00018700  0000              add [bx+si],al
00018702  0000              add [bx+si],al
00018704  0000              add [bx+si],al
00018706  0000              add [bx+si],al
00018708  0000              add [bx+si],al
0001870A  0000              add [bx+si],al
0001870C  0000              add [bx+si],al
0001870E  0000              add [bx+si],al
00018710  0205              add al,[di]
00018712  0200              add al,[bx+si]
00018714  E040              loopne 0x8756
00018716  800000            add byte [bx+si],0x0
00018719  0000              add [bx+si],al
0001871B  0000              add [bx+si],al
0001871D  0000              add [bx+si],al
0001871F  203F              and [bx],bh
00018721  1F                pop ds
00018722  47                inc di
00018723  00F0              add al,dh
00018725  FC                cld
00018726  EE                out dx,al
00018727  0000              add [bx+si],al
00018729  00800001          add [bx+si+0x100],al
0001872D  0200              add al,[bx+si]
0001872F  90                nop
00018730  1F                pop ds
00018731  1F                pop ds
00018732  1E                push ds
00018733  00A05028          add [bx+si+0x2850],ah
00018737  0000              add [bx+si],al
00018739  0000              add [bx+si],al
0001873B  0000              add [bx+si],al
0001873D  0303              add ax,[bp+di]
0001873F  3CF8              cmp al,0xf8
00018741  E000              loopne 0x8743
00018743  103C              adc [si],bh
00018745  1C1F              sbb al,0x1f
00018747  0000              add [bx+si],al
00018749  0000              add [bx+si],al
0001874B  0000              add [bx+si],al
0001874D  0000              add [bx+si],al
0001874F  0002              add [bp+si],al
00018751  050200            add ax,0x2
00018754  204080            and [bx+si-0x80],al
00018757  0000              add [bx+si],al
00018759  0000              add [bx+si],al
0001875B  0000              add [bx+si],al
0001875D  0001              add [bx+di],al
0001875F  1F                pop ds
00018760  5F                pop di
00018761  DF                db 0xdf
00018762  DFC0              ffreep st0
00018764  F03CCF            lock cmp al,0xcf
00018767  0000              add [bx+si],al
00018769  00800301          add [bx+si+0x103],al
0001876D  0200              add al,[bx+si]
0001876F  9F                lahf
00018770  1F                pop ds
00018771  1F                pop ds
00018772  1E                push ds
00018773  C0E0F0            shl al,byte 0xf0
00018776  7800              js 0x8778
00018778  0000              add [bx+si],al
0001877A  0000              add [bx+si],al
0001877C  0002              add [bp+si],al
0001877E  023C              add bh,[si]
00018780  B8A000            mov ax,0xa0
00018783  3814              cmp [si],dl
00018785  1415              adc al,0x15
00018787  0000              add [bx+si],al
00018789  0000              add [bx+si],al
0001878B  0000              add [bx+si],al
0001878D  0000              add [bx+si],al
0001878F  0F1F1F            hint_nop59 word [bx]
00018792  0FE020            pavgb mm4,[bx+si]
00018795  E0C0              loopne 0x8757
00018797  0000              add [bx+si],al
00018799  0000              add [bx+si],al
0001879B  0000              add [bx+si],al
0001879D  0001              add [bx+di],al
0001879F  005F9F            add [bx-0x61],bl
000187A2  07                pop es
000187A3  00F0              add al,dh
000187A5  38C4              cmp ah,al
000187A7  0000              add [bx+si],al
000187A9  00C0              add al,al
000187AB  0203              add al,[bp+di]
000187AD  0300              add ax,[bx+si]
000187AF  101F              adc [bx],bl
000187B1  1F                pop ds
000187B2  1E                push ds
000187B3  00802050          add [bx+si+0x5020],al
000187B7  0000              add [bx+si],al
000187B9  0000              add [bx+si],al
000187BB  0000              add [bx+si],al
000187BD  0000              add [bx+si],al
000187BF  3C38              cmp al,0x38
000187C1  0000              add [bx+si],al
000187C3  3800              cmp [bx+si],al
000187C5  0000              add [bx+si],al
000187C7  0000              add [bx+si],al
000187C9  0000              add [bx+si],al
000187CB  0000              add [bx+si],al
000187CD  0000              add [bx+si],al
000187CF  0002              add [bp+si],al
000187D1  050200            add ax,0x2
000187D4  E040              loopne 0x8816
000187D6  800000            add byte [bx+si],0x0
000187D9  0000              add [bx+si],al
000187DB  0000              add [bx+si],al
000187DD  0000              add [bx+si],al
000187DF  0D1E1D            or ax,0x1d1e
000187E2  1E                push ds
000187E3  0040C0            add [bx+si-0x40],al
000187E6  C00000            rol byte [bx+si],byte 0x0
000187E9  0000              add [bx+si],al
000187EB  0000              add [bx+si],al
000187ED  0000              add [bx+si],al
000187EF  07                pop es
000187F0  0807              or [bx],al
000187F2  0300              add ax,[bx+si]
000187F4  00C0              add al,al
000187F6  C00000            rol byte [bx+si],byte 0x0
000187F9  0000              add [bx+si],al
000187FB  0000              add [bx+si],al
000187FD  0000              add [bx+si],al
000187FF  051F30            add ax,0x301f
00018802  18E0              sbb al,ah
00018804  C080A00000        rol byte [bx+si+0xa0],byte 0x0
00018809  0000              add [bx+si],al
0001880B  0000              add [bx+si],al
0001880D  0000              add [bx+si],al
0001880F  0002              add [bp+si],al
00018811  050200            add ax,0x2
00018814  204080            and [bx+si-0x80],al
00018817  0000              add [bx+si],al
00018819  0000              add [bx+si],al
0001881B  0000              add [bx+si],al
0001881D  0000              add [bx+si],al
0001881F  0D1F1F            or ax,0x1f1f
00018822  1D40C0            sbb ax,0xc040
00018825  C0C000            rol al,byte 0x0
00018828  0000              add [bx+si],al
0001882A  0000              add [bx+si],al
0001882C  0000              add [bx+si],al
0001882E  000E0D07          add [0x70d],cl
00018832  05C040            add ax,0x40c0
00018835  C0E000            shl al,byte 0x0
00018838  0000              add [bx+si],al
0001883A  0000              add [bx+si],al
0001883C  0000              add [bx+si],al
0001883E  0002              add [bp+si],al
00018840  2B29              sub bp,[bx+di]
00018842  11E0              adc ax,sp
00018844  C0405000          rol byte [bx+si+0x50],byte 0x0
00018848  0000              add [bx+si],al
0001884A  0000              add [bx+si],al
0001884C  0000              add [bx+si],al
0001884E  000F              add [bx],cl
00018850  1F                pop ds
00018851  1F                pop ds
00018852  0FE020            pavgb mm4,[bx+si]
00018855  E0C0              loopne 0x8817
00018857  0000              add [bx+si],al
00018859  0000              add [bx+si],al
0001885B  0000              add [bx+si],al
0001885D  0000              add [bx+si],al
0001885F  0F1E1D            hint_nop51 word [di]
00018862  1C80              sbb al,0x80
00018864  00C0              add al,al
00018866  C00000            rol byte [bx+si],byte 0x0
00018869  0000              add [bx+si],al
0001886B  0000              add [bx+si],al
0001886D  0000              add [bx+si],al
0001886F  0E                push cs
00018870  0307              add ax,[bx]
00018872  0100              add [bx+si],ax
00018874  C0C0E0            rol al,byte 0xe0
00018877  0000              add [bx+si],al
00018879  0000              add [bx+si],al
0001887B  0000              add [bx+si],al
0001887D  0000              add [bx+si],al
0001887F  0003              add [bp+di],al
00018881  0000              add [bx+si],al
00018883  E080              loopne 0x8805
00018885  0000              add [bx+si],al
00018887  0000              add [bx+si],al
00018889  0000              add [bx+si],al
0001888B  0000              add [bx+si],al
0001888D  0000              add [bx+si],al
0001888F  0003              add [bp+di],al
00018891  050200            add ax,0x2
00018894  40                inc ax
00018895  60                pusha
00018896  40                inc ax
00018897  0000              add [bx+si],al
00018899  0000              add [bx+si],al
0001889B  0000              add [bx+si],al
0001889D  0100              add [bx+si],ax
0001889F  31FE              xor si,di
000188A1  CF                iret
000188A2  C7                db 0xc7
000188A3  0C7F              or al,0x7f
000188A5  F3E300            rep jcxz 0x88a8
000188A8  00800000          add [bx+si+0x0],al
000188AC  0000              add [bx+si],al
000188AE  0020              add [bx+si],ah
000188B0  07                pop es
000188B1  0F1E24            hint_nop52 word [si]
000188B4  E0F0              loopne 0x88a6
000188B6  7800              js 0x88b8
000188B8  0000              add [bx+si],al
000188BA  0000              add [bx+si],al
000188BC  0000              add [bx+si],al
000188BE  001C              add [si],bl
000188C0  3C38              cmp al,0x38
000188C2  F8                clc
000188C3  383C              cmp [si],bh
000188C5  1C1F              sbb al,0x1f
000188C7  0000              add [bx+si],al
000188C9  0000              add [bx+si],al
000188CB  0000              add [bx+si],al
000188CD  0000              add [bx+si],al
000188CF  0001              add [bx+di],al
000188D1  050200            add ax,0x2
000188D4  006040            add [bx+si+0x40],ah
000188D7  0000              add [bx+si],al
000188D9  0000              add [bx+si],al
000188DB  0000              add [bx+si],al
000188DD  0100              add [bx+si],ax
000188DF  3F                aas
000188E0  FFCF              dec di
000188E2  E7FC              out 0xfc,ax
000188E4  FFF3              push bx
000188E6  E700              out 0x0,ax
000188E8  00800000          add [bx+si+0x0],al
000188EC  0000              add [bx+si],al
000188EE  006F17            add [bx+0x17],ch
000188F1  0F1EF6            hint_nop54 si
000188F4  E8F078            call 0x1e7
000188F7  0000              add [bx+si],al
000188F9  0000              add [bx+si],al
000188FB  0000              add [bx+si],al
000188FD  0000              add [bx+si],al
000188FF  1C28              sbb al,0x28
00018901  28A83814          sub [bx+si+0x1438],ch
00018905  1415              adc al,0x15
00018907  0000              add [bx+si],al
00018909  0000              add [bx+si],al
0001890B  0000              add [bx+si],al
0001890D  0000              add [bx+si],al
0001890F  07                pop es
00018910  0D0F07            or ax,0x70f
00018913  E0B0              loopne 0x88c5
00018915  F0E000            lock loopne 0x8918
00018918  0000              add [bx+si],al
0001891A  0000              add [bx+si],al
0001891C  0001              add [bx+di],al
0001891E  0031              add [bx+di],dh
00018920  EAC5830C7F        jmp 0x7f0c:0x83c5
00018925  F3E300            rep jcxz 0x8928
00018928  00800000          add [bx+si+0x0],al
0001892C  0000              add [bx+si],al
0001892E  0018              add [bx+si],bl
00018930  1D0B16            sbb ax,0x160b
00018933  18F8              sbb al,bh
00018935  F07800            lock js 0x8938
00018938  0000              add [bx+si],al
0001893A  0000              add [bx+si],al
0001893C  0000              add [bx+si],al
0001893E  000C              add [si],cl
00018940  0000              add [bx+si],al
00018942  0038              add [bx+si],bh
00018944  0000              add [bx+si],al
00018946  0000              add [bx+si],al
00018948  0000              add [bx+si],al
0001894A  0000              add [bx+si],al
0001894C  0000              add [bx+si],al
0001894E  0000              add [bx+si],al
00018950  0102              add [bp+si],ax
00018952  0100              add [bx+si],ax
00018954  A0B020            mov al,[0x20b0]
00018957  0000              add [bx+si],al
00018959  0000              add [bx+si],al
0001895B  0000              add [bx+si],al
0001895D  0000              add [bx+si],al
0001895F  187FE7            sbb [bx-0x19],bh
00018962  63863FF9          arpl [bp-0x6c1],ax
00018966  F1                int1
00018967  0080C080          add [bx+si-0x7f40],al
0001896B  0000              add [bx+si],al
0001896D  0000              add [bx+si],al
0001896F  1003              adc [bp+di],al
00018971  07                pop es
00018972  0F12F0            movhlps xmm6,xmm0
00018975  F8                clc
00018976  3C00              cmp al,0x0
00018978  0000              add [bx+si],al
0001897A  0000              add [bx+si],al
0001897C  0000              add [bx+si],al
0001897E  001E1EFC          add [0xfc1e],bl
00018982  181C              sbb [si],bl
00018984  3C1C              cmp al,0x1c
00018986  1F                pop ds
00018987  0000              add [bx+si],al
00018989  0000              add [bx+si],al
0001898B  0000              add [bx+si],al
0001898D  0000              add [bx+si],al
0001898F  0000              add [bx+si],al
00018991  0201              add al,[bx+di]
00018993  0080B020          add [bx+si+0x20b0],al
00018997  0000              add [bx+si],al
00018999  0000              add [bx+si],al
0001899B  0000              add [bx+si],al
0001899D  0000              add [bx+si],al
0001899F  1F                pop ds
000189A0  7FE7              jg 0x8989
000189A2  73FE              jnc 0x89a2
000189A4  FF                db 0xff
000189A5  F9                stc
000189A6  F30080C080        rep add [bx+si-0x7f40],al
000189AB  0000              add [bx+si],al
000189AD  0000              add [bx+si],al
000189AF  37                aaa
000189B0  0B07              or ax,[bx]
000189B2  0FFBF4            psubq mm6,mm4
000189B5  F8                clc
000189B6  3C00              cmp al,0x0
000189B8  0000              add [bx+si],al
000189BA  0000              add [bx+si],al
000189BC  0000              add [bx+si],al
000189BE  001E0AA8          add [0xa80a],bl
000189C2  281C              sub [si],bl
000189C4  1414              adc al,0x14
000189C6  150000            adc ax,0x0
000189C9  0000              add [bx+si],al
000189CB  0000              add [bx+si],al
000189CD  0000              add [bx+si],al
000189CF  03060703          add ax,[0x307]
000189D3  F0D8F8            lock fdivr st0
000189D6  F00000            lock add [bx+si],al
000189D9  0000              add [bx+si],al
000189DB  0000              add [bx+si],al
000189DD  0000              add [bx+si],al
000189DF  1875E2            sbb [di-0x1e],dh
000189E2  41                inc cx
000189E3  863F              xchg [bx],bh
000189E5  F9                stc
000189E6  F1                int1
000189E7  0080C080          add [bx+si-0x7f40],al
000189EB  0000              add [bx+si],al
000189ED  0000              add [bx+si],al
000189EF  0C0E              or al,0xe
000189F1  050B0C            add ax,0xc0b
000189F4  FC                cld
000189F5  F8                clc
000189F6  3C00              cmp al,0x0
000189F8  0000              add [bx+si],al
000189FA  0000              add [bx+si],al
000189FC  0000              add [bx+si],al
000189FE  00160000          add [0x0],dl
00018A02  001C              add [si],bl
00018A04  0000              add [bx+si],al
00018A06  0000              add [bx+si],al
00018A08  0000              add [bx+si],al
00018A0A  0000              add [bx+si],al
00018A0C  0000              add [bx+si],al
00018A0E  0000              add [bx+si],al
00018A10  0305              add ax,[di]
00018A12  0200              add al,[bx+si]
00018A14  40                inc ax
00018A15  60                pusha
00018A16  40                inc ax
00018A17  0000              add [bx+si],al
00018A19  0000              add [bx+si],al
00018A1B  000C              add [si],cl
00018A1D  07                pop es
00018A1E  0111              add [bx+di],dx
00018A20  7EEF              jng 0x8a11
00018A22  8F                db 0x8f
00018A23  087EF7            or [bp-0x9],bh
00018A26  F1                int1
00018A27  0030              add [bx+si],dh
00018A29  E080              loopne 0x89ab
00018A2B  0000              add [bx+si],al
00018A2D  0000              add [bx+si],al
00018A2F  000F              add [bx],cl
00018A31  0F1E00            hint_nop48 word [bx+si]
00018A34  F0F07800          lock js 0x8a38
00018A38  0000              add [bx+si],al
00018A3A  0000              add [bx+si],al
00018A3C  0000              add [bx+si],al
00018A3E  001C              add [si],bl
00018A40  3C38              cmp al,0x38
00018A42  F8                clc
00018A43  383C              cmp [si],bh
00018A45  1C1F              sbb al,0x1f
00018A47  0000              add [bx+si],al
00018A49  0000              add [bx+si],al
00018A4B  0000              add [bx+si],al
00018A4D  0000              add [bx+si],al
00018A4F  0001              add [bx+di],al
00018A51  050200            add ax,0x2
00018A54  006040            add [bx+si+0x40],ah
00018A57  0000              add [bx+si],al
00018A59  0000              add [bx+si],al
00018A5B  101C              adc [si],bl
00018A5D  07                pop es
00018A5E  011F              add [bx],bx
00018A60  7FEF              jg 0x8a51
00018A62  8F                db 0x8f
00018A63  F8                clc
00018A64  FE                db 0xfe
00018A65  F7F1              div cx
00018A67  0838              or [bx+si],bh
00018A69  E080              loopne 0x89eb
00018A6B  0000              add [bx+si],al
00018A6D  0000              add [bx+si],al
00018A6F  0F                db 0x0f
00018A70  0F                db 0x0f
00018A71  0F1EF0            hint_nop54 ax
00018A74  F0F07800          lock js 0x8a78
00018A78  0000              add [bx+si],al
00018A7A  0000              add [bx+si],al
00018A7C  0000              add [bx+si],al
00018A7E  001C              add [si],bl
00018A80  2828              sub [bx+si],ch
00018A82  A838              test al,0x38
00018A84  1414              adc al,0x14
00018A86  150000            adc ax,0x0
00018A89  0000              add [bx+si],al
00018A8B  0000              add [bx+si],al
00018A8D  0000              add [bx+si],al
00018A8F  07                pop es
00018A90  0D0F07            or ax,0x70f
00018A93  E0B0              loopne 0x8a45
00018A95  F0E000            lock loopne 0x8a98
00018A98  0000              add [bx+si],al
00018A9A  0038              add [bx+si],bh
00018A9C  0407              add al,0x7
00018A9E  0111              add [bx+di],dx
00018AA0  6AE5              push byte -0x1b
00018AA2  8B08              mov cx,[bx+si]
00018AA4  7EF7              jng 0x8a9d
00018AA6  F1                int1
00018AA7  1C20              sbb al,0x20
00018AA9  E080              loopne 0x8a2b
00018AAB  0000              add [bx+si],al
00018AAD  0000              add [bx+si],al
00018AAF  0005              add [di],al
00018AB1  0B1600F0          or dx,[0xf000]
00018AB5  F07800            lock js 0x8ab8
00018AB8  0000              add [bx+si],al
00018ABA  0000              add [bx+si],al
00018ABC  0000              add [bx+si],al
00018ABE  000C              add [si],cl
00018AC0  0000              add [bx+si],al
00018AC2  0038              add [bx+si],bh
00018AC4  0000              add [bx+si],al
00018AC6  0000              add [bx+si],al
00018AC8  0000              add [bx+si],al
00018ACA  0000              add [bx+si],al
00018ACC  0002              add [bp+si],al
00018ACE  0300              add ax,[bx+si]
00018AD0  0305              add ax,[di]
00018AD2  0200              add al,[bx+si]
00018AD4  40                inc ax
00018AD5  60                pusha
00018AD6  0000              add [bx+si],al
00018AD8  00C0              add al,al
00018ADA  C00100            rol byte [bx+di],byte 0x0
00018ADD  0000              add [bx+si],al
00018ADF  C17E1F0F          sar word [bp+0x1f],byte 0xf
00018AE3  037EF8            add di,[bp-0x8]
00018AE6  F0800000          lock add byte [bx+si],0x0
00018AEA  0000              add [bx+si],al
00018AEC  0000              add [bx+si],al
00018AEE  0000              add [bx+si],al
00018AF0  0F                db 0x0f
00018AF1  0F1E00            hint_nop48 word [bx+si]
00018AF4  F0F07800          lock js 0x8af8
00018AF8  0000              add [bx+si],al
00018AFA  0000              add [bx+si],al
00018AFC  0000              add [bx+si],al
00018AFE  001C              add [si],bl
00018B00  3C38              cmp al,0x38
00018B02  F8                clc
00018B03  383C              cmp [si],bh
00018B05  1C1F              sbb al,0x1f
00018B07  0000              add [bx+si],al
00018B09  0000              add [bx+si],al
00018B0B  0001              add [bx+di],al
00018B0D  0303              add ax,[bp+di]
00018B0F  0001              add [bx+di],al
00018B11  050000            add ax,0x0
00018B14  006040            add [bx+si+0x40],ah
00018B17  0080C0C0          add [bx+si-0x3f40],al
00018B1B  0100              add [bx+si],ax
00018B1D  0000              add [bx+si],al
00018B1F  CF                iret
00018B20  7F1F              jg 0x8b41
00018B22  0FF3FE            psllq mm7,mm6
00018B25  F8                clc
00018B26  F0800000          lock add byte [bx+si],0x0
00018B2A  0000              add [bx+si],al
00018B2C  0000              add [bx+si],al
00018B2E  000F              add [bx],cl
00018B30  0F                db 0x0f
00018B31  0F1EF0            hint_nop54 ax
00018B34  F0F07800          lock js 0x8b38
00018B38  0000              add [bx+si],al
00018B3A  0000              add [bx+si],al
00018B3C  0000              add [bx+si],al
00018B3E  001C              add [si],bl
00018B40  2828              sub [bx+si],ch
00018B42  A838              test al,0x38
00018B44  1414              adc al,0x14
00018B46  150000            adc ax,0x0
00018B49  0000              add [bx+si],al
00018B4B  0003              add [bp+di],al
00018B4D  0202              add al,[bp+si]
00018B4F  07                pop es
00018B50  8D0F              lea cx,[bx]
00018B52  06                push es
00018B53  E0B1              loopne 0x8b06
00018B55  F060              lock pusha
00018B57  00C0              add al,al
00018B59  C0C000            rol al,byte 0x0
00018B5C  0000              add [bx+si],al
00018B5E  00C1              add cl,al
00018B60  6A15              push byte +0x15
00018B62  0B03              or ax,[bp+di]
00018B64  7EF8              jng 0x8b5e
00018B66  F0800000          lock add byte [bx+si],0x0
00018B6A  0000              add [bx+si],al
00018B6C  0000              add [bx+si],al
00018B6E  0000              add [bx+si],al
00018B70  050B16            add ax,0x160b
00018B73  00F0              add al,dh
00018B75  F07800            lock js 0x8b78
00018B78  0000              add [bx+si],al
00018B7A  0000              add [bx+si],al
00018B7C  0000              add [bx+si],al
00018B7E  000C              add [si],cl
00018B80  0000              add [bx+si],al
00018B82  0038              add [bx+si],bh
00018B84  0000              add [bx+si],al
00018B86  0000              add [bx+si],al
00018B88  0000              add [bx+si],al
00018B8A  0030              add [bx+si],dh
00018B8C  2B4E43            sub cx,[bp+0x43]
00018B8F  4E                dec si
00018B90  40                inc ax
00018B91  4E                dec si
00018B92  4C                dec sp
00018B93  4E                dec si
00018B94  4F                dec di
00018B95  4E                dec si
00018B96  52                push dx
00018B97  4E                dec si
00018B98  55                push bp
00018B99  4E                dec si
00018B9A  46                inc si
00018B9B  4E                dec si
00018B9C  49                dec cx
00018B9D  3031              xor [bx+di],dh
00018B9F  0303              add ax,[bp+di]
00018BA1  0303              add ax,[bp+di]
00018BA3  050505            add ax,0x505
00018BA6  0303              add ax,[bp+di]
00018BA8  07                pop es
00018BA9  0002              add [bp+si],al
00018BAB  0008              add [bx+si],cl
00018BAD  44                inc sp
00018BAE  0005              add [di],al
00018BB0  3000              xor [bx+si],al
00018BB2  005095            add [bx+si-0x6b],dl
00018BB5  0000              add [bx+si],al
00018BB7  0000              add [bx+si],al
00018BB9  0008              add [bx+si],cl
00018BBB  00844180          add [si-0x7fbf],al
00018BBF  8080401208        add byte [bx+si+0x1240],0x8
00018BC4  0440              add al,0x40
00018BC6  1008              adc [bx+si],cl
00018BC8  844021            test [bx+si+0x21],al
00018BCB  0802              or [bp+si],al
00018BCD  40                inc ax
00018BCE  200A              and [bp+si],cl
00018BD0  A4                movsb
00018BD1  0404              add al,0x4
00018BD3  0830              or [bx+si],dh
00018BD5  004000            add [bx+si+0x0],al
00018BD8  40                inc ax
00018BD9  0000              add [bx+si],al
00018BDB  0000              add [bx+si],al
00018BDD  2A00              sub al,[bx+si]
00018BDF  0000              add [bx+si],al
00018BE1  800188            add byte [bx+di],0x88
00018BE4  0000              add [bx+si],al
00018BE6  0000              add [bx+si],al
00018BE8  0001              add [bx+di],al
00018BEA  0F                db 0x0f
00018BEB  3F                aas
00018BEC  7FFF              jg 0x8bed
00018BEE  FF                db 0xff
00018BEF  FF                db 0xff
00018BF0  FB                sti
00018BF1  FE                db 0xfe
00018BF2  FF                db 0xff
00018BF3  FF6F00            jmp far [bx+0x0]
00018BF6  C0                db 0xc0
00018BF7  F0F8              lock clc
00018BF9  7FFF              jg 0x8bfa
00018BFB  FF                db 0xff
00018BFC  FFF5              push bp
00018BFE  E8C0A0            call 0x2cc1
00018C01  7F5F              jg 0x8c62
00018C03  0F                db 0x0f
00018C04  17                pop ss
00018C05  F8                clc
00018C06  FC                cld
00018C07  FC                cld
00018C08  FC                cld
00018C09  FF                db 0xff
00018C0A  FF                db 0xff
00018C0B  7F7F              jg 0x8c8c
00018C0D  C0E8FA            shr al,byte 0xfa
00018C10  DB0F              fisttp dword [bx]
00018C12  5F                pop di
00018C13  BF7FFC            mov di,0xfc7f
00018C16  FC                cld
00018C17  F8                clc
00018C18  F8                clc
00018C19  3F                aas
00018C1A  0F0100            sgdt [bx+si]
00018C1D  FF                db 0xff
00018C1E  FF                db 0xff
00018C1F  FF00              inc word [bx+si]
00018C21  FF                db 0xff
00018C22  FF                db 0xff
00018C23  FE00              inc byte [bx+si]
00018C25  F0C00000          lock rol byte [bx+si],byte 0x0
00018C29  0000              add [bx+si],al
00018C2B  0000              add [bx+si],al
00018C2D  0000              add [bx+si],al
00018C2F  0000              add [bx+si],al
00018C31  0000              add [bx+si],al
00018C33  0000              add [bx+si],al
00018C35  0000              add [bx+si],al
00018C37  0000              add [bx+si],al
00018C39  0000              add [bx+si],al
00018C3B  0000              add [bx+si],al
00018C3D  0000              add [bx+si],al
00018C3F  0000              add [bx+si],al
00018C41  0000              add [bx+si],al
00018C43  0000              add [bx+si],al
00018C45  0000              add [bx+si],al
00018C47  0000              add [bx+si],al
00018C49  0000              add [bx+si],al
00018C4B  0000              add [bx+si],al
00018C4D  0000              add [bx+si],al
00018C4F  0000              add [bx+si],al
00018C51  0000              add [bx+si],al
00018C53  0000              add [bx+si],al
00018C55  0000              add [bx+si],al
00018C57  0000              add [bx+si],al
00018C59  0000              add [bx+si],al
00018C5B  0000              add [bx+si],al
00018C5D  0000              add [bx+si],al
00018C5F  0000              add [bx+si],al
00018C61  0000              add [bx+si],al
00018C63  0000              add [bx+si],al
00018C65  0000              add [bx+si],al
00018C67  0000              add [bx+si],al
00018C69  0000              add [bx+si],al
00018C6B  0000              add [bx+si],al
00018C6D  0210              add dl,[bx+si]
00018C6F  802A40            sub byte [bp+si],0x40
00018C72  0000              add [bx+si],al
00018C74  800000            add byte [bx+si],0x0
00018C77  0000              add [bx+si],al
00018C79  0405              add al,0x5
00018C7B  07                pop es
00018C7C  0480              add al,0x80
00018C7E  0000              add [bx+si],al
00018C80  80A8224110        sub byte [bx+si+0x4122],0x10
00018C85  0000              add [bx+si],al
00018C87  00800302          add [bx+si+0x203],al
00018C8B  0100              add [bx+si],ax
00018C8D  0000              add [bx+si],al
00018C8F  035480            add dx,[si-0x80]
00018C92  8800              mov [bx+si],al
00018C94  10808000          adc [bx+si+0x80],al
00018C98  0000              add [bx+si],al
00018C9A  0000              add [bx+si],al
00018C9C  0000              add [bx+si],al
00018C9E  0009              add [bx+di],cl
00018CA0  0000              add [bx+si],al
00018CA2  40                inc ax
00018CA3  0000              add [bx+si],al
00018CA5  0000              add [bx+si],al
00018CA7  0000              add [bx+si],al
00018CA9  0000              add [bx+si],al
00018CAB  0307              add ax,[bx]
00018CAD  3F                aas
00018CAE  FF                db 0xff
00018CAF  FF                db 0xff
00018CB0  FF                db 0xff
00018CB1  FC                cld
00018CB2  FF                db 0xff
00018CB3  FF                db 0xff
00018CB4  FF00              inc word [bx+si]
00018CB6  00C0              add al,al
00018CB8  E007              loopne 0x8cc1
00018CBA  0F0D0F            prefetchw [bx]
00018CBD  D543              aad 0x43
00018CBF  81807FDFFFFF      add word [bx+si-0x2081],0xffff
00018CC5  E0F0              loopne 0x8cb7
00018CC7  F0F00E            lock push cs
00018CCA  0F07              sysret
00018CCC  07                pop es
00018CCD  8142D7FFFF        add word [bp+si-0x29],0xffff
00018CD2  FF                db 0xff
00018CD3  FF                db 0xff
00018CD4  FFF0              push ax
00018CD6  F0E0E0            lock loopne 0x8cb9
00018CD9  0300              add ax,[bx+si]
00018CDB  0000              add [bx+si],al
00018CDD  FF                db 0xff
00018CDE  FF                db 0xff
00018CDF  3F                aas
00018CE0  00FF              add bh,bh
00018CE2  FF                db 0xff
00018CE3  FC                cld
00018CE4  00C0              add al,al
00018CE6  0000              add [bx+si],al
00018CE8  0000              add [bx+si],al
00018CEA  0000              add [bx+si],al
00018CEC  0000              add [bx+si],al
00018CEE  0000              add [bx+si],al
00018CF0  000C              add [si],cl
00018CF2  0300              add ax,[bx+si]
00018CF4  0000              add [bx+si],al
00018CF6  00C0              add al,al
00018CF8  60                pusha
00018CF9  0000              add [bx+si],al
00018CFB  0000              add [bx+si],al
00018CFD  0000              add [bx+si],al
00018CFF  0000              add [bx+si],al
00018D01  0000              add [bx+si],al
00018D03  0000              add [bx+si],al
00018D05  60                pusha
00018D06  3030              xor [bx+si],dh
00018D08  3000              xor [bx+si],al
00018D0A  0000              add [bx+si],al
00018D0C  0000              add [bx+si],al
00018D0E  0000              add [bx+si],al
00018D10  0000              add [bx+si],al
00018D12  0000              add [bx+si],al
00018D14  0030              add [bx+si],dh
00018D16  306060            xor [bx+si+0x60],ah
00018D19  0000              add [bx+si],al
00018D1B  0000              add [bx+si],al
00018D1D  0000              add [bx+si],al
00018D1F  0000              add [bx+si],al
00018D21  0003              add [bp+di],al
00018D23  0C00              or al,0x0
00018D25  C00000            rol byte [bx+si],byte 0x0
00018D28  0000              add [bx+si],al
00018D2A  0000              add [bx+si],al
00018D2C  0000              add [bx+si],al
00018D2E  0010              add [bx+si],dl
00018D30  0800              or [bx+si],al
00018D32  004040            add [bx+si+0x40],al
00018D35  0000              add [bx+si],al
00018D37  0000              add [bx+si],al
00018D39  010B              add [bp+di],cx
00018D3B  16                push ss
00018D3C  2F                das
00018D3D  40                inc ax
00018D3E  40                inc ax
00018D3F  A0A04A            mov al,[0x4aa0]
00018D42  2325              and sp,[di]
00018D44  17                pop ss
00018D45  0040A0            add [bx+si-0x60],al
00018D48  D0160B01          rcl byte [0x10b],1
00018D4C  00901048          add [bx+si+0x4810],dl
00018D50  0815              or [di],dl
00018D52  0B0A              or cx,[bp+si]
00018D54  40                inc ax
00018D55  A04000            mov al,[0x40]
00018D58  0000              add [bx+si],al
00018D5A  0000              add [bx+si],al
00018D5C  0008              add [bx+si],cl
00018D5E  0000              add [bx+si],al
00018D60  0020              add [bx+si],ah
00018D62  0000              add [bx+si],al
00018D64  0000              add [bx+si],al
00018D66  0000              add [bx+si],al
00018D68  0000              add [bx+si],al
00018D6A  0000              add [bx+si],al
00018D6C  000F              add [bx],cl
00018D6E  1B3F              sbb di,[bx]
00018D70  7BC0              jpo 0x8d32
00018D72  60                pusha
00018D73  F07800            lock js 0x8d76
00018D76  0000              add [bx+si],al
00018D78  0000              add [bx+si],al
00018D7A  0000              add [bx+si],al
00018D7C  007FFB            add [bx-0x5],bh
00018D7F  7F7B              jg 0x8dfc
00018D81  F8                clc
00018D82  7CF8              jl 0x8d7c
00018D84  7800              js 0x8d86
00018D86  0000              add [bx+si],al
00018D88  0000              add [bx+si],al
00018D8A  0000              add [bx+si],al
00018D8C  007FFB            add [bx-0x5],bh
00018D8F  7F7B              jg 0x8e0c
00018D91  F8                clc
00018D92  7CF8              jl 0x8d8c
00018D94  7800              js 0x8d96
00018D96  0000              add [bx+si],al
00018D98  0000              add [bx+si],al
00018D9A  0000              add [bx+si],al
00018D9C  003F              add [bx],bh
00018D9E  1B0F              sbb cx,[bx]
00018DA0  00F0              add al,dh
00018DA2  60                pusha
00018DA3  C00000            rol byte [bx+si],byte 0x0
00018DA6  0000              add [bx+si],al
00018DA8  0000              add [bx+si],al
00018DAA  0000              add [bx+si],al
00018DAC  0003              add [bp+di],al
00018DAE  0303              add ax,[bp+di]
00018DB0  0300              add ax,[bx+si]
00018DB2  0000              add [bx+si],al
00018DB4  0000              add [bx+si],al
00018DB6  0000              add [bx+si],al
00018DB8  0000              add [bx+si],al
00018DBA  0000              add [bx+si],al
00018DBC  0003              add [bp+di],al
00018DBE  0303              add ax,[bp+di]
00018DC0  0300              add ax,[bx+si]
00018DC2  0000              add [bx+si],al
00018DC4  0000              add [bx+si],al
00018DC6  0000              add [bx+si],al
00018DC8  0000              add [bx+si],al
00018DCA  0000              add [bx+si],al
00018DCC  0003              add [bp+di],al
00018DCE  0303              add ax,[bp+di]
00018DD0  0300              add ax,[bx+si]
00018DD2  0000              add [bx+si],al
00018DD4  0000              add [bx+si],al
00018DD6  0000              add [bx+si],al
00018DD8  0000              add [bx+si],al
00018DDA  0000              add [bx+si],al
00018DDC  0003              add [bp+di],al
00018DDE  0303              add ax,[bp+di]
00018DE0  0000              add [bx+si],al
00018DE2  0000              add [bx+si],al
00018DE4  0000              add [bx+si],al
00018DE6  0000              add [bx+si],al
00018DE8  0000              add [bx+si],al
00018DEA  0000              add [bx+si],al
00018DEC  0000              add [bx+si],al
00018DEE  0200              add al,[bx+si]
00018DF0  08900000          or [bx+si+0x0],dl
00018DF4  2A00              sub al,[bx+si]
00018DF6  0000              add [bx+si],al
00018DF8  0000              add [bx+si],al
00018DFA  0101              add [bx+di],ax
00018DFC  0100              add [bx+si],ax
00018DFE  1101              adc [bx+di],ax
00018E00  08C0              or al,al
00018E02  0000              add [bx+si],al
00018E04  018040C0          add [bx+si-0x3fc0],ax
00018E08  2000              and [bx+si],al
00018E0A  0000              add [bx+si],al
00018E0C  00824415          add [bp+si+0x1544],al
00018E10  0100              add [bx+si],ax
00018E12  0001              add [bx+di],al
00018E14  54                push sp
00018E15  E0A0              loopne 0x8db7
00018E17  2000              and [bx+si],al
00018E19  0000              add [bx+si],al
00018E1B  0000              add [bx+si],al
00018E1D  0000              add [bx+si],al
00018E1F  0200              add al,[bx+si]
00018E21  0108              add [bx+si],cx
00018E23  40                inc ax
00018E24  0000              add [bx+si],al
00018E26  0000              add [bx+si],al
00018E28  0000              add [bx+si],al
00018E2A  0003              add [bp+di],al
00018E2C  07                pop es
00018E2D  3F                aas
00018E2E  FF                db 0xff
00018E2F  FF                db 0xff
00018E30  FF                db 0xff
00018E31  FC                cld
00018E32  FF                db 0xff
00018E33  FF                db 0xff
00018E34  FF00              inc word [bx+si]
00018E36  00C0              add al,al
00018E38  E007              loopne 0x8e41
00018E3A  0F                db 0x0f
00018E3B  0F                db 0x0f
00018E3C  0FFF              ud0
00018E3E  FF                db 0xff
00018E3F  FF                db 0xff
00018E40  FF                db 0xff
00018E41  EB42              jmp short 0x8e85
00018E43  8101E0F0          add word [bx+di],0xf0e0
00018E47  70F0              jo 0x8e39
00018E49  0F                db 0x0f
00018E4A  0F07              sysret
00018E4C  07                pop es
00018E4D  FF                db 0xff
00018E4E  FB                sti
00018E4F  FE                db 0xfe
00018E50  FF81C2AB          inc word [bx+di-0x543e]
00018E54  FFB0F0E0          push word [bx+si-0x1f10]
00018E58  E003              loopne 0x8e5d
00018E5A  0000              add [bx+si],al
00018E5C  00FF              add bh,bh
00018E5E  FF                db 0xff
00018E5F  3F                aas
00018E60  00FF              add bh,bh
00018E62  FF                db 0xff
00018E63  FC                cld
00018E64  00C0              add al,al
00018E66  0000              add [bx+si],al
00018E68  0000              add [bx+si],al
00018E6A  0003              add [bp+di],al
00018E6C  06                push es
00018E6D  30C0              xor al,al
00018E6F  0000              add [bx+si],al
00018E71  0000              add [bx+si],al
00018E73  0000              add [bx+si],al
00018E75  0000              add [bx+si],al
00018E77  0000              add [bx+si],al
00018E79  06                push es
00018E7A  0C0C              or al,0xc
00018E7C  0C00              or al,0x0
00018E7E  0000              add [bx+si],al
00018E80  0000              add [bx+si],al
00018E82  0000              add [bx+si],al
00018E84  0000              add [bx+si],al
00018E86  0000              add [bx+si],al
00018E88  000C              add [si],cl
00018E8A  0C06              or al,0x6
00018E8C  06                push es
00018E8D  0000              add [bx+si],al
00018E8F  0000              add [bx+si],al
00018E91  0000              add [bx+si],al
00018E93  0000              add [bx+si],al
00018E95  0000              add [bx+si],al
00018E97  0000              add [bx+si],al
00018E99  0300              add ax,[bx+si]
00018E9B  0000              add [bx+si],al
00018E9D  00C0              add al,al
00018E9F  3000              xor [bx+si],al
00018EA1  0000              add [bx+si],al
00018EA3  0000              add [bx+si],al
00018EA5  0000              add [bx+si],al
00018EA7  0000              add [bx+si],al
00018EA9  FF                db 0xff
00018EAA  FF                db 0xff
00018EAB  FF                db 0xff
00018EAC  FF                db 0xff
00018EAD  FF                db 0xff
00018EAE  FF                db 0xff
00018EAF  FF                db 0xff
00018EB0  FFF0              push ax
00018EB2  F0F0F00000        lock add [bx+si],al
00018EB7  0000              add [bx+si],al
00018EB9  FF                db 0xff
00018EBA  FF                db 0xff
00018EBB  FF                db 0xff
00018EBC  FFAA8080          jmp far [bp+si-0x7f80]
00018EC0  80A00F0F0F        and byte [bx+si+0xf0f],0xf
00018EC5  00FC              add ah,bh
00018EC7  FC                cld
00018EC8  FC                cld
00018EC9  FF                db 0xff
00018ECA  FF00              inc word [bx+si]
00018ECC  0080803F          add [bx+si+0x3f80],al
00018ED0  3F                aas
00018ED1  0F                db 0x0f
00018ED2  0FFF              ud0
00018ED4  FF                db 0xff
00018ED5  FC                cld
00018ED6  FC                cld
00018ED7  FC                cld
00018ED8  FC                cld
00018ED9  0000              add [bx+si],al
00018EDB  0000              add [bx+si],al
00018EDD  3F                aas
00018EDE  3F                aas
00018EDF  3F                aas
00018EE0  00FF              add bh,bh
00018EE2  FF                db 0xff
00018EE3  FF00              inc word [bx+si]
00018EE5  FC                cld
00018EE6  FC                cld
00018EE7  FC                cld
00018EE8  0000              add [bx+si],al
00018EEA  0000              add [bx+si],al
00018EEC  0000              add [bx+si],al
00018EEE  0000              add [bx+si],al
00018EF0  0000              add [bx+si],al
00018EF2  0000              add [bx+si],al
00018EF4  0000              add [bx+si],al
00018EF6  0000              add [bx+si],al
00018EF8  0000              add [bx+si],al
00018EFA  0000              add [bx+si],al
00018EFC  0000              add [bx+si],al
00018EFE  3F                aas
00018EFF  3F                aas
00018F00  3F                aas
00018F01  00FF              add bh,bh
00018F03  FF                db 0xff
00018F04  FF00              inc word [bx+si]
00018F06  FC                cld
00018F07  FC                cld
00018F08  FC                cld
00018F09  0000              add [bx+si],al
00018F0B  0000              add [bx+si],al
00018F0D  3F                aas
00018F0E  3F                aas
00018F0F  3F                aas
00018F10  3F                aas
00018F11  FF                db 0xff
00018F12  FF                db 0xff
00018F13  FF                db 0xff
00018F14  FF                db 0xff
00018F15  FC                cld
00018F16  FC                cld
00018F17  FC                cld
00018F18  FC                cld
00018F19  0000              add [bx+si],al
00018F1B  0000              add [bx+si],al
00018F1D  3F                aas
00018F1E  3F                aas
00018F1F  3F                aas
00018F20  00FF              add bh,bh
00018F22  FF                db 0xff
00018F23  FF00              inc word [bx+si]
00018F25  FC                cld
00018F26  FC                cld
00018F27  FC                cld
00018F28  00FF              add bh,bh
00018F2A  FF                db 0xff
00018F2B  FF                db 0xff
00018F2C  FF                db 0xff
00018F2D  FF                db 0xff
00018F2E  FF                db 0xff
00018F2F  FF                db 0xff
00018F30  FFF0              push ax
00018F32  F0F0F00000        lock add [bx+si],al
00018F37  0000              add [bx+si],al
00018F39  FF                db 0xff
00018F3A  FF                db 0xff
00018F3B  FF                db 0xff
00018F3C  FF                db 0xff
00018F3D  FF                db 0xff
00018F3E  FF                db 0xff
00018F3F  FC                cld
00018F40  FB                sti
00018F41  F0F0F07000        lock jo 0x8f46
00018F46  0000              add [bx+si],al
00018F48  00FF              add bh,bh
00018F4A  FF00              inc word [bx+si]
00018F4C  00FC              add ah,bh
00018F4E  FF00              inc word [bx+si]
00018F50  00F0              add al,dh
00018F52  F00000            lock add [bx+si],al
00018F55  0000              add [bx+si],al
00018F57  0000              add [bx+si],al
00018F59  0000              add [bx+si],al
00018F5B  0000              add [bx+si],al
00018F5D  0000              add [bx+si],al
00018F5F  0000              add [bx+si],al
00018F61  0000              add [bx+si],al
00018F63  0000              add [bx+si],al
00018F65  0000              add [bx+si],al
00018F67  0000              add [bx+si],al
00018F69  00FF              add bh,bh
00018F6B  FF                db 0xff
00018F6C  FF00              inc word [bx+si]
00018F6E  FF                db 0xff
00018F6F  FFAA00F0          jmp far [bp+si-0x1000]
00018F73  F0A00000          lock mov al,[0x0]
00018F77  0000              add [bx+si],al
00018F79  FF                db 0xff
00018F7A  FF                db 0xff
00018F7B  FF                db 0xff
00018F7C  FF808084          inc word [bx+si-0x7b80]
00018F80  830F0F            or word [bx],byte +0xf
00018F83  8F                db 0x8f
00018F84  0FFCFC            paddb mm7,mm4
00018F87  FC                cld
00018F88  FC                cld
00018F89  FF                db 0xff
00018F8A  FF                db 0xff
00018F8B  FF00              inc word [bx+si]
00018F8D  8480803F          test [bx+si+0x3f80],al
00018F91  8F                db 0x8f
00018F92  0F                db 0x0f
00018F93  0FFF              ud0
00018F95  FC                cld
00018F96  FC                cld
00018F97  FC                cld
00018F98  FC                cld
00018F99  0000              add [bx+si],al
00018F9B  0000              add [bx+si],al
00018F9D  3F                aas
00018F9E  3F                aas
00018F9F  0000              add [bx+si],al
00018FA1  FF                db 0xff
00018FA2  FF00              inc word [bx+si]
00018FA4  00FC              add ah,bh
00018FA6  FC                cld
00018FA7  0000              add [bx+si],al
00018FA9  0000              add [bx+si],al
00018FAB  0000              add [bx+si],al
00018FAD  0000              add [bx+si],al
00018FAF  0000              add [bx+si],al
00018FB1  0000              add [bx+si],al
00018FB3  0000              add [bx+si],al
00018FB5  0000              add [bx+si],al
00018FB7  0000              add [bx+si],al
00018FB9  0000              add [bx+si],al
00018FBB  0000              add [bx+si],al
00018FBD  3F                aas
00018FBE  3F                aas
00018FBF  3F                aas
00018FC0  3F                aas
00018FC1  FF                db 0xff
00018FC2  FF                db 0xff
00018FC3  FF                db 0xff
00018FC4  FF                db 0xff
00018FC5  FC                cld
00018FC6  FC                cld
00018FC7  FC                cld
00018FC8  FC                cld
00018FC9  0000              add [bx+si],al
00018FCB  0000              add [bx+si],al
00018FCD  3F                aas
00018FCE  3F                aas
00018FCF  3F                aas
00018FD0  3F                aas
00018FD1  FF                db 0xff
00018FD2  FF                db 0xff
00018FD3  FF                db 0xff
00018FD4  FF                db 0xff
00018FD5  FC                cld
00018FD6  FC                cld
00018FD7  FC                cld
00018FD8  FC                cld
00018FD9  0000              add [bx+si],al
00018FDB  0000              add [bx+si],al
00018FDD  3F                aas
00018FDE  3F                aas
00018FDF  0000              add [bx+si],al
00018FE1  FF                db 0xff
00018FE2  FF00              inc word [bx+si]
00018FE4  00FC              add ah,bh
00018FE6  FC                cld
00018FE7  0000              add [bx+si],al
00018FE9  00FF              add bh,bh
00018FEB  FF                db 0xff
00018FEC  FF00              inc word [bx+si]
00018FEE  FF                db 0xff
00018FEF  FF                db 0xff
00018FF0  FF00              inc word [bx+si]
00018FF2  F0F0F00000        lock add [bx+si],al
00018FF7  0000              add [bx+si],al
00018FF9  FF                db 0xff
00018FFA  FF                db 0xff
00018FFB  FF                db 0xff
00018FFC  FF                db 0xff
00018FFD  FF                db 0xff
00018FFE  FB                sti
00018FFF  F4                hlt
00019000  FB                sti
00019001  F070B0            lock jo 0x8fb4
00019004  7000              jo 0x9006
00019006  0000              add [bx+si],al
00019008  00FF              add bh,bh
0001900A  FF                db 0xff
0001900B  FF00              inc word [bx+si]
0001900D  F4                hlt
0001900E  FB                sti
0001900F  FF00              inc word [bx+si]
00019011  B070              mov al,0x70
00019013  F00000            lock add [bx+si],al
00019016  0000              add [bx+si],al
00019018  0000              add [bx+si],al
0001901A  0000              add [bx+si],al
0001901C  0000              add [bx+si],al
0001901E  0000              add [bx+si],al
00019020  0000              add [bx+si],al
00019022  0000              add [bx+si],al
00019024  0000              add [bx+si],al
00019026  0000              add [bx+si],al
00019028  0000              add [bx+si],al
0001902A  001F              add [bx],bl
0001902C  1C00              sbb al,0x0
0001902E  00FF              add bh,bh
00019030  0000              add [bx+si],al
00019032  00FE              add dh,bh
00019034  0100              add [bx+si],ax
00019036  0000              add [bx+si],al
00019038  E01C              loopne 0x9056
0001903A  1C1C              sbb al,0x1c
0001903C  1C03              sbb al,0x3
0001903E  0303              add ax,[bp+di]
00019040  1F                pop ds
00019041  0101              add [bx+di],ax
00019043  01E1              add cx,sp
00019045  E0E0              loopne 0x9027
00019047  E0E0              loopne 0x9029
00019049  1C1C              sbb al,0x1c
0001904B  1C1C              sbb al,0x1c
0001904D  0303              add ax,[bp+di]
0001904F  0300              add ax,[bx+si]
00019051  0101              add [bx+di],ax
00019053  0101              add [bx+di],ax
00019055  E0E0              loopne 0x9037
00019057  E0E0              loopne 0x9039
00019059  0100              add [bx+si],ax
0001905B  0000              add [bx+si],al
0001905D  FF00              inc word [bx+si]
0001905F  0000              add [bx+si],al
00019061  FF00              inc word [bx+si]
00019063  0000              add [bx+si],al
00019065  E000              loopne 0x9067
00019067  0000              add [bx+si],al
00019069  0000              add [bx+si],al
0001906B  0001              add [bx+di],al
0001906D  0000              add [bx+si],al
0001906F  00FF              add bh,bh
00019071  0000              add [bx+si],al
00019073  00FF              add bh,bh
00019075  0000              add [bx+si],al
00019077  00E0              add al,ah
00019079  0101              add [bx+di],ax
0001907B  0101              add [bx+di],ax
0001907D  FF                db 0xff
0001907E  FF                db 0xff
0001907F  FF                db 0xff
00019080  FF                db 0xff
00019081  FF                db 0xff
00019082  FF                db 0xff
00019083  FF                db 0xff
00019084  FFE0              jmp ax
00019086  E0E0              loopne 0x9068
00019088  E001              loopne 0x908b
0001908A  0101              add [bx+di],ax
0001908C  01FF              add di,di
0001908E  FF                db 0xff
0001908F  FF                db 0xff
00019090  FF                db 0xff
00019091  FF                db 0xff
00019092  FF                db 0xff
00019093  FF                db 0xff
00019094  FFE0              jmp ax
00019096  E0E0              loopne 0x9078
00019098  E001              loopne 0x909b
0001909A  0000              add [bx+si],al
0001909C  00FF              add bh,bh
0001909E  0000              add [bx+si],al
000190A0  00FF              add bh,bh
000190A2  0000              add [bx+si],al
000190A4  00E0              add al,ah
000190A6  0000              add [bx+si],al
000190A8  0000              add [bx+si],al
000190AA  001F              add [bx],bl
000190AC  1F                pop ds
000190AD  0000              add [bx+si],al
000190AF  FF                db 0xff
000190B0  FF00              inc word [bx+si]
000190B2  00FE              add dh,bh
000190B4  FE00              inc byte [bx+si]
000190B6  0000              add [bx+si],al
000190B8  001F              add [bx],bl
000190BA  1F                pop ds
000190BB  1F                pop ds
000190BC  1F                pop ds
000190BD  F6AAD4BA          imul byte [bp+si-0x452c]
000190C1  BE56AE            mov si,0xae56
000190C4  F60000            test byte [bx+si],0x0
000190C7  0000              add [bx+si],al
000190C9  1F                pop ds
000190CA  1F                pop ds
000190CB  1F                pop ds
000190CC  1F                pop ds
000190CD  D4AA              aam 0xaa
000190CF  F6FF              idiv bh
000190D1  AE                scasb
000190D2  56                push si
000190D3  BEFE00            mov si,0xfe
000190D6  0000              add [bx+si],al
000190D8  0000              add [bx+si],al
000190DA  0000              add [bx+si],al
000190DC  0000              add [bx+si],al
000190DE  0000              add [bx+si],al
000190E0  0000              add [bx+si],al
000190E2  0000              add [bx+si],al
000190E4  0000              add [bx+si],al
000190E6  0000              add [bx+si],al
000190E8  0000              add [bx+si],al
000190EA  1F                pop ds
000190EB  1F                pop ds
000190EC  1D00FF            sbb ax,0xff00
000190EF  FF5500            call [di+0x0]
000190F2  FE                db 0xfe
000190F3  FE                db 0xfe
000190F4  54                push sp
000190F5  0000              add [bx+si],al
000190F7  0000              add [bx+si],al
000190F9  1C1C              sbb al,0x1c
000190FB  1C1C              sbb al,0x1c
000190FD  0000              add [bx+si],al
000190FF  0403              add al,0x3
00019101  0101              add [bx+di],ax
00019103  8101E0E0          add word [bx+di],0xe0e0
00019107  E0E0              loopne 0x90e9
00019109  1C1C              sbb al,0x1c
0001910B  1C01              sbb al,0x1
0001910D  0400              add al,0x0
0001910F  00FF              add bh,bh
00019111  810101FF          add word [bx+di],0xff01
00019115  E0E0              loopne 0x90f7
00019117  E0E0              loopne 0x90f9
00019119  0101              add [bx+di],ax
0001911B  0000              add [bx+si],al
0001911D  FF                db 0xff
0001911E  FF00              inc word [bx+si]
00019120  00FF              add bh,bh
00019122  FF00              inc word [bx+si]
00019124  00E0              add al,ah
00019126  E000              loopne 0x9128
00019128  0000              add [bx+si],al
0001912A  0000              add [bx+si],al
0001912C  0000              add [bx+si],al
0001912E  0000              add [bx+si],al
00019130  0000              add [bx+si],al
00019132  0000              add [bx+si],al
00019134  0000              add [bx+si],al
00019136  0000              add [bx+si],al
00019138  0001              add [bx+di],al
0001913A  0101              add [bx+di],ax
0001913C  01FF              add di,di
0001913E  FF                db 0xff
0001913F  FF                db 0xff
00019140  FF                db 0xff
00019141  FF                db 0xff
00019142  FF                db 0xff
00019143  FF                db 0xff
00019144  FFE0              jmp ax
00019146  E0E0              loopne 0x9128
00019148  E001              loopne 0x914b
0001914A  0101              add [bx+di],ax
0001914C  01FF              add di,di
0001914E  FF                db 0xff
0001914F  FF                db 0xff
00019150  FF                db 0xff
00019151  FF                db 0xff
00019152  FF                db 0xff
00019153  FF                db 0xff
00019154  FFE0              jmp ax
00019156  E0E0              loopne 0x9138
00019158  E001              loopne 0x915b
0001915A  0100              add [bx+si],ax
0001915C  00FF              add bh,bh
0001915E  FF00              inc word [bx+si]
00019160  00FF              add bh,bh
00019162  FF00              inc word [bx+si]
00019164  00E0              add al,ah
00019166  E000              loopne 0x9168
00019168  0000              add [bx+si],al
0001916A  1F                pop ds
0001916B  1F                pop ds
0001916C  1F                pop ds
0001916D  00FF              add bh,bh
0001916F  FF                db 0xff
00019170  FF00              inc word [bx+si]
00019172  FE                db 0xfe
00019173  FE                db 0xfe
00019174  FE00              inc byte [bx+si]
00019176  0000              add [bx+si],al
00019178  001F              add [bx],bl
0001917A  1F                pop ds
0001917B  1F                pop ds
0001917C  1F                pop ds
0001917D  FF                db 0xff
0001917E  FB                sti
0001917F  F4                hlt
00019180  FB                sti
00019181  FE                db 0xfe
00019182  7EBE              jng 0x9142
00019184  7E00              jng 0x9186
00019186  0000              add [bx+si],al
00019188  001F              add [bx],bl
0001918A  1F                pop ds
0001918B  1F                pop ds
0001918C  00F4              add ah,dh
0001918E  FB                sti
0001918F  FF00              inc word [bx+si]
00019191  BE7EFE            mov si,0xfe7e
00019194  0000              add [bx+si],al
00019196  0000              add [bx+si],al
00019198  0000              add [bx+si],al
0001919A  0000              add [bx+si],al
0001919C  0000              add [bx+si],al
0001919E  0000              add [bx+si],al
000191A0  0000              add [bx+si],al
000191A2  0000              add [bx+si],al
000191A4  0000              add [bx+si],al
000191A6  0000              add [bx+si],al
000191A8  0000              add [bx+si],al
000191AA  0000              add [bx+si],al
000191AC  0000              add [bx+si],al
000191AE  0001              add [bx+di],al
000191B0  7200              jc 0x91b2
000191B2  00C0              add al,al
000191B4  27                daa
000191B5  0000              add [bx+si],al
000191B7  0000              add [bx+si],al
000191B9  0000              add [bx+si],al
000191BB  06                push es
000191BC  0CE8              or al,0xe8
000191BE  40                inc ax
000191BF  08400B            or [bx+si+0xb],al
000191C2  81080080          or word [bx+si],0x8000
000191C6  0000              add [bx+si],al
000191C8  C006000103        rol byte [0x100],byte 0x3
000191CD  0020              add [bx+si],ah
000191CF  02A00420          add ah,[bx+si+0x2004]
000191D3  042E              add al,0x2e
000191D5  60                pusha
000191D6  C00000            rol byte [bx+si],byte 0x0
000191D9  0100              add [bx+si],ax
000191DB  0000              add [bx+si],al
000191DD  C8070000          enter 0x7,0x0
000191E1  9C                pushf
000191E2  0000              add [bx+si],al
000191E4  0000              add [bx+si],al
000191E6  0000              add [bx+si],al
000191E8  0000              add [bx+si],al
000191EA  0000              add [bx+si],al
000191EC  0000              add [bx+si],al
000191EE  0001              add [bx+di],al
000191F0  7300              jnc 0x91f2
000191F2  00C0              add al,al
000191F4  E700              out 0x0,ax
000191F6  0000              add [bx+si],al
000191F8  0000              add [bx+si],al
000191FA  0007              add [bx],al
000191FC  0FFB79CC          psubq mm7,[bx+di-0x34]
00019200  E0EF              loopne 0x91f1
00019202  CF                iret
00019203  1807              sbb [bx],al
00019205  800000            add byte [bx+si],0x0
00019208  C00700            rol byte [bx],byte 0x0
0001920B  0103              add [bp+di],ax
0001920D  C0                db 0xc0
0001920E  30E7              xor bh,ah
00019210  EF                out dx,ax
00019211  0F673C            packuswb mm7,[si]
00019214  BEE0C0            mov si,0xc0e0
00019217  0000              add [bx+si],al
00019219  0100              add [bx+si],ax
0001921B  0000              add [bx+si],al
0001921D  CF                iret
0001921E  07                pop es
0001921F  0000              add [bx+si],al
00019221  9C                pushf
00019222  0000              add [bx+si],al
00019224  0000              add [bx+si],al
00019226  0000              add [bx+si],al
00019228  0000              add [bx+si],al
0001922A  0000              add [bx+si],al
0001922C  0000              add [bx+si],al
0001922E  0001              add [bx+di],al
00019230  7200              jc 0x9232
00019232  00C0              add al,al
00019234  27                daa
00019235  0000              add [bx+si],al
00019237  0000              add [bx+si],al
00019239  0000              add [bx+si],al
0001923B  06                push es
0001923C  0CE8              or al,0xe8
0001923E  40                inc ax
0001923F  0000              add [bx+si],al
00019241  0B01              or ax,[bx+di]
00019243  0000              add [bx+si],al
00019245  800000            add byte [bx+si],0x0
00019248  C006000103        rol byte [0x100],byte 0x3
0001924D  0000              add [bx+si],al
0001924F  00A00000          add [bx+si+0x0],ah
00019253  042E              add al,0x2e
00019255  60                pusha
00019256  C00000            rol byte [bx+si],byte 0x0
00019259  0100              add [bx+si],ax
0001925B  0000              add [bx+si],al
0001925D  C8070000          enter 0x7,0x0
00019261  9C                pushf
00019262  0000              add [bx+si],al
00019264  0000              add [bx+si],al
00019266  0000              add [bx+si],al
00019268  0000              add [bx+si],al
0001926A  0000              add [bx+si],al
0001926C  0000              add [bx+si],al
0001926E  0000              add [bx+si],al
00019270  0100              add [bx+si],ax
00019272  0000              add [bx+si],al
00019274  C00000            rol byte [bx+si],byte 0x0
00019277  0000              add [bx+si],al
00019279  0000              add [bx+si],al
0001927B  0103              add [bp+di],ax
0001927D  3A7589            cmp dh,[di-0x77]
00019280  43                inc bx
00019281  AE                scasb
00019282  57                push di
00019283  0A850000          or al,[di+0x0]
00019287  0000              add [bx+si],al
00019289  0100              add [bx+si],ax
0001928B  0100              add [bx+si],ax
0001928D  81A0D5EA0B15      and word [bx+si-0x152b],0x150b
00019293  2CB8              sub al,0xb8
00019295  800000            add byte [bx+si],0x0
00019298  0000              add [bx+si],al
0001929A  0000              add [bx+si],al
0001929C  0007              add [bx],al
0001929E  0000              add [bx+si],al
000192A0  0000              add [bx+si],al
000192A2  0000              add [bx+si],al
000192A4  0000              add [bx+si],al
000192A6  0000              add [bx+si],al
000192A8  0000              add [bx+si],al
000192AA  0000              add [bx+si],al
000192AC  0000              add [bx+si],al
000192AE  0001              add [bx+di],al
000192B0  53                push bx
000192B1  0000              add [bx+si],al
000192B3  40                inc ax
000192B4  E500              in ax,0x0
000192B6  0000              add [bx+si],al
000192B8  0000              add [bx+si],al
000192BA  0005              add [di],al
000192BC  0BBB7DDB          or di,[bp+di-0x2483]
000192C0  F7EE              imul si
000192C2  DF3ED780          fistp qword [0x80d7]
000192C6  0000              add [bx+si],al
000192C8  40                inc ax
000192C9  050001            add ax,0x100
000192CC  02E9              add ch,cl
000192CE  F4                hlt
000192CF  F7EF              imul di
000192D1  2F                das
000192D2  7F7C              jg 0x9350
000192D4  BAA040            mov dx,0x40a0
000192D7  0000              add [bx+si],al
000192D9  0100              add [bx+si],ax
000192DB  0000              add [bx+si],al
000192DD  4F                dec di
000192DE  050000            add ax,0x0
000192E1  94                xchg ax,sp
000192E2  0000              add [bx+si],al
000192E4  0000              add [bx+si],al
000192E6  0000              add [bx+si],al
000192E8  0000              add [bx+si],al
000192EA  0000              add [bx+si],al
000192EC  0000              add [bx+si],al
000192EE  0000              add [bx+si],al
000192F0  0000              add [bx+si],al
000192F2  0000              add [bx+si],al
000192F4  0000              add [bx+si],al
000192F6  0000              add [bx+si],al
000192F8  0000              add [bx+si],al
000192FA  0000              add [bx+si],al
000192FC  0001              add [bx+di],al
000192FE  0851A3            or [bx+di-0x5d],dl
00019301  40                inc ax
00019302  88948200          mov [si+0x82],dl
00019306  0000              add [bx+si],al
00019308  0000              add [bx+si],al
0001930A  0000              add [bx+si],al
0001930C  004141            add [bx+di+0x41],al
0001930F  2205              and al,[di]
00019311  842A              test [bp+si],ch
00019313  50                push ax
00019314  0000              add [bx+si],al
00019316  0000              add [bx+si],al
00019318  0000              add [bx+si],al
0001931A  0000              add [bx+si],al
0001931C  0000              add [bx+si],al
0001931E  0000              add [bx+si],al
00019320  0000              add [bx+si],al
00019322  0000              add [bx+si],al
00019324  0000              add [bx+si],al
00019326  0000              add [bx+si],al
00019328  0000              add [bx+si],al
0001932A  0000              add [bx+si],al
0001932C  0001              add [bx+di],al
0001932E  0101              add [bx+di],ax
00019330  51                push cx
00019331  0000              add [bx+si],al
00019333  80A5000000        and byte [di+0x0],0x0
00019338  0000              add [bx+si],al
0001933A  0004              add [si],al
0001933C  2E810101FF        add word [cs:bx+di],0xff01
00019341  8080A0FE80        add byte [bx+si-0x160],0x80
00019346  0000              add [bx+si],al
00019348  E80400            call 0x934f
0001934B  0002              add [bp+si],al
0001934D  2915              sub [di],dx
0001934F  0105              add [di],ax
00019351  A08080            mov al,[0x8080]
00019354  82                db 0x82
00019355  204000            and [bx+si+0x0],al
00019358  0001              add [bx+di],al
0001935A  0000              add [bx+si],al
0001935C  004B05            add [bp+di+0x5],cl
0001935F  0100              add [bx+si],ax
00019361  94                xchg ax,sp
00019362  0000              add [bx+si],al
00019364  0000              add [bx+si],al
00019366  0000              add [bx+si],al
00019368  0000              add [bx+si],al
0001936A  0000              add [bx+si],al
0001936C  0001              add [bx+di],al
0001936E  0101              add [bx+di],ax
00019370  51                push cx
00019371  0000              add [bx+si],al
00019373  C0A5000000        shl byte [di+0x0],byte 0x0
00019378  0000              add [bx+si],al
0001937A  0005              add [di],al
0001937C  2F                das
0001937D  B97FD9            mov cx,0xd97f
00019380  FF                db 0xff
00019381  EE                out dx,al
00019382  9F                lahf
00019383  FE                db 0xfe
00019384  FF800000          inc word [bx+si+0x0]
00019388  E80500            call 0x9390
0001938B  0102              add [bp+si],ax
0001938D  E9F7F5            jmp 0x8987
00019390  EF                out dx,ax
00019391  EF                out dx,ax
00019392  BFFCBA            mov di,0xbafc
00019395  A04000            mov al,[0x40]
00019398  0001              add [bx+di],al
0001939A  0000              add [bx+si],al
0001939C  004F05            add [bx+0x5],cl
0001939F  0100              add [bx+si],ax
000193A1  94                xchg ax,sp
000193A2  0000              add [bx+si],al
000193A4  0000              add [bx+si],al
000193A6  0000              add [bx+si],al
000193A8  0000              add [bx+si],al
000193AA  0000              add [bx+si],al
000193AC  0001              add [bx+di],al
000193AE  0101              add [bx+di],ax
000193B0  0100              add [bx+si],ax
000193B2  0080C000          add [bx+si+0xc0],al
000193B6  0000              add [bx+si],al
000193B8  0000              add [bx+si],al
000193BA  0001              add [bx+di],al
000193BC  2F                das
000193BD  3B758B            cmp si,[di-0x75]
000193C0  EF                out dx,ax
000193C1  AE                scasb
000193C2  D7                xlatb
000193C3  8AEB              mov ch,bl
000193C5  0000              add [bx+si],al
000193C7  00A80100          add [bx+si+0x1],ch
000193CB  0100              add [bx+si],ax
000193CD  83A1D7E98B        and word [bx+di-0x1629],byte -0x75
000193D2  D5AC              aad 0xac
000193D4  F8                clc
000193D5  800000            add byte [bx+si],0x0
000193D8  0000              add [bx+si],al
000193DA  0000              add [bx+si],al
000193DC  0005              add [di],al
000193DE  0101              add [bx+di],ax
000193E0  00800000          add [bx+si+0x0],al
000193E4  0000              add [bx+si],al
000193E6  0000              add [bx+si],al
000193E8  0000              add [bx+si],al
000193EA  0000              add [bx+si],al
000193EC  0000              add [bx+si],al
000193EE  0000              add [bx+si],al
000193F0  0100              add [bx+si],ax
000193F2  0000              add [bx+si],al
000193F4  C00000            rol byte [bx+si],byte 0x0
000193F7  0000              add [bx+si],al
000193F9  0000              add [bx+si],al
000193FB  0103              add [bp+di],ax
000193FD  3A7589            cmp dh,[di-0x77]
00019400  43                inc bx
00019401  AE                scasb
00019402  57                push di
00019403  0A850000          or al,[di+0x0]
00019407  0000              add [bx+si],al
00019409  0100              add [bx+si],ax
0001940B  0100              add [bx+si],ax
0001940D  81A0D5EA0B15      and word [bx+si-0x152b],0x150b
00019413  2CB8              sub al,0xb8
00019415  800000            add byte [bx+si],0x0
00019418  0000              add [bx+si],al
0001941A  0000              add [bx+si],al
0001941C  0007              add [bx],al
0001941E  0000              add [bx+si],al
00019420  0000              add [bx+si],al
00019422  0000              add [bx+si],al
00019424  0000              add [bx+si],al
00019426  0000              add [bx+si],al
00019428  0000              add [bx+si],al
0001942A  0000              add [bx+si],al
0001942C  0000              add [bx+si],al
0001942E  0001              add [bx+di],al
00019430  53                push bx
00019431  0000              add [bx+si],al
00019433  40                inc ax
00019434  E500              in ax,0x0
00019436  0000              add [bx+si],al
00019438  0000              add [bx+si],al
0001943A  0005              add [di],al
0001943C  0BBB7DDB          or di,[bp+di-0x2483]
00019440  F7EE              imul si
00019442  DF3ED780          fistp qword [0x80d7]
00019446  0000              add [bx+si],al
00019448  40                inc ax
00019449  050001            add ax,0x100
0001944C  02E9              add ch,cl
0001944E  F4                hlt
0001944F  F7EF              imul di
00019451  2F                das
00019452  7F7C              jg 0x94d0
00019454  BAA040            mov dx,0x40a0
00019457  0000              add [bx+si],al
00019459  0100              add [bx+si],ax
0001945B  0000              add [bx+si],al
0001945D  4F                dec di
0001945E  050000            add ax,0x0
00019461  94                xchg ax,sp
00019462  0000              add [bx+si],al
00019464  0000              add [bx+si],al
00019466  0000              add [bx+si],al
00019468  0000              add [bx+si],al
0001946A  0000              add [bx+si],al
0001946C  0000              add [bx+si],al
0001946E  0000              add [bx+si],al
00019470  0000              add [bx+si],al
00019472  0000              add [bx+si],al
00019474  0000              add [bx+si],al
00019476  0000              add [bx+si],al
00019478  0000              add [bx+si],al
0001947A  0000              add [bx+si],al
0001947C  0001              add [bx+di],al
0001947E  0851A3            or [bx+di-0x5d],dl
00019481  40                inc ax
00019482  88948200          mov [si+0x82],dl
00019486  0000              add [bx+si],al
00019488  0000              add [bx+si],al
0001948A  0000              add [bx+si],al
0001948C  004141            add [bx+di+0x41],al
0001948F  2205              and al,[di]
00019491  842A              test [bp+si],ch
00019493  50                push ax
00019494  0000              add [bx+si],al
00019496  0000              add [bx+si],al
00019498  0000              add [bx+si],al
0001949A  0000              add [bx+si],al
0001949C  0000              add [bx+si],al
0001949E  0000              add [bx+si],al
000194A0  0000              add [bx+si],al
000194A2  0000              add [bx+si],al
000194A4  0000              add [bx+si],al
000194A6  0000              add [bx+si],al
000194A8  0000              add [bx+si],al
000194AA  0000              add [bx+si],al
000194AC  0000              add [bx+si],al
000194AE  0001              add [bx+di],al
000194B0  49                dec cx
000194B1  0000              add [bx+si],al
000194B3  14FA              adc al,0xfa
000194B5  0000              add [bx+si],al
000194B7  0000              add [bx+si],al
000194B9  0000              add [bx+si],al
000194BB  0000              add [bx+si],al
000194BD  9F                lahf
000194BE  2E72E0            cs jc 0x94a1
000194C1  BA0713            mov dx,0x1307
000194C4  034040            add ax,[bx+si+0x40]
000194C7  60                pusha
000194C8  C00001            rol byte [bx+si],byte 0x1
000194CB  050042            add ax,0x4200
000194CE  D450              aam 0x50
000194D0  7600              jna 0x94d2
000194D2  05A227            add ax,0x27a2
000194D5  A04890            mov al,[0x9048]
000194D8  1000              adc [bx+si],al
000194DA  0000              add [bx+si],al
000194DC  00BB4E00          add [bp+di+0x4e],bh
000194E0  00BCAE32          add [si+0x32ae],bh
000194E4  004000            add [bx+si+0x0],al
000194E7  0000              add [bx+si],al
000194E9  0000              add [bx+si],al
000194EB  0000              add [bx+si],al
000194ED  0000              add [bx+si],al
000194EF  014000            add [bx+si+0x0],ax
000194F2  00068800          add [0x88],al
000194F6  0000              add [bx+si],al
000194F8  0000              add [bx+si],al
000194FA  0000              add [bx+si],al
000194FC  0030              add [bx+si],dh
000194FE  1408              adc al,0x8
00019500  B0D4              mov al,0xd4
00019502  08C1              or cl,al
00019504  2A00              sub al,[bx+si]
00019506  40                inc ax
00019507  800000            add byte [bx+si],0x0
0001950A  0005              add [di],al
0001950C  0038              add [bx+si],bh
0001950E  59                pop cx
0001950F  A80D              test al,0xd
00019511  295105            sub [bx+di+0x5],dx
00019514  7800              js 0x9516
00019516  40                inc ax
00019517  50                push ax
00019518  0000              add [bx+si],al
0001951A  0000              add [bx+si],al
0001951C  0014              add [si],dl
0001951E  60                pusha
0001951F  0000              add [bx+si],al
00019521  50                push ax
00019522  1802              sbb [bp+si],al
00019524  0000              add [bx+si],al
00019526  0000              add [bx+si],al
00019528  0000              add [bx+si],al
0001952A  0000              add [bx+si],al
0001952C  0000              add [bx+si],al
0001952E  0001              add [bx+di],al
00019530  40                inc ax
00019531  0000              add [bx+si],al
00019533  0488              add al,0x88
00019535  0000              add [bx+si],al
00019537  0000              add [bx+si],al
00019539  0000              add [bx+si],al
0001953B  0000              add [bx+si],al
0001953D  1005              adc [di],al
0001953F  0F                db 0x0f
00019540  BF90F0            mov di,0xf090
00019543  FD                std
00019544  FE00              inc byte [bx+si]
00019546  40                inc ax
00019547  0000              add [bx+si],al
00019549  0000              add [bx+si],al
0001954B  05001F            add ax,0x1f00
0001954E  5F                pop di
0001954F  0F07              sysret
00019551  FE                db 0xfe
00019552  FF                db 0xff
00019553  FC                cld
00019554  F0004010          lock add [bx+si+0x10],al
00019558  0000              add [bx+si],al
0001955A  0000              add [bx+si],al
0001955C  0014              add [si],dl
0001955E  40                inc ax
0001955F  0000              add [bx+si],al
00019561  1008              adc [bx+si],cl
00019563  0200              add al,[bx+si]
00019565  0000              add [bx+si],al
00019567  0000              add [bx+si],al
00019569  0000              add [bx+si],al
0001956B  0403              add al,0x3
0001956D  48                dec ax
0001956E  36F0C028FE        lock shr byte [ss:bx+si],byte 0xfe
00019573  55                push bp
00019574  0300              add ax,[bx+si]
00019576  0028              add [bx+si],ch
00019578  F007              lock pop es
0001957A  0202              add al,[bp+si]
0001957C  0A28              or ch,[bx+si]
0001957E  41                inc cx
0001957F  84912048          test [bx+di+0x4820],dl
00019583  2210              and dl,[bx+si]
00019585  F4                hlt
00019586  725C              jc 0x95e4
00019588  38160214          cmp [0x1402],dl
0001958C  07                pop es
0001958D  2008              and [bx+si],cl
0001958F  08840460          or [si+0x6004],al
00019593  8081747828        add byte [bx+di+0x7874],0x28
00019598  640B03            or ax,[fs:bp+di]
0001959B  0400              add al,0x0
0001959D  A23819            mov [0x1938],al
000195A0  00C1              add cl,al
000195A2  03EA              add bp,dx
000195A4  52                push dx
000195A5  D0C0              rol al,1
000195A7  800000            add byte [bx+si],0x0
000195AA  0401              add al,0x1
000195AC  0001              add [bx+di],al
000195AE  010F              add [bx],cx
000195B0  3800              cmp [bx+si],al
000195B2  00F2              add dl,dh
000195B4  0A00              or al,[bx+si]
000195B6  800000            add byte [bx+si],0x0
000195B9  0001              add [bx+di],al
000195BB  1105              adc [di],ax
000195BD  EE                out dx,al
000195BE  D0A2A8E0          shl byte [bp+si-0x1f58],1
000195C2  1AC6              sbb al,dh
000195C4  250208            and ax,0x802
000195C7  2000              and [bx+si],al
000195C9  0101              add [bx+di],ax
000195CB  0228              add ch,[bx+si]
000195CD  8408              test [bx+si],cl
000195CF  AC                lodsb
000195D0  F6                db 0xf6
000195D1  8D32              lea si,[bp+si]
000195D3  0025              add [di],ah
000195D5  004054            add [bx+si+0x54],al
000195D8  800000            add byte [bx+si],0x0
000195DB  0001              add [bx+di],al
000195DD  3B4E80            cmp cx,[bp-0x80]
000195E0  008AB404          add [bp+si+0x4b4],cl
000195E4  0100              add [bx+si],ax
000195E6  0000              add [bx+si],al
000195E8  0000              add [bx+si],al
000195EA  0401              add al,0x1
000195EC  0001              add [bx+di],al
000195EE  010F              add [bx],cx
000195F0  3F                aas
000195F1  0000              add [bx+si],al
000195F3  FA                cli
000195F4  FE00              inc byte [bx+si]
000195F6  800000            add byte [bx+si],0x0
000195F9  0001              add [bx+di],al
000195FB  1105              adc [di],ax
000195FD  FF                db 0xff
000195FE  FF                db 0xff
000195FF  FF                db 0xff
00019600  FF                db 0xff
00019601  FF                db 0xff
00019602  FF                db 0xff
00019603  FF                db 0xff
00019604  FF82C8E0          inc word [bp+si-0x1f38]
00019608  C00101            rol byte [bx+di],byte 0x1
0001960B  0228              add ch,[bx+si]
0001960D  FF                db 0xff
0001960E  FF                db 0xff
0001960F  FF                db 0xff
00019610  FF                db 0xff
00019611  FF                db 0xff
00019612  FF                db 0xff
00019613  FF                db 0xff
00019614  FFC0              inc ax
00019616  C0D480            rcl ah,byte 0x80
00019619  0000              add [bx+si],al
0001961B  0001              add [bx+di],al
0001961D  3F                aas
0001961E  4F                dec di
0001961F  8000FE            add byte [bx+si],0xfe
00019622  FC                cld
00019623  0401              add al,0x1
00019625  0000              add [bx+si],al
00019627  0000              add [bx+si],al
00019629  0000              add [bx+si],al
0001962B  0108              add [bx+si],cx
0001962D  004002            add [bx+si+0x2],al
00019630  3800              cmp [bx+si],al
00019632  42                inc dx
00019633  95                xchg ax,bp
00019634  3800              cmp [bx+si],al
00019636  004010            add [bx+si+0x10],al
00019639  1414              adc al,0x14
0001963B  2408              and al,0x8
0001963D  41                inc cx
0001963E  82                db 0x82
0001963F  44                inc sp
00019640  92                xchg ax,dx
00019641  8C4673            mov [bp+0x73],es
00019644  2A884824          sub cl,[bx+si+0x2448]
00019648  90                nop
00019649  0825              or [di],ah
0001964B  0118              add [bx+si],bx
0001964D  51                push cx
0001964E  2815              sub [di],dl
00019650  8516D114          test [0x14d1],dx
00019654  298404C0          sub [si-0x3ffc],ax
00019658  48                dec ax
00019659  0402              add al,0x2
0001965B  0000              add [bx+si],al
0001965D  021A              add bl,[bp+si]
0001965F  61                popa
00019660  00A2894A          add [bp+si+0x4a89],ah
00019664  00900000          add [bx+si+0x0],dl
00019668  0000              add [bx+si],al
0001966A  0001              add [bx+di],al
0001966C  0A00              or al,[bx+si]
0001966E  61                popa
0001966F  8F                db 0x8f
00019670  3800              cmp [bx+si],al
00019672  C2F508            ret 0x8f5
00019675  0000              add [bx+si],al
00019677  40                inc ax
00019678  3014              xor [si],dl
0001967A  1828              sbb [bx+si],ch
0001967C  08C1              or cl,al
0001967E  A7                cmpsw
0001967F  D5A6              aad 0xa6
00019681  86E2              xchg dl,ah
00019683  3109              xor [bx+di],cx
00019685  98                cbw
00019686  48                dec ax
00019687  2C94              sub al,0x94
00019689  2C27              sub al,0x27
0001968B  1311              adc dx,[bx+di]
0001968D  6330              arpl [bx+si],si
0001968F  99                cwd
00019690  CF                iret
00019691  8D                db 0x8d
00019692  CD8C              int 0x8c
00019694  18CC              sbb ah,cl
00019696  4C                dec sp
00019697  48                dec ax
00019698  C80C0200          enter 0x20c,0x0
0001969C  00603F            add [bx+si+0x3f],ah
0001969F  7000              jo 0x96a1
000196A1  71C7              jno 0x966a
000196A3  1E                push ds
000196A4  00900000          add [bx+si+0x0],dl
000196A8  0000              add [bx+si],al
000196AA  0003              add [bp+di],al
000196AC  0E                push cs
000196AD  00639F            add [bp+di-0x61],ah
000196B0  3F                aas
000196B1  00EA              add dl,ch
000196B3  F5                cmc
000196B4  F8                clc
000196B5  0000              add [bx+si],al
000196B7  C0                db 0xc0
000196B8  301C              xor [si],bl
000196BA  1D2D2E            sbb ax,0x2e2d
000196BD  FA                cli
000196BE  F7DD              neg bp
000196C0  B65F              mov dh,0x5f
000196C2  E6F7              out 0xf7,al
000196C4  6B98C86CB4        imul bx,[bx+si+0x6cc8],byte -0x4c
000196C9  2E37              cs aaa
000196CB  17                pop ss
000196CC  1BFB              sbb di,bx
000196CE  B8BDCF            mov ax,0xcfbd
000196D1  9F                lahf
000196D2  FD                std
000196D3  BCFDDC            mov sp,0xdcfd
000196D6  CC                int3
000196D7  D8D8              fcomp st0
000196D9  0D0200            or ax,0x2
000196DC  00E2              add dl,ah
000196DE  7F75              jg 0x9755
000196E0  00F3              add bl,dh
000196E2  CF                iret
000196E3  5E                pop si
000196E4  00D0              add al,dl
000196E6  800000            add byte [bx+si],0x0
000196E9  0001              add [bx+di],al
000196EB  0E                push cs
000196EC  309184C2          xor [bx+di-0x3d7c],dl
000196F0  63651A            arpl [di+0x1a],sp
000196F3  240B              and al,0xb
000196F5  00E0              add al,ah
000196F7  380A              cmp [bp+si],cl
000196F9  C850512A          enter 0x5150,0x2a
000196FD  1902              sbb [bp+si],ax
000196FF  150CC1            adc ax,0xc10c
00019702  2601820A8B        add [es:bp+si-0x74f6],ax
00019707  51                push cx
00019708  B114              mov cl,0x14
0001970A  A042A6            mov al,[0xa642]
0001970D  0A05              or al,[di]
0001970F  8A14              mov dl,[si]
00019711  40                inc ax
00019712  031A              add bx,[bp+si]
00019714  26D911            fst dword [es:bx+di]
00019717  234644            and ax,[bp+0x44]
0001971A  0902              or [bp+si],ax
0001971C  01888061          add [bx+si+0x6180],cx
00019720  9D                popf
00019721  C1A0305A1C        shl word [bx+si+0x5a30],byte 0x1c
00019726  B000              mov al,0x0
00019728  800007            add byte [bx+si],0x7
0001972B  3E7091            ds jo 0x96bf
0001972E  844321            test [bp+di+0x21],al
00019731  751A              jnz 0x974d
00019733  240A              and al,0xa
00019735  80701C0A          xor byte [bx+si+0x1c],0xa
00019739  88D0              mov al,dl
0001973B  51                push cx
0001973C  2A18              sub bl,[bx+si]
0001973E  06                push es
0001973F  1D08C1            sbb ax,0xc108
00019742  2681C28BC9        es add dx,0xc98b
00019747  59                pop cx
00019748  B114              mov cl,0x14
0001974A  A042A4            mov al,[0xa442]
0001974D  1A0D              sbb cl,[di]
0001974F  9A1040011A        call 0x1a01:0x4010
00019754  668911            mov [bx+di],edx
00019757  234764            and ax,[bx+0x64]
0001975A  0D0A01            or ax,0x10a
0001975D  800061            add byte [bx+si],0x61
00019760  B563              mov ch,0x63
00019762  A1104A            mov ax,[0x4a10]
00019765  0E                push cs
00019766  B450              mov ah,0x50
00019768  800007            add byte [bx+si],0x7
0001976B  3E7091            ds jo 0x96ff
0001976E  84C3              test bl,al
00019770  63751A            arpl [di+0x1a],si
00019773  240B              and al,0xb
00019775  80F03C            xor al,0x3c
00019778  0AC8              or cl,al
0001977A  D0512A            rcl byte [bx+di+0x2a],1
0001977D  19061D0C          sbb [0xc1d],ax
00019781  C12681C28A        shl word [0xc281],byte 0x8a
00019786  CB                retf
00019787  59                pop cx
00019788  B114              mov cl,0x14
0001978A  A042A6            mov al,[0xa642]
0001978D  1A0D              sbb cl,[di]
0001978F  9A1440031A        call 0x1a03:0x4014
00019794  66D911            o32 fst dword [bx+di]
00019797  234664            and ax,[bp+0x64]
0001979A  0D0A01            or ax,0x10a
0001979D  888061BD          mov [bx+si-0x429f],al
000197A1  E3A1              jcxz 0x9744
000197A3  305A1E            xor [bp+si+0x1e],bl
000197A6  B450              mov ah,0x50
000197A8  800000            add byte [bx+si],0x0
000197AB  0000              add [bx+si],al
000197AD  0000              add [bx+si],al
000197AF  0000              add [bx+si],al
000197B1  0000              add [bx+si],al
000197B3  0000              add [bx+si],al
000197B5  0000              add [bx+si],al
000197B7  0000              add [bx+si],al
000197B9  0000              add [bx+si],al
000197BB  0000              add [bx+si],al
000197BD  0000              add [bx+si],al
000197BF  0003              add [bp+di],al
000197C1  0000              add [bx+si],al
000197C3  006000            add [bx+si+0x0],ah
000197C6  0000              add [bx+si],al
000197C8  0000              add [bx+si],al
000197CA  0000              add [bx+si],al
000197CC  0000              add [bx+si],al
000197CE  0000              add [bx+si],al
000197D0  0000              add [bx+si],al
000197D2  0000              add [bx+si],al
000197D4  0000              add [bx+si],al
000197D6  0000              add [bx+si],al
000197D8  0000              add [bx+si],al
000197DA  0000              add [bx+si],al
000197DC  0000              add [bx+si],al
000197DE  0000              add [bx+si],al
000197E0  0000              add [bx+si],al
000197E2  0000              add [bx+si],al
000197E4  0000              add [bx+si],al
000197E6  0000              add [bx+si],al
000197E8  0000              add [bx+si],al
000197EA  0000              add [bx+si],al
000197EC  0300              add ax,[bx+si]
000197EE  007FE0            add [bx-0x20],bh
000197F1  0000              add [bx+si],al
000197F3  FF03              inc word [bp+di]
000197F5  0000              add [bx+si],al
000197F7  00E0              add al,ah
000197F9  1F                pop ds
000197FA  0100              add [bx+si],ax
000197FC  00FC              add ah,bh
000197FE  BD0F03            mov bp,0x30f
00019801  1F                pop ds
00019802  DE78E0            fidivr word [bx+si-0x20]
00019805  FC                cld
00019806  C00000            rol byte [bx+si],byte 0x0
00019809  0001              add [bx+di],al
0001980B  0307              add ax,[bx]
0001980D  03FF              add di,di
0001980F  C703E0FF          mov word [bp+di],0xffe0
00019813  F1                int1
00019814  E000              loopne 0x9816
00019816  C0E070            shl al,byte 0x70
00019819  0E                push cs
0001981A  0C03              or al,0x3
0001981C  0000              add [bx+si],al
0001981E  0080E000          add [bx+si+0xe0],al
00019822  0000              add [bx+si],al
00019824  0338              add di,[bx+si]
00019826  18E0              sbb al,ah
00019828  800000            add byte [bx+si],0x0
0001982B  0000              add [bx+si],al
0001982D  0000              add [bx+si],al
0001982F  0001              add [bx+di],al
00019831  0000              add [bx+si],al
00019833  00C0              add al,al
00019835  0000              add [bx+si],al
00019837  0000              add [bx+si],al
00019839  0000              add [bx+si],al
0001983B  0000              add [bx+si],al
0001983D  0000              add [bx+si],al
0001983F  0003              add [bp+di],al
00019841  0000              add [bx+si],al
00019843  006000            add [bx+si+0x0],ah
00019846  0000              add [bx+si],al
00019848  0000              add [bx+si],al
0001984A  0000              add [bx+si],al
0001984C  0003              add [bp+di],al
0001984E  0000              add [bx+si],al
00019850  00E0              add al,ah
00019852  0000              add [bx+si],al
00019854  0000              add [bx+si],al
00019856  0000              add [bx+si],al
00019858  0000              add [bx+si],al
0001985A  0000              add [bx+si],al
0001985C  0000              add [bx+si],al
0001985E  0000              add [bx+si],al
00019860  0000              add [bx+si],al
00019862  0000              add [bx+si],al
00019864  0000              add [bx+si],al
00019866  0000              add [bx+si],al
00019868  0000              add [bx+si],al
0001986A  0000              add [bx+si],al
0001986C  0000              add [bx+si],al
0001986E  0000              add [bx+si],al
00019870  0000              add [bx+si],al
00019872  0000              add [bx+si],al
00019874  0000              add [bx+si],al
00019876  0000              add [bx+si],al
00019878  0000              add [bx+si],al
0001987A  0000              add [bx+si],al
0001987C  0000              add [bx+si],al
0001987E  0000              add [bx+si],al
00019880  0300              add ax,[bx+si]
00019882  0000              add [bx+si],al
00019884  60                pusha
00019885  0000              add [bx+si],al
00019887  0000              add [bx+si],al
00019889  0000              add [bx+si],al
0001988B  0000              add [bx+si],al
0001988D  0003              add [bp+di],al
0001988F  0000              add [bx+si],al
00019891  006000            add [bx+si+0x0],ah
00019894  0000              add [bx+si],al
00019896  0000              add [bx+si],al
00019898  0000              add [bx+si],al
0001989A  0000              add [bx+si],al
0001989C  0000              add [bx+si],al
0001989E  0000              add [bx+si],al
000198A0  0000              add [bx+si],al
000198A2  0000              add [bx+si],al
000198A4  0000              add [bx+si],al
000198A6  0000              add [bx+si],al
000198A8  0000              add [bx+si],al
000198AA  0000              add [bx+si],al
000198AC  0300              add ax,[bx+si]
000198AE  007FE0            add [bx-0x20],bh
000198B1  0000              add [bx+si],al
000198B3  FF03              inc word [bp+di]
000198B5  0000              add [bx+si],al
000198B7  00E0              add al,ah
000198B9  1F                pop ds
000198BA  0100              add [bx+si],ax
000198BC  00FC              add ah,bh
000198BE  BD0F03            mov bp,0x30f
000198C1  1F                pop ds
000198C2  DE78E0            fidivr word [bx+si-0x20]
000198C5  FC                cld
000198C6  C00000            rol byte [bx+si],byte 0x0
000198C9  0000              add [bx+si],al
000198CB  0001              add [bx+di],al
000198CD  0303              add ax,[bp+di]
000198CF  3F                aas
000198D0  F7E0              mul ax
000198D2  E0FE              loopne 0x98d2
000198D4  F7000000          test word [bx+si],0x0
000198D8  C00F0C            ror byte [bx],byte 0xc
000198DB  0E                push cs
000198DC  03830000          add ax,[bp+di+0x0]
000198E0  F8                clc
000198E1  E000              loopne 0x98e3
000198E3  000F              add [bx],cl
000198E5  F8                clc
000198E6  1838              sbb [bx+si],bh
000198E8  E000              loopne 0x98ea
000198EA  0000              add [bx+si],al
000198EC  0000              add [bx+si],al
000198EE  0000              add [bx+si],al
000198F0  0000              add [bx+si],al
000198F2  0000              add [bx+si],al
000198F4  0000              add [bx+si],al
000198F6  0000              add [bx+si],al
000198F8  0000              add [bx+si],al
000198FA  0000              add [bx+si],al
000198FC  0000              add [bx+si],al
000198FE  0000              add [bx+si],al
00019900  0300              add ax,[bx+si]
00019902  0000              add [bx+si],al
00019904  60                pusha
00019905  0000              add [bx+si],al
00019907  0000              add [bx+si],al
00019909  0000              add [bx+si],al
0001990B  0000              add [bx+si],al
0001990D  0303              add ax,[bp+di]
0001990F  0000              add [bx+si],al
00019911  E060              loopne 0x9973
00019913  0000              add [bx+si],al
00019915  0000              add [bx+si],al
00019917  0000              add [bx+si],al
00019919  0000              add [bx+si],al
0001991B  0000              add [bx+si],al
0001991D  0000              add [bx+si],al
0001991F  0000              add [bx+si],al
00019921  0000              add [bx+si],al
00019923  0000              add [bx+si],al
00019925  0000              add [bx+si],al
00019927  0000              add [bx+si],al
00019929  0000              add [bx+si],al
0001992B  0000              add [bx+si],al
0001992D  0000              add [bx+si],al
0001992F  0000              add [bx+si],al
00019931  0000              add [bx+si],al
00019933  0000              add [bx+si],al
00019935  0000              add [bx+si],al
00019937  0000              add [bx+si],al
00019939  0000              add [bx+si],al
0001993B  0000              add [bx+si],al
0001993D  0003              add [bp+di],al
0001993F  0003              add [bp+di],al
00019941  006000            add [bx+si+0x0],ah
00019944  60                pusha
00019945  0000              add [bx+si],al
00019947  0000              add [bx+si],al
00019949  0000              add [bx+si],al
0001994B  0000              add [bx+si],al
0001994D  0000              add [bx+si],al
0001994F  0000              add [bx+si],al
00019951  0000              add [bx+si],al
00019953  0000              add [bx+si],al
00019955  0000              add [bx+si],al
00019957  0000              add [bx+si],al
00019959  0000              add [bx+si],al
0001995B  0000              add [bx+si],al
0001995D  0000              add [bx+si],al
0001995F  0000              add [bx+si],al
00019961  0000              add [bx+si],al
00019963  0000              add [bx+si],al
00019965  0000              add [bx+si],al
00019967  0000              add [bx+si],al
00019969  0003              add [bp+di],al
0001996B  1F                pop ds
0001996C  017FE0            add [bx-0x20],di
0001996F  FC                cld
00019970  BDFF03            mov bp,0x3ff
00019973  1F                pop ds
00019974  DE00              fiadd word [bx+si]
00019976  E0FC              loopne 0x9974
00019978  C00000            rol byte [bx+si],byte 0x0
0001997B  0000              add [bx+si],al
0001997D  0F0303            lsl ax,[bp+di]
00019980  0378E0            add di,[bx+si-0x20]
00019983  E0E0              loopne 0x9965
00019985  0000              add [bx+si],al
00019987  0000              add [bx+si],al
00019989  0103              add [bp+di],ax
0001998B  07                pop es
0001998C  0E                push cs
0001998D  FFC7              inc di
0001998F  0300              add ax,[bx+si]
00019991  FFF1              push cx
00019993  E000              loopne 0x9995
00019995  C0E070            shl al,byte 0x70
00019998  380C              cmp [si],cl
0001999A  07                pop es
0001999B  0100              add [bx+si],ax
0001999D  0000              add [bx+si],al
0001999F  C0                db 0xc0
000199A0  7000              jo 0x99a2
000199A2  0001              add [bx+di],al
000199A4  07                pop es
000199A5  1870C0            sbb [bx+si-0x40],dh
000199A8  0000              add [bx+si],al
000199AA  0000              add [bx+si],al
000199AC  0000              add [bx+si],al
000199AE  0100              add [bx+si],ax
000199B0  0000              add [bx+si],al
000199B2  C00000            rol byte [bx+si],byte 0x0
000199B5  0000              add [bx+si],al
000199B7  0000              add [bx+si],al
000199B9  0000              add [bx+si],al
000199BB  0000              add [bx+si],al
000199BD  0003              add [bp+di],al
000199BF  0303              add ax,[bp+di]
000199C1  0060E0            add [bx+si-0x20],ah
000199C4  60                pusha
000199C5  0000              add [bx+si],al
000199C7  0000              add [bx+si],al
000199C9  0000              add [bx+si],al
000199CB  0000              add [bx+si],al
000199CD  0000              add [bx+si],al
000199CF  0000              add [bx+si],al
000199D1  0000              add [bx+si],al
000199D3  0000              add [bx+si],al
000199D5  0000              add [bx+si],al
000199D7  0000              add [bx+si],al
000199D9  0000              add [bx+si],al
000199DB  0000              add [bx+si],al
000199DD  0000              add [bx+si],al
000199DF  0000              add [bx+si],al
000199E1  0000              add [bx+si],al
000199E3  0000              add [bx+si],al
000199E5  0000              add [bx+si],al
000199E7  0000              add [bx+si],al
000199E9  0000              add [bx+si],al
000199EB  0000              add [bx+si],al
000199ED  0000              add [bx+si],al
000199EF  0000              add [bx+si],al
000199F1  0000              add [bx+si],al
000199F3  0000              add [bx+si],al
000199F5  0000              add [bx+si],al
000199F7  0000              add [bx+si],al
000199F9  0000              add [bx+si],al
000199FB  0000              add [bx+si],al
000199FD  0003              add [bp+di],al
000199FF  0000              add [bx+si],al
00019A01  006000            add [bx+si+0x0],ah
00019A04  0000              add [bx+si],al
00019A06  0000              add [bx+si],al
00019A08  0000              add [bx+si],al
00019A0A  0000              add [bx+si],al
00019A0C  0000              add [bx+si],al
00019A0E  0000              add [bx+si],al
00019A10  0000              add [bx+si],al
00019A12  0000              add [bx+si],al
00019A14  0000              add [bx+si],al
00019A16  0000              add [bx+si],al
00019A18  0000              add [bx+si],al
00019A1A  0000              add [bx+si],al
00019A1C  0000              add [bx+si],al
00019A1E  0000              add [bx+si],al
00019A20  0000              add [bx+si],al
00019A22  0000              add [bx+si],al
00019A24  0000              add [bx+si],al
00019A26  0000              add [bx+si],al
00019A28  0000              add [bx+si],al
00019A2A  031F              add bx,[bx]
00019A2C  017FE0            add [bx-0x20],di
00019A2F  FC                cld
00019A30  BDFF03            mov bp,0x3ff
00019A33  1F                pop ds
00019A34  DE00              fiadd word [bx+si]
00019A36  E0FC              loopne 0x9a34
00019A38  C00000            rol byte [bx+si],byte 0x0
00019A3B  0003              add [bp+di],al
00019A3D  0F0303            lsl ax,[bp+di]
00019A40  FF                db 0xff
00019A41  78E0              js 0x9a23
00019A43  E0FF              loopne 0x9a44
00019A45  0000              add [bx+si],al
00019A47  00E0              add al,ah
00019A49  0F0E              femms
00019A4B  0C0C              or al,0xc
00019A4D  C7030000          mov word [bp+di],0x0
00019A51  F1                int1
00019A52  E000              loopne 0x9a54
00019A54  00F8              add al,bh
00019A56  3818              cmp [bx+si],bl
00019A58  180C              sbb [si],cl
00019A5A  0C07              or al,0x7
00019A5C  0100              add [bx+si],ax
00019A5E  0000              add [bx+si],al
00019A60  C00000            rol byte [bx+si],byte 0x0
00019A63  0001              add [bx+di],al
00019A65  1818              sbb [bx+si],bl
00019A67  70C0              jo 0x9a29
00019A69  0000              add [bx+si],al
00019A6B  0000              add [bx+si],al
00019A6D  000F              add [bx],cl
00019A6F  0100              add [bx+si],ax
00019A71  00F8              add al,bh
00019A73  C00000            rol byte [bx+si],byte 0x0
00019A76  0000              add [bx+si],al
00019A78  0000              add [bx+si],al
00019A7A  0000              add [bx+si],al
00019A7C  0000              add [bx+si],al
00019A7E  0303              add ax,[bp+di]
00019A80  0000              add [bx+si],al
00019A82  60                pusha
00019A83  E000              loopne 0x9a85
00019A85  0000              add [bx+si],al
00019A87  0000              add [bx+si],al
00019A89  0000              add [bx+si],al
00019A8B  0000              add [bx+si],al
00019A8D  0000              add [bx+si],al
00019A8F  0000              add [bx+si],al
00019A91  0000              add [bx+si],al
00019A93  0000              add [bx+si],al
00019A95  0000              add [bx+si],al
00019A97  0000              add [bx+si],al
00019A99  0000              add [bx+si],al
00019A9B  0000              add [bx+si],al
00019A9D  0000              add [bx+si],al
00019A9F  0000              add [bx+si],al
00019AA1  0000              add [bx+si],al
00019AA3  0000              add [bx+si],al
00019AA5  0000              add [bx+si],al
00019AA7  0000              add [bx+si],al
00019AA9  0000              add [bx+si],al
00019AAB  0000              add [bx+si],al
00019AAD  0000              add [bx+si],al
00019AAF  0000              add [bx+si],al
00019AB1  0000              add [bx+si],al
00019AB3  0000              add [bx+si],al
00019AB5  0000              add [bx+si],al
00019AB7  0000              add [bx+si],al
00019AB9  0000              add [bx+si],al
00019ABB  0000              add [bx+si],al
00019ABD  0000              add [bx+si],al
00019ABF  0000              add [bx+si],al
00019AC1  0000              add [bx+si],al
00019AC3  0000              add [bx+si],al
00019AC5  0000              add [bx+si],al
00019AC7  0000              add [bx+si],al
00019AC9  0000              add [bx+si],al
00019ACB  0000              add [bx+si],al
00019ACD  006010            add [bx+si+0x10],ah
00019AD0  0000              add [bx+si],al
00019AD2  0304              add ax,[si]
00019AD4  0000              add [bx+si],al
00019AD6  0000              add [bx+si],al
00019AD8  0000              add [bx+si],al
00019ADA  0000              add [bx+si],al
00019ADC  0000              add [bx+si],al
00019ADE  0000              add [bx+si],al
00019AE0  0000              add [bx+si],al
00019AE2  0000              add [bx+si],al
00019AE4  0000              add [bx+si],al
00019AE6  0000              add [bx+si],al
00019AE8  0000              add [bx+si],al
00019AEA  0000              add [bx+si],al
00019AEC  0000              add [bx+si],al
00019AEE  0000              add [bx+si],al
00019AF0  0000              add [bx+si],al
00019AF2  0000              add [bx+si],al
00019AF4  0000              add [bx+si],al
00019AF6  0000              add [bx+si],al
00019AF8  0000              add [bx+si],al
00019AFA  0000              add [bx+si],al
00019AFC  0000              add [bx+si],al
00019AFE  0000              add [bx+si],al
00019B00  0000              add [bx+si],al
00019B02  0000              add [bx+si],al
00019B04  0000              add [bx+si],al
00019B06  0000              add [bx+si],al
00019B08  0000              add [bx+si],al
00019B0A  0000              add [bx+si],al
00019B0C  0000              add [bx+si],al
00019B0E  F02000            lock and [bx+si],al
00019B11  0007              add [bx],al
00019B13  0200              add al,[bx+si]
00019B15  00800000          add [bx+si+0x0],al
00019B19  0000              add [bx+si],al
00019B1B  0000              add [bx+si],al
00019B1D  0000              add [bx+si],al
00019B1F  0000              add [bx+si],al
00019B21  0000              add [bx+si],al
00019B23  0000              add [bx+si],al
00019B25  0000              add [bx+si],al
00019B27  0000              add [bx+si],al
00019B29  0000              add [bx+si],al
00019B2B  0000              add [bx+si],al
00019B2D  0000              add [bx+si],al
00019B2F  0000              add [bx+si],al
00019B31  0000              add [bx+si],al
00019B33  0000              add [bx+si],al
00019B35  0000              add [bx+si],al
00019B37  0000              add [bx+si],al
00019B39  0000              add [bx+si],al
00019B3B  0003              add [bp+di],al
00019B3D  001F              add [bx],bl
00019B3F  FF                db 0xff
00019B40  FF00              inc word [bx+si]
00019B42  FC                cld
00019B43  FF                db 0xff
00019B44  FF00              inc word [bx+si]
00019B46  0080E007          add [bx+si+0x7e0],al
00019B4A  0F1F1F            hint_nop59 word [bx]
00019B4D  FFF1              push cx
00019B4F  F1                int1
00019B50  FF                db 0xff
00019B51  FFC7              inc di
00019B53  C7                db 0xc7
00019B54  FFF0              push ax
00019B56  F8                clc
00019B57  FC                cld
00019B58  FC                cld
00019B59  1F                pop ds
00019B5A  1F                pop ds
00019B5B  0F                db 0x0f
00019B5C  01FF              add di,di
00019B5E  FE                db 0xfe
00019B5F  FF                db 0xff
00019B60  FF                db 0xff
00019B61  3F                aas
00019B62  1F                pop ds
00019B63  3F                aas
00019B64  FF                db 0xff
00019B65  FC                cld
00019B66  FC                cld
00019B67  F8                clc
00019B68  C00000            rol byte [bx+si],byte 0x0
00019B6B  0000              add [bx+si],al
00019B6D  0000              add [bx+si],al
00019B6F  0000              add [bx+si],al
00019B71  0000              add [bx+si],al
00019B73  0000              add [bx+si],al
00019B75  0000              add [bx+si],al
00019B77  0000              add [bx+si],al
00019B79  0000              add [bx+si],al
00019B7B  0000              add [bx+si],al
00019B7D  60                pusha
00019B7E  1E                push ds
00019B7F  0000              add [bx+si],al
00019B81  033C              add di,[si]
00019B83  0000              add [bx+si],al
00019B85  0000              add [bx+si],al
00019B87  0000              add [bx+si],al
00019B89  0000              add [bx+si],al
00019B8B  0000              add [bx+si],al
00019B8D  0000              add [bx+si],al
00019B8F  0000              add [bx+si],al
00019B91  0000              add [bx+si],al
00019B93  0000              add [bx+si],al
00019B95  0000              add [bx+si],al
00019B97  0000              add [bx+si],al
00019B99  0000              add [bx+si],al
00019B9B  0000              add [bx+si],al
00019B9D  0000              add [bx+si],al
00019B9F  0000              add [bx+si],al
00019BA1  0000              add [bx+si],al
00019BA3  0000              add [bx+si],al
00019BA5  0000              add [bx+si],al
00019BA7  0000              add [bx+si],al
00019BA9  0000              add [bx+si],al
00019BAB  0000              add [bx+si],al
00019BAD  0000              add [bx+si],al
00019BAF  0000              add [bx+si],al
00019BB1  0000              add [bx+si],al
00019BB3  0000              add [bx+si],al
00019BB5  0000              add [bx+si],al
00019BB7  0000              add [bx+si],al
00019BB9  0000              add [bx+si],al
00019BBB  0000              add [bx+si],al
00019BBD  E07C              loopne 0x9c3b
00019BBF  0000              add [bx+si],al
00019BC1  031F              add bx,[bx]
00019BC3  0000              add [bx+si],al
00019BC5  800000            add byte [bx+si],0x0
00019BC8  0000              add [bx+si],al
00019BCA  0000              add [bx+si],al
00019BCC  0000              add [bx+si],al
00019BCE  0000              add [bx+si],al
00019BD0  0000              add [bx+si],al
00019BD2  0000              add [bx+si],al
00019BD4  0000              add [bx+si],al
00019BD6  0000              add [bx+si],al
00019BD8  0000              add [bx+si],al
00019BDA  0000              add [bx+si],al
00019BDC  0000              add [bx+si],al
00019BDE  0000              add [bx+si],al
00019BE0  0000              add [bx+si],al
00019BE2  0000              add [bx+si],al
00019BE4  0000              add [bx+si],al
00019BE6  0000              add [bx+si],al
00019BE8  0000              add [bx+si],al
00019BEA  0000              add [bx+si],al
00019BEC  0100              add [bx+si],ax
00019BEE  003F              add [bx],bh
00019BF0  FF00              inc word [bx+si]
00019BF2  00FF              add bh,bh
00019BF4  FF00              inc word [bx+si]
00019BF6  0000              add [bx+si],al
00019BF8  E007              loopne 0x9c01
00019BFA  0F                db 0x0f
00019BFB  0F                db 0x0f
00019BFC  0FE1FF            psraw mm7,mm7
00019BFF  FF                db 0xff
00019C00  FFC3              inc bx
00019C02  FF                db 0xff
00019C03  FF                db 0xff
00019C04  FF                db 0xff
00019C05  F8                clc
00019C06  FC                cld
00019C07  FC                cld
00019C08  FC                cld
00019C09  0F                db 0x0f
00019C0A  0F07              sysret
00019C0C  01E0              add ax,sp
00019C0E  FC                cld
00019C0F  FF                db 0xff
00019C10  FF03              inc word [bp+di]
00019C12  1F                pop ds
00019C13  FF                db 0xff
00019C14  FF                db 0xff
00019C15  FC                cld
00019C16  FC                cld
00019C17  F8                clc
00019C18  E000              loopne 0x9c1a
00019C1A  0000              add [bx+si],al
00019C1C  003F              add [bx],bh
00019C1E  0000              add [bx+si],al
00019C20  00FF              add bh,bh
00019C22  0000              add [bx+si],al
00019C24  0000              add [bx+si],al
00019C26  0000              add [bx+si],al
00019C28  0000              add [bx+si],al
00019C2A  0000              add [bx+si],al
00019C2C  0000              add [bx+si],al
00019C2E  003EE000          add [0xe0],bh
00019C32  003E0300          add [0x3],bh
00019C36  0000              add [bx+si],al
00019C38  800000            add byte [bx+si],0x0
00019C3B  0000              add [bx+si],al
00019C3D  0000              add [bx+si],al
00019C3F  0000              add [bx+si],al
00019C41  0000              add [bx+si],al
00019C43  0000              add [bx+si],al
00019C45  0000              add [bx+si],al
00019C47  0000              add [bx+si],al
00019C49  0000              add [bx+si],al
00019C4B  0000              add [bx+si],al
00019C4D  0000              add [bx+si],al
00019C4F  0000              add [bx+si],al
00019C51  0000              add [bx+si],al
00019C53  0000              add [bx+si],al
00019C55  0000              add [bx+si],al
00019C57  0000              add [bx+si],al
00019C59  0000              add [bx+si],al
00019C5B  0000              add [bx+si],al
00019C5D  0000              add [bx+si],al
00019C5F  0000              add [bx+si],al
00019C61  0000              add [bx+si],al
00019C63  0000              add [bx+si],al
00019C65  0000              add [bx+si],al
00019C67  0000              add [bx+si],al
00019C69  0000              add [bx+si],al
00019C6B  0001              add [bx+di],al
00019C6D  0000              add [bx+si],al
00019C6F  FE                db 0xfe
00019C70  E000              loopne 0x9c72
00019C72  003F              add [bx],bh
00019C74  0300              add ax,[bx+si]
00019C76  0080C000          add [bx+si+0xc0],al
00019C7A  0000              add [bx+si],al
00019C7C  0000              add [bx+si],al
00019C7E  0000              add [bx+si],al
00019C80  0000              add [bx+si],al
00019C82  0000              add [bx+si],al
00019C84  0000              add [bx+si],al
00019C86  0000              add [bx+si],al
00019C88  0000              add [bx+si],al
00019C8A  0000              add [bx+si],al
00019C8C  0000              add [bx+si],al
00019C8E  0000              add [bx+si],al
00019C90  0000              add [bx+si],al
00019C92  0000              add [bx+si],al
00019C94  0000              add [bx+si],al
00019C96  0000              add [bx+si],al
00019C98  0000              add [bx+si],al
00019C9A  0000              add [bx+si],al
00019C9C  0000              add [bx+si],al
00019C9E  0000              add [bx+si],al
00019CA0  0000              add [bx+si],al
00019CA2  0000              add [bx+si],al
00019CA4  0000              add [bx+si],al
00019CA6  0000              add [bx+si],al
00019CA8  0001              add [bx+di],al
00019CAA  0F1F1F            hint_nop59 word [bx]
00019CAD  FF                db 0xff
00019CAE  FF                db 0xff
00019CAF  FFE1              jmp cx
00019CB1  FF                db 0xff
00019CB2  FF                db 0xff
00019CB3  FFC3              inc bx
00019CB5  C0F8FC            sar al,byte 0xfc
00019CB8  FC                cld
00019CB9  1F                pop ds
00019CBA  0F                db 0x0f
00019CBB  0F07              sysret
00019CBD  F1                int1
00019CBE  FF                db 0xff
00019CBF  FFF0              push ax
00019CC1  C7                db 0xc7
00019CC2  FF                db 0xff
00019CC3  FF07              inc word [bx]
00019CC5  FC                cld
00019CC6  F8                clc
00019CC7  F8                clc
00019CC8  F00300            lock add ax,[bx+si]
00019CCB  0000              add [bx+si],al
00019CCD  E0FF              loopne 0x9cce
00019CCF  0F0003            sldt [bp+di]
00019CD2  FF                db 0xff
00019CD3  F8                clc
00019CD4  00E0              add al,ah
00019CD6  800000            add byte [bx+si],0x0
00019CD9  0000              add [bx+si],al
00019CDB  0000              add [bx+si],al
00019CDD  0000              add [bx+si],al
00019CDF  0000              add [bx+si],al
00019CE1  0000              add [bx+si],al
00019CE3  0000              add [bx+si],al
00019CE5  0000              add [bx+si],al
00019CE7  0000              add [bx+si],al
00019CE9  0000              add [bx+si],al
00019CEB  0000              add [bx+si],al
00019CED  0000              add [bx+si],al
00019CEF  0000              add [bx+si],al
00019CF1  0000              add [bx+si],al
00019CF3  0000              add [bx+si],al
00019CF5  0000              add [bx+si],al
00019CF7  0000              add [bx+si],al
00019CF9  0000              add [bx+si],al
00019CFB  0000              add [bx+si],al
00019CFD  7E20              jng 0x9d1f
00019CFF  0000              add [bx+si],al
00019D01  3F                aas
00019D02  0200              add al,[bx+si]
00019D04  0000              add [bx+si],al
00019D06  0000              add [bx+si],al
00019D08  0000              add [bx+si],al
00019D0A  0000              add [bx+si],al
00019D0C  0000              add [bx+si],al
00019D0E  0000              add [bx+si],al
00019D10  0000              add [bx+si],al
00019D12  0000              add [bx+si],al
00019D14  0000              add [bx+si],al
00019D16  0000              add [bx+si],al
00019D18  0000              add [bx+si],al
00019D1A  0000              add [bx+si],al
00019D1C  0000              add [bx+si],al
00019D1E  0000              add [bx+si],al
00019D20  0000              add [bx+si],al
00019D22  0000              add [bx+si],al
00019D24  0000              add [bx+si],al
00019D26  0000              add [bx+si],al
00019D28  0000              add [bx+si],al
00019D2A  0000              add [bx+si],al
00019D2C  0000              add [bx+si],al
00019D2E  0000              add [bx+si],al
00019D30  0000              add [bx+si],al
00019D32  0000              add [bx+si],al
00019D34  0000              add [bx+si],al
00019D36  0000              add [bx+si],al
00019D38  0000              add [bx+si],al
00019D3A  0000              add [bx+si],al
00019D3C  00FE              add dh,bh
00019D3E  60                pusha
00019D3F  0000              add [bx+si],al
00019D41  3F                aas
00019D42  0300              add ax,[bx+si]
00019D44  00800000          add [bx+si+0x0],al
00019D48  0000              add [bx+si],al
00019D4A  0000              add [bx+si],al
00019D4C  0000              add [bx+si],al
00019D4E  0000              add [bx+si],al
00019D50  0000              add [bx+si],al
00019D52  0000              add [bx+si],al
00019D54  0000              add [bx+si],al
00019D56  0000              add [bx+si],al
00019D58  0000              add [bx+si],al
00019D5A  0000              add [bx+si],al
00019D5C  0000              add [bx+si],al
00019D5E  0000              add [bx+si],al
00019D60  0000              add [bx+si],al
00019D62  0000              add [bx+si],al
00019D64  0000              add [bx+si],al
00019D66  0000              add [bx+si],al
00019D68  0000              add [bx+si],al
00019D6A  0000              add [bx+si],al
00019D6C  0100              add [bx+si],ax
00019D6E  003F              add [bx],bh
00019D70  FF00              inc word [bx+si]
00019D72  00FF              add bh,bh
00019D74  FF00              inc word [bx+si]
00019D76  0000              add [bx+si],al
00019D78  E007              loopne 0x9d81
00019D7A  0F                db 0x0f
00019D7B  0F                db 0x0f
00019D7C  0FFF              ud0
00019D7E  E1F1              loope 0x9d71
00019D80  FF                db 0xff
00019D81  FFC3              inc bx
00019D83  C7                db 0xc7
00019D84  FF                db 0xff
00019D85  F8                clc
00019D86  FC                cld
00019D87  FC                cld
00019D88  FC                cld
00019D89  0F                db 0x0f
00019D8A  0F07              sysret
00019D8C  01FF              add di,di
00019D8E  F8                clc
00019D8F  FE                db 0xfe
00019D90  FF                db 0xff
00019D91  FF07              inc word [bx]
00019D93  1F                pop ds
00019D94  FF                db 0xff
00019D95  FC                cld
00019D96  FC                cld
00019D97  F8                clc
00019D98  E000              loopne 0x9d9a
00019D9A  0000              add [bx+si],al
00019D9C  003F              add [bx],bh
00019D9E  0000              add [bx+si],al
00019DA0  00FF              add bh,bh
00019DA2  0000              add [bx+si],al
00019DA4  0000              add [bx+si],al
00019DA6  0000              add [bx+si],al
00019DA8  0000              add [bx+si],al
00019DAA  0000              add [bx+si],al
00019DAC  0000              add [bx+si],al
00019DAE  0000              add [bx+si],al
00019DB0  3F                aas
00019DB1  0014              add [si],dl
00019DB3  02FD              add bh,ch
00019DB5  0000              add [bx+si],al
00019DB7  80400102          add byte [bx+si+0x1],0x2
00019DBB  0100              add [bx+si],ax
00019DBD  78F8              js 0x9db7
00019DBF  7C0F              jl 0x9dd0
00019DC1  3E1F              ds pop ds
00019DC3  3EFD              ds std
00019DC5  2010              and [bx+si],dl
00019DC7  284000            sub [bx+si+0x0],al
00019DCA  0000              add [bx+si],al
00019DCC  0000              add [bx+si],al
00019DCE  0000              add [bx+si],al
00019DD0  00AA0102          add [bp+si+0x201],ch
00019DD4  28A04000          sub [bx+si+0x40],ah
00019DD8  0000              add [bx+si],al
00019DDA  0000              add [bx+si],al
00019DDC  0000              add [bx+si],al
00019DDE  0000              add [bx+si],al
00019DE0  0000              add [bx+si],al
00019DE2  0000              add [bx+si],al
00019DE4  0000              add [bx+si],al
00019DE6  0000              add [bx+si],al
00019DE8  0000              add [bx+si],al
00019DEA  0000              add [bx+si],al
00019DEC  0000              add [bx+si],al
00019DEE  0000              add [bx+si],al
00019DF0  7200              jc 0x9df2
00019DF2  0000              add [bx+si],al
00019DF4  0C00              or al,0x0
00019DF6  0000              add [bx+si],al
00019DF8  0007              add [bx],al
00019DFA  3F                aas
00019DFB  0F01E0            smsw ax
00019DFE  E4E0              in al,0xe0
00019E00  F007              lock pop es
00019E02  07                pop es
00019E03  06                push es
00019E04  0FC0F8            xadd al,bh
00019E07  FC                cld
00019E08  E000              loopne 0x9e0a
00019E0A  0000              add [bx+si],al
00019E0C  000F              add [bx],cl
00019E0E  0000              add [bx+si],al
00019E10  00FE              add dh,bh
00019E12  0000              add [bx+si],al
00019E14  0000              add [bx+si],al
00019E16  0000              add [bx+si],al
00019E18  0000              add [bx+si],al
00019E1A  0000              add [bx+si],al
00019E1C  0000              add [bx+si],al
00019E1E  0000              add [bx+si],al
00019E20  0000              add [bx+si],al
00019E22  0000              add [bx+si],al
00019E24  0000              add [bx+si],al
00019E26  0000              add [bx+si],al
00019E28  0000              add [bx+si],al
00019E2A  0007              add [bx],al
00019E2C  1F                pop ds
00019E2D  007FFF            add [bx-0x1],bh
00019E30  F000FF            lock add bh,bh
00019E33  FF0F              dec word [bx]
00019E35  0080F0FC          add [bx+si-0x310],al
00019E39  7F7F              jg 0x9eba
00019E3B  BB5FE0            mov bx,0xe05f
00019E3E  E0E0              loopne 0x9e20
00019E40  50                push ax
00019E41  07                pop es
00019E42  07                pop es
00019E43  07                pop es
00019E44  0E                push cs
00019E45  BED7A1            mov si,0xa1d7
00019E48  1E                push ds
00019E49  2B15              sub dx,[di]
00019E4B  0200              add al,[bx+si]
00019E4D  FA                cli
00019E4E  FF                db 0xff
00019E4F  BF5701            mov di,0x157
00019E52  FF                db 0xff
00019E53  FF                db 0xff
00019E54  FF                db 0xff
00019E55  FC                cld
00019E56  F8                clc
00019E57  E000              loopne 0x9e59
00019E59  0000              add [bx+si],al
00019E5B  0000              add [bx+si],al
00019E5D  0000              add [bx+si],al
00019E5F  0000              add [bx+si],al
00019E61  0000              add [bx+si],al
00019E63  0000              add [bx+si],al
00019E65  0000              add [bx+si],al
00019E67  0000              add [bx+si],al
00019E69  0000              add [bx+si],al
00019E6B  0000              add [bx+si],al
00019E6D  0000              add [bx+si],al
00019E6F  0000              add [bx+si],al
00019E71  0000              add [bx+si],al
00019E73  1402              adc al,0x2
00019E75  0000              add [bx+si],al
00019E77  00800001          add [bx+si+0x100],al
00019E7B  0301              add ax,[bx+di]
00019E7D  7FC3              jg 0x9e42
00019E7F  81C3F5FE          add bx,0xfef5
00019E83  FB                sti
00019E84  FE4020            inc byte [bx+si+0x20]
00019E87  1028              adc [bx+si],ch
00019E89  0000              add [bx+si],al
00019E8B  0000              add [bx+si],al
00019E8D  FF10              call [bx+si]
00019E8F  0000              add [bx+si],al
00019E91  ED                in ax,dx
00019E92  AA                stosb
00019E93  0102              add [bp+si],ax
00019E95  40                inc ax
00019E96  A04000            mov al,[0x40]
00019E99  0000              add [bx+si],al
00019E9B  0000              add [bx+si],al
00019E9D  0000              add [bx+si],al
00019E9F  0000              add [bx+si],al
00019EA1  2800              sub [bx+si],al
00019EA3  0000              add [bx+si],al
00019EA5  0000              add [bx+si],al
00019EA7  0000              add [bx+si],al
00019EA9  0000              add [bx+si],al
00019EAB  0000              add [bx+si],al
00019EAD  0000              add [bx+si],al
00019EAF  0000              add [bx+si],al
00019EB1  0000              add [bx+si],al
00019EB3  0000              add [bx+si],al
00019EB5  0000              add [bx+si],al
00019EB7  0000              add [bx+si],al
00019EB9  00063E0E          add [0xe3e],al
00019EBD  0200              add al,[bx+si]
00019EBF  0400              add al,0x0
00019EC1  F4                hlt
00019EC2  7F7B              jg 0x9f3f
00019EC4  7E00              jng 0x9ec6
00019EC6  C0F8FC            sar al,byte 0xfc
00019EC9  0100              add [bx+si],ax
00019ECB  0000              add [bx+si],al
00019ECD  000F              add [bx],cl
00019ECF  0000              add [bx+si],al
00019ED1  EF                out dx,ax
00019ED2  FE00              inc byte [bx+si]
00019ED4  00E0              add al,ah
00019ED6  0000              add [bx+si],al
00019ED8  0000              add [bx+si],al
00019EDA  0000              add [bx+si],al
00019EDC  0000              add [bx+si],al
00019EDE  0000              add [bx+si],al
00019EE0  0000              add [bx+si],al
00019EE2  0000              add [bx+si],al
00019EE4  0000              add [bx+si],al
00019EE6  0000              add [bx+si],al
00019EE8  0000              add [bx+si],al
00019EEA  0000              add [bx+si],al
00019EEC  07                pop es
00019EED  0000              add [bx+si],al
00019EEF  7FFF              jg 0x9ef0
00019EF1  0000              add [bx+si],al
00019EF3  FF                db 0xff
00019EF4  FF00              inc word [bx+si]
00019EF6  0080F01F          add [bx+si+0x1ff0],al
00019EFA  7E7E              jng 0x9f7a
00019EFC  BAC000            mov dx,0xc0
00019EFF  0000              add [bx+si],al
00019F01  FF                db 0xff
00019F02  7F7F              jg 0x9f83
00019F04  7FFC              jg 0x9f02
00019F06  BED7A1            mov si,0xa1d7
00019F09  5F                pop di
00019F0A  2B15              sub dx,[di]
00019F0C  0200              add al,[bx+si]
00019F0E  FA                cli
00019F0F  FF                db 0xff
00019F10  BFFE01            mov di,0x1fe
00019F13  FF                db 0xff
00019F14  FF1EFCF8          call far [0xf8fc]
00019F18  E000              loopne 0x9f1a
00019F1A  0000              add [bx+si],al
00019F1C  005700            add [bx+0x0],dl
00019F1F  0000              add [bx+si],al
00019F21  FF00              inc word [bx+si]
00019F23  0000              add [bx+si],al
00019F25  0000              add [bx+si],al
00019F27  0000              add [bx+si],al
00019F29  0000              add [bx+si],al
00019F2B  0000              add [bx+si],al
00019F2D  0000              add [bx+si],al
00019F2F  0000              add [bx+si],al
00019F31  0000              add [bx+si],al
00019F33  0014              add [si],dl
00019F35  0000              add [bx+si],al
00019F37  0000              add [bx+si],al
00019F39  0000              add [bx+si],al
00019F3B  0102              add [bp+si],ax
00019F3D  003F              add [bx],bh
00019F3F  6F                outsw
00019F40  BB02FF            mov bx,0xff02
00019F43  E3C0              jcxz 0x9f05
00019F45  8040E0F0          add byte [bx+si-0x20],0xf0
00019F49  0100              add [bx+si],ax
00019F4B  0000              add [bx+si],al
00019F4D  770D              ja 0x9f5c
00019F4F  0000              add [bx+si],al
00019F51  E3FF              jcxz 0x9f52
00019F53  AA                stosb
00019F54  01E8              add ax,bp
00019F56  C0A0400000        shl byte [bx+si+0x40],byte 0x0
00019F5B  0000              add [bx+si],al
00019F5D  0000              add [bx+si],al
00019F5F  0000              add [bx+si],al
00019F61  0228              add ch,[bx+si]
00019F63  0000              add [bx+si],al
00019F65  0000              add [bx+si],al
00019F67  0000              add [bx+si],al
00019F69  0000              add [bx+si],al
00019F6B  0000              add [bx+si],al
00019F6D  0000              add [bx+si],al
00019F6F  0000              add [bx+si],al
00019F71  0000              add [bx+si],al
00019F73  0000              add [bx+si],al
00019F75  0000              add [bx+si],al
00019F77  0000              add [bx+si],al
00019F79  0000              add [bx+si],al
00019F7B  07                pop es
00019F7C  3F                aas
00019F7D  007FEE            add [bx-0x12],bh
00019F80  BE0002            mov si,0x200
00019F83  0001              add [bx+di],al
00019F85  0000              add [bx+si],al
00019F87  40                inc ax
00019F88  680F01            push word 0x10f
00019F8B  0000              add [bx+si],al
00019F8D  F6FD              idiv ch
00019F8F  0F0000            sldt [bx+si]
00019F92  00FE              add dh,bh
00019F94  0074E0            add [si-0x20],dh
00019F97  0000              add [bx+si],al
00019F99  0000              add [bx+si],al
00019F9B  0000              add [bx+si],al
00019F9D  0000              add [bx+si],al
00019F9F  0000              add [bx+si],al
00019FA1  0000              add [bx+si],al
00019FA3  0000              add [bx+si],al
00019FA5  0000              add [bx+si],al
00019FA7  0000              add [bx+si],al
00019FA9  0000              add [bx+si],al
00019FAB  0000              add [bx+si],al
00019FAD  0000              add [bx+si],al
00019FAF  007F00            add [bx+0x0],bh
00019FB2  0000              add [bx+si],al
00019FB4  FF00              inc word [bx+si]
00019FB6  0000              add [bx+si],al
00019FB8  80071F            add byte [bx],0x1f
00019FBB  7F7F              jg 0xa03c
00019FBD  FF                db 0xff
00019FBE  FD                std
00019FBF  FE                db 0xfe
00019FC0  FA                cli
00019FC1  FF00              inc word [bx+si]
00019FC3  0000              add [bx+si],al
00019FC5  F0FC              lock cld
00019FC7  3E07              ds pop es
00019FC9  BB5F2B            mov bx,0x2b5f
00019FCC  15FE5F            adc ax,0x5ffe
00019FCF  FA                cli
00019FD0  FF00              inc word [bx+si]
00019FD2  0001              add [bx+di],al
00019FD4  FF21              jmp [bx+di]
00019FD6  5E                pop si
00019FD7  FC                cld
00019FD8  F8                clc
00019FD9  0200              add al,[bx+si]
00019FDB  0000              add [bx+si],al
00019FDD  BF5700            mov di,0x57
00019FE0  00FF              add bh,bh
00019FE2  FF00              inc word [bx+si]
00019FE4  00E0              add al,ah
00019FE6  0000              add [bx+si],al
00019FE8  0000              add [bx+si],al
00019FEA  0000              add [bx+si],al
00019FEC  0000              add [bx+si],al
00019FEE  0000              add [bx+si],al
00019FF0  0000              add [bx+si],al
00019FF2  0014              add [si],dl
00019FF4  0200              add al,[bx+si]
00019FF6  0000              add [bx+si],al
00019FF8  800000            add byte [bx+si],0x0
00019FFB  0001              add [bx+di],al
00019FFD  0000              add [bx+si],al
00019FFF  0000              add [bx+si],al
0001A001  0100              add [bx+si],ax
0001A003  0100              add [bx+si],ax
0001A005  40                inc ax
0001A006  A05000            mov al,[0x50]
0001A009  0000              add [bx+si],al
0001A00B  0000              add [bx+si],al
0001A00D  0000              add [bx+si],al
0001A00F  0000              add [bx+si],al
0001A011  0100              add [bx+si],ax
0001A013  0102              add [bp+si],ax
0001A015  50                push ax
0001A016  A04000            mov al,[0x40]
0001A019  0000              add [bx+si],al
0001A01B  0000              add [bx+si],al
0001A01D  0000              add [bx+si],al
0001A01F  0000              add [bx+si],al
0001A021  2800              sub [bx+si],al
0001A023  0000              add [bx+si],al
0001A025  0000              add [bx+si],al
0001A027  0000              add [bx+si],al
0001A029  0000              add [bx+si],al
0001A02B  0000              add [bx+si],al
0001A02D  0000              add [bx+si],al
0001A02F  0000              add [bx+si],al
0001A031  0000              add [bx+si],al
0001A033  0000              add [bx+si],al
0001A035  0000              add [bx+si],al
0001A037  0000              add [bx+si],al
0001A039  0000              add [bx+si],al
0001A03B  0000              add [bx+si],al
0001A03D  0000              add [bx+si],al
0001A03F  0000              add [bx+si],al
0001A041  0000              add [bx+si],al
0001A043  0000              add [bx+si],al
0001A045  0000              add [bx+si],al
0001A047  0000              add [bx+si],al
0001A049  0000              add [bx+si],al
0001A04B  0000              add [bx+si],al
0001A04D  0000              add [bx+si],al
0001A04F  0000              add [bx+si],al
0001A051  0000              add [bx+si],al
0001A053  0000              add [bx+si],al
0001A055  0000              add [bx+si],al
0001A057  0000              add [bx+si],al
0001A059  0000              add [bx+si],al
0001A05B  0000              add [bx+si],al
0001A05D  0000              add [bx+si],al
0001A05F  0000              add [bx+si],al
0001A061  0000              add [bx+si],al
0001A063  0000              add [bx+si],al
0001A065  0000              add [bx+si],al
0001A067  0000              add [bx+si],al
0001A069  0000              add [bx+si],al
0001A06B  0007              add [bx],al
0001A06D  0000              add [bx+si],al
0001A06F  7FFF              jg 0xa070
0001A071  0000              add [bx+si],al
0001A073  FF                db 0xff
0001A074  FF00              inc word [bx+si]
0001A076  0080F01F          add [bx+si+0x1ff0],al
0001A07A  7F6A              jg 0xa0e6
0001A07C  BEFFFF            mov si,0xffff
0001A07F  FFAAFFFF          jmp far [bp+si-0x1]
0001A083  FFAAFCFE          jmp far [bp+si-0x104]
0001A087  FFAB5F2B          jmp far [bp+di+0x2b5f]
0001A08B  1502FF            adc ax,0xff02
0001A08E  FF                db 0xff
0001A08F  FF                db 0xff
0001A090  BFFFFF            mov di,0xffff
0001A093  FF                db 0xff
0001A094  FF                db 0xff
0001A095  FE                db 0xfe
0001A096  FC                cld
0001A097  F8                clc
0001A098  E000              loopne 0xa09a
0001A09A  0000              add [bx+si],al
0001A09C  005700            add [bx+0x0],dl
0001A09F  0000              add [bx+si],al
0001A0A1  FF00              inc word [bx+si]
0001A0A3  0000              add [bx+si],al
0001A0A5  0000              add [bx+si],al
0001A0A7  0000              add [bx+si],al
0001A0A9  0000              add [bx+si],al
0001A0AB  0000              add [bx+si],al
0001A0AD  0000              add [bx+si],al
0001A0AF  0007              add [bx],al
0001A0B1  0000              add [bx+si],al
0001A0B3  FE                db 0xfe
0001A0B4  E100              loope 0xa0b6
0001A0B6  0000              add [bx+si],al
0001A0B8  0000              add [bx+si],al
0001A0BA  0000              add [bx+si],al
0001A0BC  000F              add [bx],cl
0001A0BE  0A7D0F            or bh,[di+0xf]
0001A0C1  C1                db 0xc1
0001A0C2  F0F0B000          lock mov al,0x0
0001A0C6  0000              add [bx+si],al
0001A0C8  0000              add [bx+si],al
0001A0CA  0000              add [bx+si],al
0001A0CC  0005              add [di],al
0001A0CE  1F                pop ds
0001A0CF  3F                aas
0001A0D0  27                daa
0001A0D1  70F8              jo 0xa0cb
0001A0D3  EC                in al,dx
0001A0D4  F8                clc
0001A0D5  0000              add [bx+si],al
0001A0D7  0000              add [bx+si],al
0001A0D9  0000              add [bx+si],al
0001A0DB  0000              add [bx+si],al
0001A0DD  640C0C            fs or al,0xc
0001A0E0  387020            cmp [bx+si+0x20],dh
0001A0E3  70E0              jo 0xa0c5
0001A0E5  0000              add [bx+si],al
0001A0E7  0000              add [bx+si],al
0001A0E9  0000              add [bx+si],al
0001A0EB  0000              add [bx+si],al
0001A0ED  0000              add [bx+si],al
0001A0EF  0107              add [bx],ax
0001A0F1  0000              add [bx+si],al
0001A0F3  FE                db 0xfe
0001A0F4  FB                sti
0001A0F5  0000              add [bx+si],al
0001A0F7  00800000          add [bx+si+0x0],al
0001A0FB  0000              add [bx+si],al
0001A0FD  0F                db 0x0f
0001A0FE  0C69              or al,0x69
0001A100  0FF1E0            psllw mm4,mm0
0001A103  F0A08000          lock mov al,[0x80]
0001A107  0000              add [bx+si],al
0001A109  0000              add [bx+si],al
0001A10B  0000              add [bx+si],al
0001A10D  050F2A            add ax,0x2a0f
0001A110  2F                das
0001A111  70F8              jo 0xa10b
0001A113  8C38              mov [bx+si],segr7
0001A115  0000              add [bx+si],al
0001A117  0000              add [bx+si],al
0001A119  0000              add [bx+si],al
0001A11B  0000              add [bx+si],al
0001A11D  4E                dec si
0001A11E  0A0C              or cl,[si]
0001A120  3CF0              cmp al,0xf0
0001A122  50                push ax
0001A123  50                push ax
0001A124  F00000            lock add [bx+si],al
0001A127  0000              add [bx+si],al
0001A129  0000              add [bx+si],al
0001A12B  0000              add [bx+si],al
0001A12D  0000              add [bx+si],al
0001A12F  0107              add [bx],ax
0001A131  0000              add [bx+si],al
0001A133  FE                db 0xfe
0001A134  FB                sti
0001A135  0000              add [bx+si],al
0001A137  00800000          add [bx+si+0x0],al
0001A13B  0000              add [bx+si],al
0001A13D  0F0000            sldt [bx+si]
0001A140  00F1              add cl,dh
0001A142  0000              add [bx+si],al
0001A144  00800000          add [bx+si+0x0],al
0001A148  0000              add [bx+si],al
0001A14A  0000              add [bx+si],al
0001A14C  0000              add [bx+si],al
0001A14E  0000              add [bx+si],al
0001A150  0F0000            sldt [bx+si]
0001A153  0000              add [bx+si],al
0001A155  0000              add [bx+si],al
0001A157  0000              add [bx+si],al
0001A159  0000              add [bx+si],al
0001A15B  0000              add [bx+si],al
0001A15D  0E                push cs
0001A15E  0000              add [bx+si],al
0001A160  3C00              cmp al,0x0
0001A162  0000              add [bx+si],al
0001A164  F00000            lock add [bx+si],al
0001A167  0000              add [bx+si],al
0001A169  0000              add [bx+si],al
0001A16B  0000              add [bx+si],al
0001A16D  0000              add [bx+si],al
0001A16F  010F              add [bx],cx
0001A171  0000              add [bx+si],al
0001A173  FEC1              inc cl
0001A175  0000              add [bx+si],al
0001A177  0000              add [bx+si],al
0001A179  0000              add [bx+si],al
0001A17B  0000              add [bx+si],al
0001A17D  1F                pop ds
0001A17E  15FB1F            adc ax,0x1ffb
0001A181  80E0E0            and al,0xe0
0001A184  40                inc ax
0001A185  0000              add [bx+si],al
0001A187  0000              add [bx+si],al
0001A189  0000              add [bx+si],al
0001A18B  1F                pop ds
0001A18C  0C0A              or al,0xa
0001A18E  FF9F3FF0          call far [bx-0xfc1]
0001A192  FFD1              call cx
0001A194  800000            add byte [bx+si],0x0
0001A197  C0                db 0xc0
0001A198  7000              jo 0xa19a
0001A19A  0103              add [bp+di],ax
0001A19C  0E                push cs
0001A19D  F340              rep inc ax
0001A19F  0000              add [bx+si],al
0001A1A1  C0501F00          rcl byte [bx+si+0x1f],byte 0x0
0001A1A5  2000              and [bx+si],al
0001A1A7  00800000          add [bx+si+0x0],al
0001A1AB  0000              add [bx+si],al
0001A1AD  0000              add [bx+si],al
0001A1AF  030F              add cx,[bx]
0001A1B1  0000              add [bx+si],al
0001A1B3  FE                db 0xfe
0001A1B4  F30000            rep add [bx+si],al
0001A1B7  00800000          add [bx+si+0x0],al
0001A1BB  0000              add [bx+si],al
0001A1BD  1F                pop ds
0001A1BE  19D3              sbb bx,dx
0001A1C0  1F                pop ds
0001A1C1  E0C0              loopne 0xa183
0001A1C3  E060              loopne 0xa225
0001A1C5  0000              add [bx+si],al
0001A1C7  0000              add [bx+si],al
0001A1C9  0000              add [bx+si],al
0001A1CB  1F                pop ds
0001A1CC  0C0A              or al,0xa
0001A1CE  DFAA3FF0          fild qword [bp+si-0xfc1]
0001A1D2  FFA1E000          jmp [bx+di+0xe0]
0001A1D6  00C0              add al,al
0001A1D8  7000              jo 0xa1da
0001A1DA  0307              add ax,[bx]
0001A1DC  0FFF              ud0
0001A1DE  C00000            rol byte [bx+si],byte 0x0
0001A1E1  E078              loopne 0xa25b
0001A1E3  1F                pop ds
0001A1E4  0020              add [bx+si],ah
0001A1E6  0080C000          add [bx+si+0xc0],al
0001A1EA  0000              add [bx+si],al
0001A1EC  0000              add [bx+si],al
0001A1EE  0003              add [bp+di],al
0001A1F0  0F0000            sldt [bx+si]
0001A1F3  FE                db 0xfe
0001A1F4  F30000            rep add [bx+si],al
0001A1F7  00800000          add [bx+si+0x0],al
0001A1FB  0000              add [bx+si],al
0001A1FD  1F                pop ds
0001A1FE  0000              add [bx+si],al
0001A200  00E0              add al,ah
0001A202  0000              add [bx+si],al
0001A204  0000              add [bx+si],al
0001A206  0000              add [bx+si],al
0001A208  0000              add [bx+si],al
0001A20A  0000              add [bx+si],al
0001A20C  0000              add [bx+si],al
0001A20E  0000              add [bx+si],al
0001A210  3F                aas
0001A211  0000              add [bx+si],al
0001A213  00E0              add al,ah
0001A215  0000              add [bx+si],al
0001A217  0000              add [bx+si],al
0001A219  0000              add [bx+si],al
0001A21B  000F              add [bx],cl
0001A21D  7300              jnc 0xa21f
0001A21F  0000              add [bx+si],al
0001A221  E000              loopne 0xa223
0001A223  0100              add [bx+si],ax
0001A225  0000              add [bx+si],al
0001A227  80C000            add al,0x0
0001A22A  0000              add [bx+si],al
0001A22C  0000              add [bx+si],al
0001A22E  007F87            add [bx-0x79],bh
0001A231  0000              add [bx+si],al
0001A233  00E0              add al,ah
0001A235  0000              add [bx+si],al
0001A237  0000              add [bx+si],al
0001A239  0000              add [bx+si],al
0001A23B  0000              add [bx+si],al
0001A23D  830F0F            or word [bx],byte +0xf
0001A240  05F050            add ax,0x50f0
0001A243  BEF000            mov si,0xf0
0001A246  0000              add [bx+si],al
0001A248  0000              add [bx+si],al
0001A24A  0000              add [bx+si],al
0001A24C  000E1F37          add [0x371f],cl
0001A250  1F                pop ds
0001A251  A0F8FC            mov al,[0xfcf8]
0001A254  E400              in al,0x0
0001A256  0000              add [bx+si],al
0001A258  0000              add [bx+si],al
0001A25A  0000              add [bx+si],al
0001A25C  000E040E          add [0xe04],cl
0001A260  07                pop es
0001A261  263030            xor [es:bx+si],dh
0001A264  1C00              sbb al,0x0
0001A266  0000              add [bx+si],al
0001A268  0000              add [bx+si],al
0001A26A  0000              add [bx+si],al
0001A26C  0100              add [bx+si],ax
0001A26E  007FDF            add [bx-0x21],bh
0001A271  0000              add [bx+si],al
0001A273  80E000            and al,0x0
0001A276  0000              add [bx+si],al
0001A278  0001              add [bx+di],al
0001A27A  0000              add [bx+si],al
0001A27C  008F070F          add [bx+0xf07],cl
0001A280  0DF030            or ax,0x30f0
0001A283  96                xchg ax,si
0001A284  F00000            lock add [bx+si],al
0001A287  0000              add [bx+si],al
0001A289  0000              add [bx+si],al
0001A28B  0000              add [bx+si],al
0001A28D  0E                push cs
0001A28E  1F                pop ds
0001A28F  311C              xor [si],bx
0001A291  A0F054            mov al,[0x54f0]
0001A294  F4                hlt
0001A295  0000              add [bx+si],al
0001A297  0000              add [bx+si],al
0001A299  0000              add [bx+si],al
0001A29B  0000              add [bx+si],al
0001A29D  0F                db 0x0f
0001A29E  0A0A              or cl,[bp+si]
0001A2A0  0F                db 0x0f
0001A2A1  7250              jc 0xa2f3
0001A2A3  303C              xor [si],bh
0001A2A5  0000              add [bx+si],al
0001A2A7  0000              add [bx+si],al
0001A2A9  0000              add [bx+si],al
0001A2AB  0001              add [bx+di],al
0001A2AD  0000              add [bx+si],al
0001A2AF  7FDF              jg 0xa290
0001A2B1  0000              add [bx+si],al
0001A2B3  80E000            and al,0x0
0001A2B6  0000              add [bx+si],al
0001A2B8  0001              add [bx+di],al
0001A2BA  0000              add [bx+si],al
0001A2BC  008F0000          add [bx+0x0],cl
0001A2C0  00F0              add al,dh
0001A2C2  0000              add [bx+si],al
0001A2C4  0000              add [bx+si],al
0001A2C6  0000              add [bx+si],al
0001A2C8  0000              add [bx+si],al
0001A2CA  0000              add [bx+si],al
0001A2CC  0000              add [bx+si],al
0001A2CE  0000              add [bx+si],al
0001A2D0  0000              add [bx+si],al
0001A2D2  0000              add [bx+si],al
0001A2D4  F00000            lock add [bx+si],al
0001A2D7  0000              add [bx+si],al
0001A2D9  0000              add [bx+si],al
0001A2DB  0000              add [bx+si],al
0001A2DD  0000              add [bx+si],al
0001A2DF  000F              add [bx],cl
0001A2E1  7000              jo 0xa2e3
0001A2E3  003C              add [si],bh
0001A2E5  0000              add [bx+si],al
0001A2E7  0000              add [bx+si],al
0001A2E9  0000              add [bx+si],al
0001A2EB  0000              add [bx+si],al
0001A2ED  0000              add [bx+si],al
0001A2EF  7F83              jg 0xa274
0001A2F1  0000              add [bx+si],al
0001A2F3  80F000            xor al,0x0
0001A2F6  0000              add [bx+si],al
0001A2F8  0000              add [bx+si],al
0001A2FA  0000              add [bx+si],al
0001A2FC  0001              add [bx+di],al
0001A2FE  07                pop es
0001A2FF  07                pop es
0001A300  02F8              add bh,al
0001A302  A8DF              test al,0xdf
0001A304  F8                clc
0001A305  0000              add [bx+si],al
0001A307  0000              add [bx+si],al
0001A309  0000              add [bx+si],al
0001A30B  030E07FF          add cx,[0xff07]
0001A30F  8B01              mov ax,[bx+di]
0001A311  50                push ax
0001A312  FF                db 0xff
0001A313  F9                stc
0001A314  FC                cld
0001A315  0000              add [bx+si],al
0001A317  F8                clc
0001A318  3004              xor [si],al
0001A31A  0000              add [bx+si],al
0001A31C  0103              add [bp+di],ax
0001A31E  16                push ss
0001A31F  F8                clc
0001A320  00CF              add bh,cl
0001A322  0200              add al,[bx+si]
0001A324  0000              add [bx+si],al
0001A326  80C070            add al,0x70
0001A329  0000              add [bx+si],al
0001A32B  0001              add [bx+di],al
0001A32D  0000              add [bx+si],al
0001A32F  7FCF              jg 0xa300
0001A331  0000              add [bx+si],al
0001A333  C0                db 0xc0
0001A334  F00000            lock add [bx+si],al
0001A337  0000              add [bx+si],al
0001A339  0000              add [bx+si],al
0001A33B  0000              add [bx+si],al
0001A33D  07                pop es
0001A33E  0307              add ax,[bx]
0001A340  06                push es
0001A341  F8                clc
0001A342  98                cbw
0001A343  CB                retf
0001A344  F8                clc
0001A345  0000              add [bx+si],al
0001A347  0000              add [bx+si],al
0001A349  0000              add [bx+si],al
0001A34B  030E07FF          add cx,[0xff07]
0001A34F  8507              test [bx],ax
0001A351  50                push ax
0001A352  FB                sti
0001A353  55                push bp
0001A354  FC                cld
0001A355  0000              add [bx+si],al
0001A357  F8                clc
0001A358  3004              xor [si],al
0001A35A  0001              add [bx+di],al
0001A35C  0307              add ax,[bx]
0001A35E  1E                push ds
0001A35F  F8                clc
0001A360  00FF              add bh,bh
0001A362  0300              add ax,[bx+si]
0001A364  0000              add [bx+si],al
0001A366  C0E0F0            shl al,byte 0xf0
0001A369  0000              add [bx+si],al
0001A36B  0001              add [bx+di],al
0001A36D  0000              add [bx+si],al
0001A36F  7FCF              jg 0xa340
0001A371  0000              add [bx+si],al
0001A373  C0                db 0xc0
0001A374  F00000            lock add [bx+si],al
0001A377  0000              add [bx+si],al
0001A379  0000              add [bx+si],al
0001A37B  0000              add [bx+si],al
0001A37D  07                pop es
0001A37E  0000              add [bx+si],al
0001A380  00F8              add al,bh
0001A382  0000              add [bx+si],al
0001A384  0000              add [bx+si],al
0001A386  0000              add [bx+si],al
0001A388  0000              add [bx+si],al
0001A38A  0000              add [bx+si],al
0001A38C  0000              add [bx+si],al
0001A38E  0000              add [bx+si],al
0001A390  07                pop es
0001A391  0000              add [bx+si],al
0001A393  00FC              add ah,bh
0001A395  0000              add [bx+si],al
0001A397  0000              add [bx+si],al
0001A399  0000              add [bx+si],al
0001A39B  0103              add [bp+di],ax
0001A39D  07                pop es
0001A39E  008000CE          add [bx+si-0x3200],al
0001A3A2  0000              add [bx+si],al
0001A3A4  0000              add [bx+si],al
0001A3A6  0000              add [bx+si],al
0001A3A8  F00000            lock add [bx+si],al
0001A3AB  0000              add [bx+si],al
0001A3AD  0000              add [bx+si],al
0001A3AF  0003              add [bp+di],al
0001A3B1  0000              add [bx+si],al
0001A3B3  C0                db 0xc0
0001A3B4  F00000            lock add [bx+si],al
0001A3B7  00900403          add [bx+si+0x304],dl
0001A3BB  0102              add [bp+si],ax
0001A3BD  848487C4          test [si-0x3b79],al
0001A3C1  98                cbw
0001A3C2  48                dec ax
0001A3C3  F8                clc
0001A3C4  19E0              sbb ax,sp
0001A3C6  60                pusha
0001A3C7  D0C0              rol al,1
0001A3C9  0000              add [bx+si],al
0001A3CB  0000              add [bx+si],al
0001A3CD  7B9F              jpo 0xa36e
0001A3CF  27                daa
0001A3D0  07                pop es
0001A3D1  EF                out dx,ax
0001A3D2  FE                db 0xfe
0001A3D3  FC                cld
0001A3D4  FE                db 0xfe
0001A3D5  A04000            mov al,[0x40]
0001A3D8  0000              add [bx+si],al
0001A3DA  0000              add [bx+si],al
0001A3DC  000F              add [bx],cl
0001A3DE  0F1D78FE          hint_nop47 word [bx+si-0x2]
0001A3E2  FF7561            push word [di+0x61]
0001A3E5  0020              add [bx+si],ah
0001A3E7  C4                db 0xc4
0001A3E8  F8                clc
0001A3E9  0000              add [bx+si],al
0001A3EB  0000              add [bx+si],al
0001A3ED  0000              add [bx+si],al
0001A3EF  0103              add [bp+di],ax
0001A3F1  0000              add [bx+si],al
0001A3F3  C0                db 0xc0
0001A3F4  F00000            lock add [bx+si],al
0001A3F7  00900403          add [bx+si+0x304],dl
0001A3FB  0102              add [bp+si],ax
0001A3FD  848487C6          test [si-0x3979],al
0001A401  D848F8            fmul dword [bx+si-0x8]
0001A404  39E0              cmp ax,sp
0001A406  60                pusha
0001A407  D0C0              rol al,1
0001A409  0000              add [bx+si],al
0001A40B  0000              add [bx+si],al
0001A40D  7F9F              jg 0xa3ae
0001A40F  27                daa
0001A410  07                pop es
0001A411  FF                db 0xff
0001A412  FE                db 0xfe
0001A413  FC                cld
0001A414  FE                db 0xfe
0001A415  A04000            mov al,[0x40]
0001A418  0000              add [bx+si],al
0001A41A  0000              add [bx+si],al
0001A41C  000F              add [bx],cl
0001A41E  0F1D78FE          hint_nop47 word [bx+si-0x2]
0001A422  FF7561            push word [di+0x61]
0001A425  0020              add [bx+si],ah
0001A427  C4                db 0xc4
0001A428  F8                clc
0001A429  0000              add [bx+si],al
0001A42B  0000              add [bx+si],al
0001A42D  0000              add [bx+si],al
0001A42F  0103              add [bp+di],ax
0001A431  0000              add [bx+si],al
0001A433  C0                db 0xc0
0001A434  F00000            lock add [bx+si],al
0001A437  00900403          add [bx+si+0x304],dl
0001A43B  0100              add [bx+si],ax
0001A43D  848483C4          test [si-0x3b7d],al
0001A441  98                cbw
0001A442  08E8              or al,ch
0001A444  31E0              xor ax,sp
0001A446  40                inc ax
0001A447  C080000000        rol byte [bx+si+0x0],byte 0x0
0001A44C  004B17            add [bp+di+0x17],cl
0001A44F  07                pop es
0001A450  07                pop es
0001A451  EBFE              jmp short 0xa451
0001A453  FC                cld
0001A454  FC                cld
0001A455  800000            add byte [bx+si],0x0
0001A458  0000              add [bx+si],al
0001A45A  0000              add [bx+si],al
0001A45C  0007              add [bx],al
0001A45E  0F1D78FA          hint_nop47 word [bx+si-0x6]
0001A462  FD                std
0001A463  7521              jnz 0xa486
0001A465  0000              add [bx+si],al
0001A467  005000            add [bx+si+0x0],dl
0001A46A  2428              and al,0x28
0001A46C  1800              sbb [bx+si],al
0001A46E  0E                push cs
0001A46F  3F                aas
0001A470  44                inc sp
0001A471  080A              or [bp+si],cl
0001A473  864700            xchg [bx+0x0],al
0001A476  0000              add [bx+si],al
0001A478  001C              add [si],bl
0001A47A  2E07              cs pop es
0001A47C  096E41            or [bp+0x41],bp
0001A47F  40                inc ax
0001A480  6BC6CE            imul ax,si,byte -0x32
0001A483  DD                db 0xdd
0001A484  FA                cli
0001A485  C00080            rol byte [bx+si],byte 0x80
0001A488  0002              add [bp+si],al
0001A48A  0000              add [bx+si],al
0001A48C  003F              add [bx],bh
0001A48E  1F                pop ds
0001A48F  3F                aas
0001A490  7FF1              jg 0xa483
0001A492  E0E0              loopne 0xa474
0001A494  F00000            lock add [bx+si],al
0001A497  0000              add [bx+si],al
0001A499  0000              add [bx+si],al
0001A49B  0000              add [bx+si],al
0001A49D  7F3F              jg 0xa4de
0001A49F  6BE0F8            imul sp,ax,byte -0x8
0001A4A2  FE                db 0xfe
0001A4A3  D7                xlatb
0001A4A4  C10008            rol word [bx+si],byte 0x8
0001A4A7  A1EA00            mov ax,[0xea]
0001A4AA  2428              and al,0x28
0001A4AC  1800              sbb [bx+si],al
0001A4AE  1F                pop ds
0001A4AF  3F                aas
0001A4B0  44                inc sp
0001A4B1  080A              or [bp+si],cl
0001A4B3  864700            xchg [bx+0x0],al
0001A4B6  0000              add [bx+si],al
0001A4B8  001C              add [si],bl
0001A4BA  2E07              cs pop es
0001A4BC  096E63            or [bp+0x63],bp
0001A4BF  41                inc cx
0001A4C0  EBC6              jmp short 0xa488
0001A4C2  CE                into
0001A4C3  DD                db 0xdd
0001A4C4  FA                cli
0001A4C5  C00080            rol byte [bx+si],byte 0x80
0001A4C8  0002              add [bp+si],al
0001A4CA  0000              add [bx+si],al
0001A4CC  007F3F            add [bx+0x3f],bh
0001A4CF  3F                aas
0001A4D0  7FF1              jg 0xa4c3
0001A4D2  A0E0F0            mov al,[0xf0e0]
0001A4D5  0000              add [bx+si],al
0001A4D7  0000              add [bx+si],al
0001A4D9  0000              add [bx+si],al
0001A4DB  0000              add [bx+si],al
0001A4DD  7F3F              jg 0xa51e
0001A4DF  6BE0F8            imul sp,ax,byte -0x8
0001A4E2  FE                db 0xfe
0001A4E3  D7                xlatb
0001A4E4  C10008            rol word [bx+si],byte 0x8
0001A4E7  A1EA00            mov ax,[0xea]
0001A4EA  2428              and al,0x28
0001A4EC  1800              sbb [bx+si],al
0001A4EE  1F                pop ds
0001A4EF  3F                aas
0001A4F0  44                inc sp
0001A4F1  080A              or [bp+si],cl
0001A4F3  864700            xchg [bx+0x0],al
0001A4F6  0000              add [bx+si],al
0001A4F8  000C              add [si],cl
0001A4FA  2607              es pop es
0001A4FC  096E61            or [bp+0x61],bp
0001A4FF  40                inc ax
0001A500  6BC6CE            imul ax,si,byte -0x32
0001A503  9C                pushf
0001A504  F8                clc
0001A505  40                inc ax
0001A506  00800002          add [bx+si+0x200],al
0001A50A  0000              add [bx+si],al
0001A50C  003F              add [bx],bh
0001A50E  1F                pop ds
0001A50F  2F                das
0001A510  5F                pop di
0001A511  61                popa
0001A512  80A0D00000        and byte [bx+si+0xd0],0x0
0001A517  0000              add [bx+si],al
0001A519  0000              add [bx+si],al
0001A51B  0000              add [bx+si],al
0001A51D  5F                pop di
0001A51E  37                aaa
0001A51F  63E0              arpl ax,sp
0001A521  E8FAC6            call 0x6c1e
0001A524  C10008            rol word [bx+si],byte 0x8
0001A527  A1AA00            mov ax,[0xaa]
0001A52A  0000              add [bx+si],al
0001A52C  0900              or [bx+si],ax
0001A52E  0003              add [bp+di],al
0001A530  0F0000            sldt [bx+si]
0001A533  80C000            add al,0x0
0001A536  0000              add [bx+si],al
0001A538  0007              add [bx],al
0001A53A  06                push es
0001A53B  0B03              or ax,[bp+di]
0001A53D  1912              sbb [bp+si],dx
0001A53F  1F                pop ds
0001A540  9C                pushf
0001A541  2121              and [bx+di],sp
0001A543  E123              loope 0xa568
0001A545  20C0              and al,al
0001A547  80400502          add byte [bx+si+0x5],0x2
0001A54B  0000              add [bx+si],al
0001A54D  F77F3F            idiv word [bx+0x3f]
0001A550  7FDE              jg 0xa530
0001A552  F9                stc
0001A553  E4E0              in al,0xe0
0001A555  0000              add [bx+si],al
0001A557  0000              add [bx+si],al
0001A559  0004              add [si],al
0001A55B  231F              and bx,[bx]
0001A55D  7FFF              jg 0xa55e
0001A55F  AE                scasb
0001A560  86F0              xchg al,dh
0001A562  F0B81E00          lock mov ax,0x1e
0001A566  0000              add [bx+si],al
0001A568  0000              add [bx+si],al
0001A56A  0000              add [bx+si],al
0001A56C  0900              or [bx+si],ax
0001A56E  0003              add [bp+di],al
0001A570  0F0000            sldt [bx+si]
0001A573  80C000            add al,0x0
0001A576  0000              add [bx+si],al
0001A578  0007              add [bx],al
0001A57A  06                push es
0001A57B  0B03              or ax,[bp+di]
0001A57D  1B12              sbb dx,[bp+si]
0001A57F  1F                pop ds
0001A580  9C                pushf
0001A581  2121              and [bx+di],sp
0001A583  E123              loope 0xa5a8
0001A585  20C0              and al,al
0001A587  80400502          add byte [bx+si+0x5],0x2
0001A58B  0000              add [bx+si],al
0001A58D  FF                db 0xff
0001A58E  7F3F              jg 0xa5cf
0001A590  7FFE              jg 0xa590
0001A592  F9                stc
0001A593  E4E0              in al,0xe0
0001A595  0000              add [bx+si],al
0001A597  0000              add [bx+si],al
0001A599  0004              add [si],al
0001A59B  231F              and bx,[bx]
0001A59D  7FFF              jg 0xa59e
0001A59F  AE                scasb
0001A5A0  86F0              xchg al,dh
0001A5A2  F0B81E00          lock mov ax,0x1e
0001A5A6  0000              add [bx+si],al
0001A5A8  0000              add [bx+si],al
0001A5AA  0000              add [bx+si],al
0001A5AC  0900              or [bx+si],ax
0001A5AE  0003              add [bp+di],al
0001A5B0  0F0000            sldt [bx+si]
0001A5B3  80C000            add al,0x0
0001A5B6  0000              add [bx+si],al
0001A5B8  0007              add [bx],al
0001A5BA  0203              add al,[bp+di]
0001A5BC  0119              add [bx+di],bx
0001A5BE  1017              adc [bx],dl
0001A5C0  8C21              mov [bx+di],fs
0001A5C2  21C1              and cx,ax
0001A5C4  2320              and sp,[bx+si]
0001A5C6  C080000100        rol byte [bx+si+0x100],byte 0x0
0001A5CB  0000              add [bx+si],al
0001A5CD  D7                xlatb
0001A5CE  7F3F              jg 0xa60f
0001A5D0  3F                aas
0001A5D1  D2E8              shr al,cl
0001A5D3  E0E0              loopne 0xa5b5
0001A5D5  0000              add [bx+si],al
0001A5D7  0000              add [bx+si],al
0001A5D9  0000              add [bx+si],al
0001A5DB  000A              add [bp+si],cl
0001A5DD  5F                pop di
0001A5DE  BFAE84            mov di,0x84ae
0001A5E1  E0F0              loopne 0xa5d3
0001A5E3  B81E00            mov ax,0x1e
0001A5E6  0000              add [bx+si],al
0001A5E8  0000              add [bx+si],al
0001A5EA  0000              add [bx+si],al
0001A5EC  00905061          add [bx+si+0x6150],dl
0001A5F0  E200              loop 0xa5f2
0001A5F2  F8                clc
0001A5F3  FC                cld
0001A5F4  2200              and al,[bx+si]
0001A5F6  2414              and al,0x14
0001A5F8  1803              sbb [bp+di],al
0001A5FA  0001              add [bx+di],al
0001A5FC  006373            add [bp+di+0x73],ah
0001A5FF  BB5F76            mov bx,0x765f
0001A602  82                db 0x82
0001A603  02D6              add dl,dh
0001A605  3874E0            cmp [si-0x20],dh
0001A608  90                nop
0001A609  0000              add [bx+si],al
0001A60B  0000              add [bx+si],al
0001A60D  8F07              pop word [bx]
0001A60F  07                pop es
0001A610  0FFCF8            paddb mm7,mm0
0001A613  FC                cld
0001A614  FE4000            inc byte [bx+si+0x0]
0001A617  0000              add [bx+si],al
0001A619  0010              add [bx+si],dl
0001A61B  85571F            test [bx+0x1f],dx
0001A61E  7FEB              jg 0xa60b
0001A620  83FEFC            cmp si,byte -0x4
0001A623  D6                salc
0001A624  07                pop es
0001A625  0000              add [bx+si],al
0001A627  0000              add [bx+si],al
0001A629  0000              add [bx+si],al
0001A62B  0000              add [bx+si],al
0001A62D  90                nop
0001A62E  50                push ax
0001A62F  61                popa
0001A630  E200              loop 0xa632
0001A632  F8                clc
0001A633  FC                cld
0001A634  2200              and al,[bx+si]
0001A636  2414              and al,0x14
0001A638  1803              sbb [bp+di],al
0001A63A  0001              add [bx+di],al
0001A63C  006373            add [bp+di+0x73],ah
0001A63F  BB5F76            mov bx,0x765f
0001A642  C682D73874        mov byte [bp+si+0x38d7],0x74
0001A647  E090              loopne 0xa5d9
0001A649  0000              add [bx+si],al
0001A64B  0000              add [bx+si],al
0001A64D  8F05              pop word [di]
0001A64F  07                pop es
0001A650  0FFEFC            paddd mm7,mm4
0001A653  FC                cld
0001A654  FE4000            inc byte [bx+si+0x0]
0001A657  0000              add [bx+si],al
0001A659  0010              add [bx+si],dl
0001A65B  85571F            test [bx+0x1f],dx
0001A65E  7FEB              jg 0xa64b
0001A660  83FEFC            cmp si,byte -0x4
0001A663  D6                salc
0001A664  07                pop es
0001A665  0000              add [bx+si],al
0001A667  0000              add [bx+si],al
0001A669  0000              add [bx+si],al
0001A66B  0000              add [bx+si],al
0001A66D  90                nop
0001A66E  50                push ax
0001A66F  61                popa
0001A670  E200              loop 0xa672
0001A672  F8                clc
0001A673  FC                cld
0001A674  2200              and al,[bx+si]
0001A676  2414              and al,0x14
0001A678  1802              sbb [bp+si],al
0001A67A  0001              add [bx+di],al
0001A67C  006373            add [bp+di+0x73],ah
0001A67F  391F              cmp [bx],bx
0001A681  7686              jna 0xa609
0001A683  02D6              add dl,dh
0001A685  3064E0            xor [si-0x20],ah
0001A688  90                nop
0001A689  0000              add [bx+si],al
0001A68B  0000              add [bx+si],al
0001A68D  8601              xchg [bx+di],al
0001A68F  050BFC            add ax,0xfc0b
0001A692  F8                clc
0001A693  F4                hlt
0001A694  FA                cli
0001A695  40                inc ax
0001A696  0000              add [bx+si],al
0001A698  0000              add [bx+si],al
0001A69A  10855517          adc [di+0x1755],al
0001A69E  5F                pop di
0001A69F  6383FAEC          arpl [bp+di-0x1306],ax
0001A6A3  C60700            mov byte [bx],0x0
0001A6A6  0000              add [bx+si],al
0001A6A8  0000              add [bx+si],al
0001A6AA  0000              add [bx+si],al
0001A6AC  0000              add [bx+si],al
0001A6AE  050000            add ax,0x0
0001A6B1  004080            add [bx+si-0x80],al
0001A6B4  0000              add [bx+si],al
0001A6B6  0000              add [bx+si],al
0001A6B8  0000              add [bx+si],al
0001A6BA  0000              add [bx+si],al
0001A6BC  0000              add [bx+si],al
0001A6BE  0000              add [bx+si],al
0001A6C0  0000              add [bx+si],al
0001A6C2  0000              add [bx+si],al
0001A6C4  0000              add [bx+si],al
0001A6C6  0000              add [bx+si],al
0001A6C8  000C              add [si],cl
0001A6CA  0000              add [bx+si],al
0001A6CC  0000              add [bx+si],al
0001A6CE  0000              add [bx+si],al
0001A6D0  0000              add [bx+si],al
0001A6D2  0000              add [bx+si],al
0001A6D4  0000              add [bx+si],al
0001A6D6  0000              add [bx+si],al
0001A6D8  0000              add [bx+si],al
0001A6DA  0000              add [bx+si],al
0001A6DC  0000              add [bx+si],al
0001A6DE  0000              add [bx+si],al
0001A6E0  0000              add [bx+si],al
0001A6E2  0000              add [bx+si],al
0001A6E4  0000              add [bx+si],al
0001A6E6  0000              add [bx+si],al
0001A6E8  0000              add [bx+si],al
0001A6EA  0000              add [bx+si],al
0001A6EC  0000              add [bx+si],al
0001A6EE  07                pop es
0001A6EF  0000              add [bx+si],al
0001A6F1  00800000          add [bx+si+0x0],al
0001A6F5  0000              add [bx+si],al
0001A6F7  0000              add [bx+si],al
0001A6F9  0000              add [bx+si],al
0001A6FB  0000              add [bx+si],al
0001A6FD  0000              add [bx+si],al
0001A6FF  0000              add [bx+si],al
0001A701  0000              add [bx+si],al
0001A703  0000              add [bx+si],al
0001A705  0000              add [bx+si],al
0001A707  0000              add [bx+si],al
0001A709  16                push ss
0001A70A  0000              add [bx+si],al
0001A70C  0000              add [bx+si],al
0001A70E  0000              add [bx+si],al
0001A710  0000              add [bx+si],al
0001A712  0000              add [bx+si],al
0001A714  0000              add [bx+si],al
0001A716  0000              add [bx+si],al
0001A718  0000              add [bx+si],al
0001A71A  0000              add [bx+si],al
0001A71C  0000              add [bx+si],al
0001A71E  0000              add [bx+si],al
0001A720  0000              add [bx+si],al
0001A722  0000              add [bx+si],al
0001A724  0000              add [bx+si],al
0001A726  0000              add [bx+si],al
0001A728  0000              add [bx+si],al
0001A72A  0000              add [bx+si],al
0001A72C  0000              add [bx+si],al
0001A72E  07                pop es
0001A72F  0100              add [bx+si],ax
0001A731  00FF              add bh,bh
0001A733  FF                db 0xff
0001A734  7C00              jl 0xa736
0001A736  80701C00          xor byte [bx+si+0x1c],0x0
0001A73A  0000              add [bx+si],al
0001A73C  0000              add [bx+si],al
0001A73E  0000              add [bx+si],al
0001A740  0000              add [bx+si],al
0001A742  0000              add [bx+si],al
0001A744  00060303          add [0x303],al
0001A748  07                pop es
0001A749  133F              adc di,[bx]
0001A74B  716E              jno 0xa7bb
0001A74D  FF                db 0xff
0001A74E  FFE7              jmp di
0001A750  DBC0              fcmovnb st0
0001A752  FF9E6D1F          call far [bp+0x1f6d]
0001A756  FE                db 0xfe
0001A757  18E0              sbb al,ah
0001A759  1930              sbb [bx+si],si
0001A75B  3070DA            xor [bx+si-0x26],dh
0001A75E  0C0C              or al,0xc
0001A760  1DEEC0            sbb ax,0xc0ee
0001A763  C0C070            rol al,byte 0x70
0001A766  3018              xor [bx+si],bl
0001A768  3800              cmp [bx+si],al
0001A76A  0002              add [bp+si],al
0001A76C  0000              add [bx+si],al
0001A76E  00A02000          add [bx+si+0x20],ah
0001A772  0000              add [bx+si],al
0001A774  0000              add [bx+si],al
0001A776  0000              add [bx+si],al
0001A778  0000              add [bx+si],al
0001A77A  0000              add [bx+si],al
0001A77C  0000              add [bx+si],al
0001A77E  0000              add [bx+si],al
0001A780  0000              add [bx+si],al
0001A782  0000              add [bx+si],al
0001A784  0000              add [bx+si],al
0001A786  0000              add [bx+si],al
0001A788  000C              add [si],cl
0001A78A  0000              add [bx+si],al
0001A78C  0000              add [bx+si],al
0001A78E  0000              add [bx+si],al
0001A790  0000              add [bx+si],al
0001A792  0000              add [bx+si],al
0001A794  0000              add [bx+si],al
0001A796  0000              add [bx+si],al
0001A798  0000              add [bx+si],al
0001A79A  0000              add [bx+si],al
0001A79C  0000              add [bx+si],al
0001A79E  0000              add [bx+si],al
0001A7A0  0000              add [bx+si],al
0001A7A2  0000              add [bx+si],al
0001A7A4  0000              add [bx+si],al
0001A7A6  0000              add [bx+si],al
0001A7A8  0000              add [bx+si],al
0001A7AA  0003              add [bp+di],al
0001A7AC  0000              add [bx+si],al
0001A7AE  00C0              add al,al
0001A7B0  0000              add [bx+si],al
0001A7B2  0000              add [bx+si],al
0001A7B4  0000              add [bx+si],al
0001A7B6  0000              add [bx+si],al
0001A7B8  0000              add [bx+si],al
0001A7BA  0000              add [bx+si],al
0001A7BC  0000              add [bx+si],al
0001A7BE  0000              add [bx+si],al
0001A7C0  0000              add [bx+si],al
0001A7C2  0000              add [bx+si],al
0001A7C4  0000              add [bx+si],al
0001A7C6  0000              add [bx+si],al
0001A7C8  00160000          add [0x0],dl
0001A7CC  0000              add [bx+si],al
0001A7CE  0000              add [bx+si],al
0001A7D0  0000              add [bx+si],al
0001A7D2  0000              add [bx+si],al
0001A7D4  0000              add [bx+si],al
0001A7D6  0000              add [bx+si],al
0001A7D8  0000              add [bx+si],al
0001A7DA  0000              add [bx+si],al
0001A7DC  0000              add [bx+si],al
0001A7DE  0000              add [bx+si],al
0001A7E0  0000              add [bx+si],al
0001A7E2  0000              add [bx+si],al
0001A7E4  0000              add [bx+si],al
0001A7E6  0000              add [bx+si],al
0001A7E8  0000              add [bx+si],al
0001A7EA  0003              add [bp+di],al
0001A7EC  0000              add [bx+si],al
0001A7EE  00FF              add bh,bh
0001A7F0  7F00              jg 0xa7f2
0001A7F2  00C0              add al,al
0001A7F4  BF0000            mov di,0x0
0001A7F7  00800000          add [bx+si+0x0],al
0001A7FB  0000              add [bx+si],al
0001A7FD  1E                push ds
0001A7FE  0000              add [bx+si],al
0001A800  0000              add [bx+si],al
0001A802  0000              add [bx+si],al
0001A804  00F0              add al,dh
0001A806  1C0E              sbb al,0xe
0001A808  06                push es
0001A809  133F              adc di,[bx]
0001A80B  7976              jns 0xa883
0001A80D  FF                db 0xff
0001A80E  FFE7              jmp di
0001A810  DBC0              fcmovnb st0
0001A812  FF9E6D1E          call far [bp+0x1e6d]
0001A816  FC                cld
0001A817  78A0              js 0xa7b9
0001A819  0D0C06            or ax,0x60c
0001A81C  0E                push cs
0001A81D  B760              mov bh,0x60
0001A81F  60                pusha
0001A820  E0B5              loopne 0xa7d7
0001A822  1818              sbb [bx+si],bl
0001A824  3980C0C0          cmp [bx+si-0x3f40],ax
0001A828  C00000            rol byte [bx+si],byte 0x0
0001A82B  0000              add [bx+si],al
0001A82D  0002              add [bp+si],al
0001A82F  0100              add [bx+si],ax
0001A831  00A00000          add [bx+si+0x0],ah
0001A835  0000              add [bx+si],al
0001A837  0000              add [bx+si],al
0001A839  0000              add [bx+si],al
0001A83B  0000              add [bx+si],al
0001A83D  0000              add [bx+si],al
0001A83F  0000              add [bx+si],al
0001A841  0000              add [bx+si],al
0001A843  0000              add [bx+si],al
0001A845  0000              add [bx+si],al
0001A847  0000              add [bx+si],al
0001A849  0000              add [bx+si],al
0001A84B  0000              add [bx+si],al
0001A84D  0000              add [bx+si],al
0001A84F  0000              add [bx+si],al
0001A851  0000              add [bx+si],al
0001A853  0000              add [bx+si],al
0001A855  3000              xor [bx+si],al
0001A857  0000              add [bx+si],al
0001A859  0000              add [bx+si],al
0001A85B  0000              add [bx+si],al
0001A85D  0000              add [bx+si],al
0001A85F  0000              add [bx+si],al
0001A861  0000              add [bx+si],al
0001A863  0000              add [bx+si],al
0001A865  0000              add [bx+si],al
0001A867  0000              add [bx+si],al
0001A869  0000              add [bx+si],al
0001A86B  0000              add [bx+si],al
0001A86D  0001              add [bx+di],al
0001A86F  0000              add [bx+si],al
0001A871  00E0              add al,ah
0001A873  0000              add [bx+si],al
0001A875  0000              add [bx+si],al
0001A877  0000              add [bx+si],al
0001A879  0000              add [bx+si],al
0001A87B  0000              add [bx+si],al
0001A87D  0000              add [bx+si],al
0001A87F  0000              add [bx+si],al
0001A881  0000              add [bx+si],al
0001A883  0000              add [bx+si],al
0001A885  0000              add [bx+si],al
0001A887  0000              add [bx+si],al
0001A889  0000              add [bx+si],al
0001A88B  0000              add [bx+si],al
0001A88D  0000              add [bx+si],al
0001A88F  0000              add [bx+si],al
0001A891  0000              add [bx+si],al
0001A893  0000              add [bx+si],al
0001A895  680000            push word 0x0
0001A898  0000              add [bx+si],al
0001A89A  0000              add [bx+si],al
0001A89C  0000              add [bx+si],al
0001A89E  0000              add [bx+si],al
0001A8A0  0000              add [bx+si],al
0001A8A2  0000              add [bx+si],al
0001A8A4  0000              add [bx+si],al
0001A8A6  0000              add [bx+si],al
0001A8A8  0000              add [bx+si],al
0001A8AA  010E3800          add [0x38],cx
0001A8AE  FF                db 0xff
0001A8AF  FF                db 0xff
0001A8B0  3E00E0            ds add al,ah
0001A8B3  800000            add byte [bx+si],0x0
0001A8B6  0000              add [bx+si],al
0001A8B8  0060C0            add [bx+si-0x40],ah
0001A8BB  C0E000            shl al,byte 0x0
0001A8BE  0000              add [bx+si],al
0001A8C0  0000              add [bx+si],al
0001A8C2  0000              add [bx+si],al
0001A8C4  0000              add [bx+si],al
0001A8C6  0000              add [bx+si],al
0001A8C8  00F8              add al,bh
0001A8CA  7F18              jg 0xa8e4
0001A8CC  07                pop es
0001A8CD  03FF              add di,di
0001A8CF  79B6              jns 0xa887
0001A8D1  FF                db 0xff
0001A8D2  FFE7              jmp di
0001A8D4  DBC8              fcmovne st0
0001A8D6  FC                cld
0001A8D7  8E760E            mov segr6,[bp+0xe]
0001A8DA  0C18              or al,0x18
0001A8DC  1C77              sbb al,0x77
0001A8DE  0303              add ax,[bp+di]
0001A8E0  035B30            add bx,[bp+di+0x30]
0001A8E3  30B8980C          xor [bx+si+0xc98],bh
0001A8E7  0C0E              or al,0xe
0001A8E9  0000              add [bx+si],al
0001A8EB  0000              add [bx+si],al
0001A8ED  0000              add [bx+si],al
0001A8EF  0000              add [bx+si],al
0001A8F1  0000              add [bx+si],al
0001A8F3  050400            add ax,0x4
0001A8F6  004000            add [bx+si+0x0],al
0001A8F9  0000              add [bx+si],al
0001A8FB  0000              add [bx+si],al
0001A8FD  0000              add [bx+si],al
0001A8FF  0000              add [bx+si],al
0001A901  0000              add [bx+si],al
0001A903  0000              add [bx+si],al
0001A905  0000              add [bx+si],al
0001A907  0000              add [bx+si],al
0001A909  0000              add [bx+si],al
0001A90B  0000              add [bx+si],al
0001A90D  0000              add [bx+si],al
0001A90F  0000              add [bx+si],al
0001A911  0000              add [bx+si],al
0001A913  0000              add [bx+si],al
0001A915  3000              xor [bx+si],al
0001A917  0000              add [bx+si],al
0001A919  0000              add [bx+si],al
0001A91B  0000              add [bx+si],al
0001A91D  0000              add [bx+si],al
0001A91F  0000              add [bx+si],al
0001A921  0000              add [bx+si],al
0001A923  0000              add [bx+si],al
0001A925  0000              add [bx+si],al
0001A927  0000              add [bx+si],al
0001A929  0000              add [bx+si],al
0001A92B  0000              add [bx+si],al
0001A92D  0000              add [bx+si],al
0001A92F  0000              add [bx+si],al
0001A931  0000              add [bx+si],al
0001A933  0300              add ax,[bx+si]
0001A935  0000              add [bx+si],al
0001A937  C00000            rol byte [bx+si],byte 0x0
0001A93A  0000              add [bx+si],al
0001A93C  0000              add [bx+si],al
0001A93E  0000              add [bx+si],al
0001A940  0000              add [bx+si],al
0001A942  0000              add [bx+si],al
0001A944  0000              add [bx+si],al
0001A946  0000              add [bx+si],al
0001A948  0000              add [bx+si],al
0001A94A  0000              add [bx+si],al
0001A94C  0000              add [bx+si],al
0001A94E  0000              add [bx+si],al
0001A950  0000              add [bx+si],al
0001A952  0000              add [bx+si],al
0001A954  006800            add [bx+si+0x0],ch
0001A957  0000              add [bx+si],al
0001A959  0000              add [bx+si],al
0001A95B  0000              add [bx+si],al
0001A95D  0000              add [bx+si],al
0001A95F  0000              add [bx+si],al
0001A961  0000              add [bx+si],al
0001A963  0000              add [bx+si],al
0001A965  0000              add [bx+si],al
0001A967  0000              add [bx+si],al
0001A969  0000              add [bx+si],al
0001A96B  0001              add [bx+di],al
0001A96D  0000              add [bx+si],al
0001A96F  03FD              add di,bp
0001A971  0000              add [bx+si],al
0001A973  FF                db 0xff
0001A974  FE00              inc byte [bx+si]
0001A976  00C0              add al,al
0001A978  000F              add [bx],cl
0001A97A  387060            cmp [bx+si+0x60],dh
0001A97D  0000              add [bx+si],al
0001A97F  0000              add [bx+si],al
0001A981  7800              js 0xa983
0001A983  0000              add [bx+si],al
0001A985  0000              add [bx+si],al
0001A987  0000              add [bx+si],al
0001A989  783F              js 0xa9ca
0001A98B  1E                push ds
0001A98C  0503FF            add ax,0xff03
0001A98F  79B6              jns 0xa947
0001A991  FF                db 0xff
0001A992  FFE7              jmp di
0001A994  DBC8              fcmovne st0
0001A996  FC                cld
0001A997  9E                sahf
0001A998  6E                outsb
0001A999  0103              add [bp+di],ax
0001A99B  0303              add ax,[bp+di]
0001A99D  AD                lodsw
0001A99E  1818              sbb [bx+si],bl
0001A9A0  9C                pushf
0001A9A1  ED                in ax,dx
0001A9A2  06                push es
0001A9A3  06                push es
0001A9A4  07                pop es
0001A9A5  B030              mov al,0x30
0001A9A7  60                pusha
0001A9A8  7000              jo 0xa9aa
0001A9AA  008258AF          add [bp+si-0x50a8],al
0001A9AE  58                pop ax
0001A9AF  DC5808            fcomp qword [bx+si+0x8]
0001A9B2  59                pop cx
0001A9B3  355962            xor ax,0x6259
0001A9B6  59                pop cx
0001A9B7  8F                db 0x8f
0001A9B8  59                pop cx
0001A9B9  BC59E9            mov sp,0xe959
0001A9BC  59                pop cx
0001A9BD  16                push ss
0001A9BE  5A                pop dx
0001A9BF  43                inc bx
0001A9C0  5A                pop dx
0001A9C1  6F                outsw
0001A9C2  5A                pop dx
0001A9C3  9B5A              wait pop dx
0001A9C5  C85AF45A          enter 0xf45a,0x5a
0001A9C9  205B4C            and [bp+di+0x4c],bl
0001A9CC  5B                pop bx
0001A9CD  795B              jns 0xaa2a
0001A9CF  A6                cmpsb
0001A9D0  5B                pop bx
0001A9D1  D25BFF            rcr byte [bp+di-0x1],cl
0001A9D4  5B                pop bx
0001A9D5  2C5C              sub al,0x5c
0001A9D7  59                pop cx
0001A9D8  5C                pop sp
0001A9D9  865C86            xchg [si-0x7a],bl
0001A9DC  5C                pop sp
0001A9DD  E000              loopne 0xa9df
0001A9DF  0000              add [bx+si],al
0001A9E1  0000              add [bx+si],al
0001A9E3  0007              add [bx],al
0001A9E5  C10000            rol word [bx+si],byte 0x0
0001A9E8  0000              add [bx+si],al
0001A9EA  0000              add [bx+si],al
0001A9EC  0000              add [bx+si],al
0001A9EE  0000              add [bx+si],al
0001A9F0  0000              add [bx+si],al
0001A9F2  0000              add [bx+si],al
0001A9F4  2005              and [di],al
0001A9F6  0000              add [bx+si],al
0001A9F8  0000              add [bx+si],al
0001A9FA  0000              add [bx+si],al
0001A9FC  0000              add [bx+si],al
0001A9FE  036D5B            add bp,[di+0x5b]
0001AA01  8B5460            mov dx,[si+0x60]
0001AA04  001D              add [di],bl
0001AA06  5E                pop si
0001AA07  AF                scasw
0001AA08  D7                xlatb
0001AA09  AF                scasw
0001AA0A  FFF0              push ax
0001AA0C  20F7              and bh,dh
0001AA0E  7821              js 0xaa31
0001AA10  A013BC            mov al,[0xbc13]
0001AA13  A91AB1            test ax,0xb11a
0001AA16  807B7197          cmp byte [bp+di+0x71],0x97
0001AA1A  58                pop ax
0001AA1B  01FE              add si,di
0001AA1D  F8                clc
0001AA1E  219F5915          and [bx+0x1559],bx
0001AA22  801FD5            sbb byte [bx],0xd5
0001AA25  094881            or [bx+si-0x7f],cx
0001AA28  AF                scasw
0001AA29  F8                clc
0001AA2A  41                inc cx
0001AA2B  240F              and al,0xf
0001AA2D  DF885885          fisttp word [bx+si-0x7aa8]
0001AA31  A1DAB1            mov ax,[0xb1da]
0001AA34  A01BFF            mov al,[0xff1b]
0001AA37  FF                db 0xff
0001AA38  FFF7              push di
0001AA3A  BF8810            mov di,0x1088
0001AA3D  1001              adc [bx+di],al
0001AA3F  82                db 0x82
0001AA40  47                inc di
0001AA41  DF                db 0xdf
0001AA42  FF881110          dec word [bx+si+0x1011]
0001AA46  208EF5FE          and [bp-0x10b],cl
0001AA4A  AF                scasw
0001AA4B  D84442            fadd dword [si+0x42]
0001AA4E  21884502          and [bx+si+0x245],cx
0001AA52  F9                stc
0001AA53  8D                db 0x8d
0001AA54  FF4281            inc word [bp+si-0x7f]
0001AA57  804076AF          add byte [bx+si+0x76],0xaf
0001AA5B  8A05              mov al,[di]
0001AA5D  0081FBFD          add [bx+di-0x205],al
0001AA61  F7BFFC24          idiv word [bx+0x24fc]
0001AA65  3F                aas
0001AA66  87E7              xchg di,sp
0001AA68  E180              loope 0xa9ea
0001AA6A  81018418          add word [bx+di],0x1884
0001AA6E  21848121          and [si+0x2181],ax
0001AA72  DC813B88          fadd qword [bx+di-0x77c5]
0001AA76  EF                out dx,ax
0001AA77  11D9              adc cx,bx
0001AA79  819B51008AD9      sbb word [bp+di+0x51],0xd98a
0001AA7F  009B8900          add [bp+di+0x89],bl
0001AA83  91                xchg ax,cx
0001AA84  8900              mov [bx+si],ax
0001AA86  91                xchg ax,cx
0001AA87  8101C18F          add word [bx+di],0x8fc1
0001AA8B  0071F9            add [bx+di-0x7],dh
0001AA8E  FF5FFD            call far [bx-0x3]
0001AA91  FF                db 0xff
0001AA92  FF                db 0xff
0001AA93  BE1024            mov si,0x2410
0001AA96  0019              add [bx+di],bl
0001AA98  1415              adc al,0x15
0001AA9A  7A6D              jpe 0xab09
0001AA9C  5F                pop di
0001AA9D  04ED              add al,0xed
0001AA9F  95                xchg ax,bp
0001AAA0  C7                db 0xc7
0001AAA1  F006              lock push es
0001AAA3  104046            adc [bx+si+0x46],al
0001AAA6  7A15              jpe 0xaabd
0001AAA8  1F                pop ds
0001AAA9  316D44            xor [di+0x44],bp
0001AAAC  43                inc bx
0001AAAD  95                xchg ax,bp
0001AAAE  A5                movsw
0001AAAF  5D                pop bp
0001AAB0  0CC6              or al,0xc6
0001AAB2  114426            adc [si+0x26],ax
0001AAB5  5A                pop dx
0001AAB6  50                push ax
0001AAB7  40                inc ax
0001AAB8  307F7F            xor [bx+0x7f],bh
0001AABB  FF                db 0xff
0001AABC  EF                out dx,ax
0001AABD  7FFF              jg 0xaabe
0001AABF  FF                db 0xff
0001AAC0  FF                db 0xff
0001AAC1  EC                in al,dx
0001AAC2  7188              jno 0xaa4c
0001AAC4  007382            add [bp+di-0x7e],dh
0001AAC7  01C7              add di,ax
0001AAC9  C21C38            ret 0x381c
0001AACC  51                push cx
0001AACD  C6                db 0xc6
0001AACE  63F8              arpl ax,di
0001AAD0  2C10              sub al,0x10
0001AAD2  3C79              cmp al,0x79
0001AAD4  866071            xchg [bx+si+0x71],ah
0001AAD7  1C8C              sbb al,0x8c
0001AAD9  43                inc bx
0001AADA  FD                std
0001AADB  D7                xlatb
0001AADC  1804              sbb [si],al
0001AADE  008801C6          add [bx+si-0x39ff],cl
0001AAE2  C7018737          mov word [bx+di],0x3787
0001AAE6  FF                db 0xff
0001AAE7  FF                db 0xff
0001AAE8  FF                db 0xff
0001AAE9  FE                db 0xfe
0001AAEA  FF                db 0xff
0001AAEB  F8                clc
0001AAEC  7FFF              jg 0xaaed
0001AAEE  E440              in al,0x40
0001AAF0  89FE              mov si,di
0001AAF2  90                nop
0001AAF3  48                dec ax
0001AAF4  A5                movsw
0001AAF5  F0152A03          lock adc ax,0x32a
0001AAF9  F7502B            not word [bx+si+0x2b]
0001AAFC  BE5400            mov si,0x54
0001AAFF  0A990000          or bl,[bx+di+0x0]
0001AB03  0276D4            add dh,[bp-0x2c]
0001AB06  0ADB              or bl,bl
0001AB08  C214A9            ret 0xa914
0001AB0B  0FE112            psraw mm2,[bp+si]
0001AB0E  217811            and [bx+si+0x11],di
0001AB11  0227              add ah,[bx]
0001AB13  EF                out dx,ax
0001AB14  FE                db 0xfe
0001AB15  1F                pop ds
0001AB16  FF8A6A44          dec word [bp+si+0x446a]
0001AB1A  54                push sp
0001AB1B  0801              or [bx+di],al
0001AB1D  000B              add [bp+di],cl
0001AB1F  E224              loop 0xab45
0001AB21  0420              add al,0x20
0001AB23  0010              add [bx+si],dl
0001AB25  0004              add [si],al
0001AB27  0000              add [bx+si],al
0001AB29  0400              add al,0x0
0001AB2B  A1001F            mov ax,[0x1f00]
0001AB2E  0010              add [bx+si],dl
0001AB30  0000              add [bx+si],al
0001AB32  0200              add al,[bx+si]
0001AB34  0100              add [bx+si],ax
0001AB36  0000              add [bx+si],al
0001AB38  00A00004          add [bx+si+0x400],ah
0001AB3C  0010              add [bx+si],dl
0001AB3E  0000              add [bx+si],al
0001AB40  2448              and al,0x48
0001AB42  844904            test [bx+di+0x4],cl
0001AB45  0000              add [bx+si],al
0001AB47  0000              add [bx+si],al
0001AB49  0000              add [bx+si],al
0001AB4B  0000              add [bx+si],al
0001AB4D  0001              add [bx+di],al
0001AB4F  C00410            rol byte [si],byte 0x10
0001AB52  0004              add [si],al
0001AB54  0007              add [bx],al
0001AB56  0000              add [bx+si],al
0001AB58  60                pusha
0001AB59  001E201E          add [0x1e20],bl
0001AB5D  004180            add [bx+di-0x80],al
0001AB60  0038              add [bx+si],bh
0001AB62  0008              add [bx+si],cl
0001AB64  0002              add [bp+si],al
0001AB66  0000              add [bx+si],al
0001AB68  E000              loopne 0xab6a
0001AB6A  01F2              add dx,si
0001AB6C  004000            add [bx+si+0x0],al
0001AB6F  57                push di
0001AB70  80E3FF            and bl,0xff
0001AB73  7FFC              jg 0xab71
0001AB75  82                db 0x82
0001AB76  05001A            add ax,0x1a00
0001AB79  2A04              sub al,[si]
0001AB7B  7C60              jl 0xabdd
0001AB7D  A2D001            mov [0x1d0],al
0001AB80  82                db 0x82
0001AB81  82                db 0x82
0001AB82  7D6E              jnl 0xabf2
0001AB84  4A                dec dx
0001AB85  8800              mov [bx+si],al
0001AB87  1822              sbb [bp+si],ah
0001AB89  2000              and [bx+si],al
0001AB8B  60                pusha
0001AB8C  E09B              loopne 0xab29
0001AB8E  5F                pop di
0001AB8F  82                db 0x82
0001AB90  0B4004            or ax,[bx+si+0x4]
0001AB93  0C81              or al,0x81
0001AB95  1F                pop ds
0001AB96  1000              adc [bx+si],al
0001AB98  1400              adc al,0x0
0001AB9A  40                inc ax
0001AB9B  FF                db 0xff
0001AB9C  DF                db 0xdf
0001AB9D  FF                db 0xff
0001AB9E  FF                db 0xff
0001AB9F  FF                db 0xff
0001ABA0  FF808008          inc word [bx+si+0x880]
0001ABA4  00808208          add [bx+si+0x882],al
0001ABA8  20828208          and [bp+si+0x882],al
0001ABAC  2081EFBE          and [bx+di-0x4111],al
0001ABB0  FB                sti
0001ABB1  8180080081AF      add word [bx+si+0x8],0xaf81
0001ABB7  88FB              mov bl,bh
0001ABB9  81A8A28801A8      sub word [bx+si-0x775e],0xa801
0001ABBF  888B80A0          mov [bp+di-0x5f80],cl
0001ABC3  0800              or [bx+si],al
0001ABC5  80BFFFFF88        cmp byte [bx-0x1],0x88
0001ABCA  FFF5              push bp
0001ABCC  56                push si
0001ABCD  0ADD              or bl,ch
0001ABCF  1A8A152A          sbb cl,[bp+si+0x2a15]
0001ABD3  AF                scasw
0001ABD4  55                push bp
0001ABD5  AE                scasb
0001ABD6  B016              mov al,0x16
0001ABD8  BED558            mov si,0x58d5
0001ABDB  23556E            and dx,[di+0x6e]
0001ABDE  BC00AE            mov sp,0xae00
0001ABE1  F5                cmc
0001ABE2  56                push si
0001ABE3  EAC55E8B55        jmp 0x558b:0x5ec5
0001ABE8  60                pusha
0001ABE9  8D55AA            lea dx,[di-0x56]
0001ABEC  B576              mov ch,0x76
0001ABEE  EA810AABDD        jmp 0xddab:0xa81
0001ABF3  42                inc dx
0001ABF4  0FFF              ud0
0001ABF6  3B7B7F            cmp di,[bp+di+0x7f]
0001ABF9  FC                cld
0001ABFA  0405              add al,0x5
0001ABFC  1010              adc [bx+si],dl
0001ABFE  1014              adc [si],dl
0001AC00  006000            add [bx+si+0x0],ah
0001AC03  91                xchg ax,cx
0001AC04  FB                sti
0001AC05  80406C06          add byte [bx+si+0x6c],0x6
0001AC09  0000              add [bx+si],al
0001AC0B  0018              add [bx+si],bl
0001AC0D  00060060          add [0x6000],al
0001AC11  0110              add [bx+si],dx
0001AC13  01800040          add [bx+si+0x4000],ax
0001AC17  0412              add al,0x12
0001AC19  01E0              add ax,sp
0001AC1B  1002              adc [bp+si],al
0001AC1D  0400              add al,0x0
0001AC1F  4E                dec si
0001AC20  DE                db 0xde
0001AC21  D7                xlatb
0001AC22  FF                db 0xff
0001AC23  FB                sti
0001AC24  FF                db 0xff
0001AC25  DF                db 0xdf
0001AC26  DFE0              fnstsw ax
0001AC28  E3C9              jcxz 0xabf3
0001AC2A  87C0              xchg ax,ax
0001AC2C  41                inc cx
0001AC2D  8083C01B80        add byte [bp+di+0x1bc0],0x80
0001AC32  C3                ret
0001AC33  C00F00            ror byte [bx],byte 0x0
0001AC36  01840000          add [si+0x0],ax
0001AC3A  61                popa
0001AC3B  800700            add byte [bx],0x0
0001AC3E  C1800DE0E1        rol word [bx+si-0x1ff3],byte 0xe1
0001AC43  A004F8            mov al,[0xf804]
0001AC46  71B8              jno 0xac00
0001AC48  C00D1B            ror byte [di],byte 0x1b
0001AC4B  BBFFDF            mov bx,0xdfff
0001AC4E  DF10              fist word [bx+si]
0001AC50  07                pop es
0001AC51  01B06309          add [bx+si+0x963],si
0001AC55  2124              and [si],sp
0001AC57  2085C080          and [di-0x7f40],al
0001AC5B  1DC080            sbb ax,0x80c0
0001AC5E  94                xchg ax,sp
0001AC5F  0E                push cs
0001AC60  E104              loope 0xac66
0001AC62  20841082          and [si-0x7df0],al
0001AC66  104208            adc [bp+si+0x8],al
0001AC69  40                inc ax
0001AC6A  1E                push ds
0001AC6B  E050              loopne 0xacbd
0001AC6D  3B8410B8          cmp ax,[si-0x47f0]
0001AC71  1003              adc [bp+di],al
0001AC73  38410B            cmp [bx+di+0xb],al
0001AC76  2104              and [si],ax
0001AC78  3B8140FB          cmp ax,[bx+di-0x4c0]
0001AC7C  FF                db 0xff
0001AC7D  FFD7              call di
0001AC7F  0A00              or al,[bx+si]
0001AC81  0091AAAA          add [bx+di-0x5556],dl
0001AC85  AA                stosb
0001AC86  91                xchg ax,cx
0001AC87  82                db 0x82
0001AC88  0000              add [bx+si],al
0001AC8A  97                xchg ax,di
0001AC8B  86AAAA91          xchg [bp+si-0x6e56],ch
0001AC8F  F00000            lock add [bx+si],al
0001AC92  DD9EAAAA          fstp qword [bp-0x5556]
0001AC96  818200002DAA      add word [bp+si+0x0],0xaa2d
0001AC9C  AA                stosb
0001AC9D  AB                stosw
0001AC9E  7980              jns 0xac20
0001ACA0  0002              add [bp+si],al
0001ACA2  41                inc cx
0001ACA3  FB                sti
0001ACA4  FF                db 0xff
0001ACA5  FE                db 0xfe
0001ACA6  D7                xlatb
0001ACA7  17                pop ss
0001ACA8  1D0307            sbb ax,0x703
0001ACAB  0000              add [bx+si],al
0001ACAD  C78219CC2300      mov word [bp+si-0x33e7],0x23
0001ACB3  42                inc dx
0001ACB4  6786A40C3A5E69B4  xchg [dword esp+ecx-0x4b96a1c6],ah
0001ACBC  B299              mov dl,0x99
0001ACBE  61                popa
0001ACBF  2D93B2            sub ax,0xb293
0001ACC2  5D                pop bp
0001ACC3  8E654C            mov fs,[di+0x4c]
0001ACC6  0444              add al,0x44
0001ACC8  18CC              sbb ah,cl
0001ACCA  7F38              jg 0xad04
0001ACCC  80060001C1        add byte [0x100],0xc1
0001ACD1  8171D05BEA        xor word [bx+di-0x30],0xea5b
0001ACD6  41                inc cx
0001ACD7  B058              mov al,0x58
0001ACD9  7D5C              jnl 0xad37
0001ACDB  196EB4            sbb [bp-0x4c],bp
0001ACDE  1805              sbb [di],al
0001ACE0  57                push di
0001ACE1  E90972            jmp 0x1eed
0001ACE4  A820              test al,0x20
0001ACE6  BF6845            mov di,0x4568
0001ACE9  55                push bp
0001ACEA  D101              rol word [bx+di],1
0001ACEC  5F                pop di
0001ACED  D841AD            fadd dword [bx+di-0x53]
0001ACF0  D204              rol byte [si],cl
0001ACF2  BFD825            mov di,0x25d8
0001ACF5  6A18              push byte +0x18
0001ACF7  BAB916            mov dx,0x16b9
0001ACFA  3D885B            cmp ax,0x5b88
0001ACFD  1100              adc [bx+si],ax
0001ACFF  50                push ax
0001AD00  3AFF              cmp bh,bh
0001AD02  FB                sti
0001AD03  DF                db 0xdf
0001AD04  FF820A50          inc word [bp+si+0x500a]
0001AD08  41                inc cx
0001AD09  82                db 0x82
0001AD0A  0A5041            or dl,[bx+si+0x41]
0001AD0D  800A50            or byte [bp+si],0x50
0001AD10  0192A815          add [bp+si+0x15a8],dx
0001AD14  41                inc cx
0001AD15  92                xchg ax,dx
0001AD16  AE                scasb
0001AD17  7577              jnz 0xad90
0001AD19  D6                salc
0001AD1A  A815              test al,0x15
0001AD1C  51                push cx
0001AD1D  92                xchg ax,dx
0001AD1E  0000              add [bx+si],al
0001AD20  51                push cx
0001AD21  82                db 0x82
0001AD22  0810              or [bx+si],dl
0001AD24  51                push cx
0001AD25  82                db 0x82
0001AD26  0810              or [bx+si],dl
0001AD28  41                inc cx
0001AD29  FF                db 0xff
0001AD2A  FB                sti
0001AD2B  DF                db 0xdf
0001AD2C  FF5BBF            call far [bp+di-0x41]
0001AD2F  F5                cmc
0001AD30  2200              and al,[bx+si]
0001AD32  69BB7D44101B      imul di,[bp+di+0x447d],word 0x1b10
0001AD38  AF                scasw
0001AD39  AE                scasb
0001AD3A  C00119            rol byte [bx+di],byte 0x19
0001AD3D  681AB0            push word 0xb01a
0001AD40  60                pusha
0001AD41  15BE03            adc ax,0x3be
0001AD44  AC                lodsb
0001AD45  40                inc ax
0001AD46  156A00            adc ax,0x6a
0001AD49  AA                stosb
0001AD4A  54                push sp
0001AD4B  150ABE            adc ax,0xbe0a
0001AD4E  AB                stosw
0001AD4F  50                push ax
0001AD50  1046FA            adc [bp-0x6],al
0001AD53  FE                db 0xfe
0001AD54  B100              mov cl,0x0
0001AD56  05777F            add ax,0x7f77
0001AD59  90                nop
0001AD5A  3ECE              ds into
0001AD5C  27                daa
0001AD5D  8B18              mov bx,[bx+si]
0001AD5F  01F6              add si,si
0001AD61  F20476            repne add al,0x76
0001AD64  EC                in al,dx
0001AD65  03969809          add dx,[bp+0x998]
0001AD69  D6                salc
0001AD6A  35061F            xor ax,0x1f06
0001AD6D  C00000            rol byte [bx+si],byte 0x0
0001AD70  0200              add al,[bx+si]
0001AD72  0000              add [bx+si],al
0001AD74  0000              add [bx+si],al
0001AD76  40                inc ax
0001AD77  0000              add [bx+si],al
0001AD79  0000              add [bx+si],al
0001AD7B  0002              add [bp+si],al
0001AD7D  0000              add [bx+si],al
0001AD7F  0000              add [bx+si],al
0001AD81  0000              add [bx+si],al
0001AD83  800000            add byte [bx+si],0x0
0001AD86  00FB              add bl,bh
0001AD88  7FDF              jg 0xad69
0001AD8A  7F80              jg 0xad0c
0001AD8C  60                pusha
0001AD8D  001C              add [si],bl
0001AD8F  B4C0              mov ah,0xc0
0001AD91  00721B            add [bp+si+0x1b],dh
0001AD94  EBFF              jmp short 0xad95
0001AD96  9B46              wait inc si
0001AD98  000E4852          add [0x5248],cl
0001AD9C  B039              mov al,0x39
0001AD9E  210A              and [bp+si],cx
0001ADA0  C026D10003        shl byte [0xd1],byte 0x3
0001ADA5  C86FAFFF          enter 0xaf6f,0xff
0001ADA9  2D3000            sub ax,0x30
0001ADAC  1E                push ds
0001ADAD  0180007E          add [bx+si+0x7e00],ax
0001ADB1  DFF7              fcomip st7
0001ADB3  DF00              fild word [bx+si]
0001ADB5  3F                aas
0001ADB6  D002              rol byte [bp+si],1
0001ADB8  2100              and [bx+si],ax
0001ADBA  2ED002            rol byte [cs:bp+si],1
0001ADBD  0100              add [bx+si],ax
0001ADBF  27                daa
0001ADC0  D003              rol byte [bp+di],1
0001ADC2  47                inc di
0001ADC3  0021              add [bx+di],ah
0001ADC5  0003              add [bp+di],al
0001ADC7  FFE0              jmp ax
0001ADC9  0008              add [bx+si],cl
0001ADCB  0400              add al,0x0
0001ADCD  A1401A            mov ax,[0x1a40]
0001ADD0  1400              adc al,0x0
0001ADD2  80400F7E          add byte [bx+si+0xf],0x7e
0001ADD6  0180600F          add [bx+si+0xf60],ax
0001ADDA  7E00              jng 0xaddc
0001ADDC  1000              adc [bx+si],al
0001ADDE  01FE              add si,di
0001ADE0  05FFC0            add ax,0xc0ff
0001ADE3  0000              add [bx+si],al
0001ADE5  0000              add [bx+si],al
0001ADE7  0000              add [bx+si],al
0001ADE9  0000              add [bx+si],al
0001ADEB  0000              add [bx+si],al
0001ADED  0000              add [bx+si],al
0001ADEF  0000              add [bx+si],al
0001ADF1  0000              add [bx+si],al
0001ADF3  0000              add [bx+si],al
0001ADF5  0000              add [bx+si],al
0001ADF7  0000              add [bx+si],al
0001ADF9  0000              add [bx+si],al
0001ADFB  0000              add [bx+si],al
0001ADFD  0000              add [bx+si],al
0001ADFF  0000              add [bx+si],al
0001AE01  0000              add [bx+si],al
0001AE03  0000              add [bx+si],al
0001AE05  0000              add [bx+si],al
0001AE07  0000              add [bx+si],al
0001AE09  0000              add [bx+si],al
0001AE0B  0FFC00            paddb mm0,[bx+si]
0001AE0E  0000              add [bx+si],al
0001AE10  0000              add [bx+si],al
0001AE12  0000              add [bx+si],al
0001AE14  0000              add [bx+si],al
0001AE16  0000              add [bx+si],al
0001AE18  0000              add [bx+si],al
0001AE1A  0000              add [bx+si],al
0001AE1C  0000              add [bx+si],al
0001AE1E  0000              add [bx+si],al
0001AE20  0000              add [bx+si],al
0001AE22  0000              add [bx+si],al
0001AE24  0000              add [bx+si],al
0001AE26  0000              add [bx+si],al
0001AE28  0000              add [bx+si],al
0001AE2A  0000              add [bx+si],al
0001AE2C  0000              add [bx+si],al
0001AE2E  0000              add [bx+si],al
0001AE30  0000              add [bx+si],al
0001AE32  0000              add [bx+si],al
0001AE34  0000              add [bx+si],al
0001AE36  0000              add [bx+si],al
0001AE38  0000              add [bx+si],al
0001AE3A  0000              add [bx+si],al
0001AE3C  0000              add [bx+si],al
0001AE3E  0000              add [bx+si],al
0001AE40  0000              add [bx+si],al
0001AE42  0000              add [bx+si],al
0001AE44  0000              add [bx+si],al
0001AE46  0000              add [bx+si],al
0001AE48  0000              add [bx+si],al
0001AE4A  0000              add [bx+si],al
0001AE4C  0000              add [bx+si],al
0001AE4E  0000              add [bx+si],al
0001AE50  0000              add [bx+si],al
0001AE52  0000              add [bx+si],al
0001AE54  0000              add [bx+si],al
0001AE56  0000              add [bx+si],al
0001AE58  0000              add [bx+si],al
0001AE5A  0000              add [bx+si],al
0001AE5C  0000              add [bx+si],al
0001AE5E  0000              add [bx+si],al
0001AE60  0000              add [bx+si],al
0001AE62  0000              add [bx+si],al
0001AE64  0000              add [bx+si],al
0001AE66  0000              add [bx+si],al
0001AE68  0000              add [bx+si],al
0001AE6A  0000              add [bx+si],al
0001AE6C  0000              add [bx+si],al
0001AE6E  0000              add [bx+si],al
0001AE70  0000              add [bx+si],al
0001AE72  0000              add [bx+si],al
0001AE74  0000              add [bx+si],al
0001AE76  0000              add [bx+si],al
0001AE78  0000              add [bx+si],al
0001AE7A  0000              add [bx+si],al
0001AE7C  0000              add [bx+si],al
0001AE7E  0000              add [bx+si],al
0001AE80  0000              add [bx+si],al
0001AE82  0000              add [bx+si],al
0001AE84  0000              add [bx+si],al
0001AE86  0000              add [bx+si],al
0001AE88  0000              add [bx+si],al
0001AE8A  0000              add [bx+si],al
0001AE8C  0000              add [bx+si],al
0001AE8E  0000              add [bx+si],al
0001AE90  0000              add [bx+si],al
0001AE92  0000              add [bx+si],al
0001AE94  0000              add [bx+si],al
0001AE96  0000              add [bx+si],al
0001AE98  0000              add [bx+si],al
0001AE9A  0000              add [bx+si],al
0001AE9C  0000              add [bx+si],al
0001AE9E  0000              add [bx+si],al
0001AEA0  0000              add [bx+si],al
0001AEA2  0000              add [bx+si],al
0001AEA4  0000              add [bx+si],al
0001AEA6  0000              add [bx+si],al
0001AEA8  0000              add [bx+si],al
0001AEAA  0000              add [bx+si],al
0001AEAC  0000              add [bx+si],al
0001AEAE  0000              add [bx+si],al
0001AEB0  0000              add [bx+si],al
0001AEB2  0000              add [bx+si],al
0001AEB4  0000              add [bx+si],al
0001AEB6  0000              add [bx+si],al
0001AEB8  0000              add [bx+si],al
0001AEBA  0000              add [bx+si],al
0001AEBC  0000              add [bx+si],al
0001AEBE  0000              add [bx+si],al
0001AEC0  0000              add [bx+si],al
0001AEC2  0000              add [bx+si],al
0001AEC4  0000              add [bx+si],al
0001AEC6  0000              add [bx+si],al
0001AEC8  0000              add [bx+si],al
0001AECA  0000              add [bx+si],al
0001AECC  0000              add [bx+si],al
0001AECE  0000              add [bx+si],al
0001AED0  0000              add [bx+si],al
0001AED2  0000              add [bx+si],al
0001AED4  0000              add [bx+si],al
0001AED6  0000              add [bx+si],al
0001AED8  0000              add [bx+si],al
0001AEDA  0000              add [bx+si],al
0001AEDC  0000              add [bx+si],al
0001AEDE  0000              add [bx+si],al
0001AEE0  0000              add [bx+si],al
0001AEE2  0000              add [bx+si],al
0001AEE4  0000              add [bx+si],al
0001AEE6  0000              add [bx+si],al
0001AEE8  0000              add [bx+si],al
0001AEEA  0000              add [bx+si],al
0001AEEC  0000              add [bx+si],al
0001AEEE  0000              add [bx+si],al
0001AEF0  0000              add [bx+si],al
0001AEF2  0000              add [bx+si],al
0001AEF4  0000              add [bx+si],al
0001AEF6  0000              add [bx+si],al
0001AEF8  0000              add [bx+si],al
0001AEFA  0000              add [bx+si],al
0001AEFC  0000              add [bx+si],al
0001AEFE  0000              add [bx+si],al
0001AF00  0000              add [bx+si],al
0001AF02  0000              add [bx+si],al
0001AF04  0000              add [bx+si],al
0001AF06  0000              add [bx+si],al
0001AF08  0000              add [bx+si],al
0001AF0A  0000              add [bx+si],al
0001AF0C  0000              add [bx+si],al
0001AF0E  0000              add [bx+si],al
0001AF10  0000              add [bx+si],al
0001AF12  0000              add [bx+si],al
0001AF14  0000              add [bx+si],al
0001AF16  0000              add [bx+si],al
0001AF18  0000              add [bx+si],al
0001AF1A  0000              add [bx+si],al
0001AF1C  0000              add [bx+si],al
0001AF1E  0000              add [bx+si],al
0001AF20  0000              add [bx+si],al
0001AF22  0000              add [bx+si],al
0001AF24  0000              add [bx+si],al
0001AF26  0000              add [bx+si],al
0001AF28  0000              add [bx+si],al
0001AF2A  0000              add [bx+si],al
0001AF2C  0000              add [bx+si],al
0001AF2E  0000              add [bx+si],al
0001AF30  0000              add [bx+si],al
0001AF32  0000              add [bx+si],al
0001AF34  0000              add [bx+si],al
0001AF36  0000              add [bx+si],al
0001AF38  0000              add [bx+si],al
0001AF3A  0000              add [bx+si],al
0001AF3C  0000              add [bx+si],al
0001AF3E  0000              add [bx+si],al
0001AF40  0000              add [bx+si],al
0001AF42  0000              add [bx+si],al
0001AF44  0000              add [bx+si],al
0001AF46  0000              add [bx+si],al
0001AF48  0000              add [bx+si],al
0001AF4A  0000              add [bx+si],al
0001AF4C  0000              add [bx+si],al
0001AF4E  0000              add [bx+si],al
0001AF50  0000              add [bx+si],al
0001AF52  0000              add [bx+si],al
0001AF54  0000              add [bx+si],al
0001AF56  0000              add [bx+si],al
0001AF58  0000              add [bx+si],al
0001AF5A  0000              add [bx+si],al
0001AF5C  0000              add [bx+si],al
0001AF5E  0000              add [bx+si],al
0001AF60  0000              add [bx+si],al
0001AF62  0000              add [bx+si],al
0001AF64  0000              add [bx+si],al
0001AF66  0000              add [bx+si],al
0001AF68  0000              add [bx+si],al
0001AF6A  0000              add [bx+si],al
0001AF6C  0000              add [bx+si],al
0001AF6E  0000              add [bx+si],al
0001AF70  0000              add [bx+si],al
0001AF72  0000              add [bx+si],al
0001AF74  0000              add [bx+si],al
0001AF76  0000              add [bx+si],al
0001AF78  0000              add [bx+si],al
0001AF7A  0000              add [bx+si],al
0001AF7C  0000              add [bx+si],al
0001AF7E  0000              add [bx+si],al
0001AF80  0000              add [bx+si],al
0001AF82  0000              add [bx+si],al
0001AF84  0000              add [bx+si],al
0001AF86  0000              add [bx+si],al
0001AF88  0000              add [bx+si],al
0001AF8A  0000              add [bx+si],al
0001AF8C  0000              add [bx+si],al
0001AF8E  0000              add [bx+si],al
0001AF90  0000              add [bx+si],al
0001AF92  0000              add [bx+si],al
0001AF94  0000              add [bx+si],al
0001AF96  0000              add [bx+si],al
0001AF98  0000              add [bx+si],al
0001AF9A  0000              add [bx+si],al
0001AF9C  0000              add [bx+si],al
0001AF9E  0000              add [bx+si],al
0001AFA0  0000              add [bx+si],al
0001AFA2  0000              add [bx+si],al
0001AFA4  0000              add [bx+si],al
0001AFA6  0000              add [bx+si],al
0001AFA8  0000              add [bx+si],al
0001AFAA  0000              add [bx+si],al
0001AFAC  0000              add [bx+si],al
0001AFAE  0000              add [bx+si],al
0001AFB0  0000              add [bx+si],al
0001AFB2  0000              add [bx+si],al
0001AFB4  0000              add [bx+si],al
0001AFB6  0000              add [bx+si],al
0001AFB8  0000              add [bx+si],al
0001AFBA  0000              add [bx+si],al
0001AFBC  0000              add [bx+si],al
0001AFBE  0000              add [bx+si],al
0001AFC0  0000              add [bx+si],al
0001AFC2  0000              add [bx+si],al
0001AFC4  0000              add [bx+si],al
0001AFC6  0000              add [bx+si],al
0001AFC8  0000              add [bx+si],al
0001AFCA  0000              add [bx+si],al
0001AFCC  0000              add [bx+si],al
0001AFCE  0000              add [bx+si],al
0001AFD0  0000              add [bx+si],al
0001AFD2  0000              add [bx+si],al
0001AFD4  0000              add [bx+si],al
0001AFD6  0000              add [bx+si],al
0001AFD8  0000              add [bx+si],al
0001AFDA  0000              add [bx+si],al
0001AFDC  0000              add [bx+si],al
0001AFDE  0000              add [bx+si],al
0001AFE0  0000              add [bx+si],al
0001AFE2  0000              add [bx+si],al
0001AFE4  0000              add [bx+si],al
0001AFE6  0000              add [bx+si],al
0001AFE8  0000              add [bx+si],al
0001AFEA  0000              add [bx+si],al
0001AFEC  0000              add [bx+si],al
0001AFEE  0000              add [bx+si],al
0001AFF0  0000              add [bx+si],al
0001AFF2  0000              add [bx+si],al
0001AFF4  0000              add [bx+si],al
0001AFF6  0000              add [bx+si],al
0001AFF8  0000              add [bx+si],al
0001AFFA  0000              add [bx+si],al
0001AFFC  0000              add [bx+si],al
0001AFFE  0000              add [bx+si],al
0001B000  0000              add [bx+si],al
0001B002  0000              add [bx+si],al
0001B004  0000              add [bx+si],al
0001B006  0000              add [bx+si],al
0001B008  0000              add [bx+si],al
0001B00A  0000              add [bx+si],al
0001B00C  0000              add [bx+si],al
0001B00E  0000              add [bx+si],al
0001B010  0000              add [bx+si],al
0001B012  0000              add [bx+si],al
0001B014  0000              add [bx+si],al
0001B016  0000              add [bx+si],al
0001B018  0000              add [bx+si],al
0001B01A  0000              add [bx+si],al
0001B01C  0000              add [bx+si],al
0001B01E  0000              add [bx+si],al
0001B020  0000              add [bx+si],al
0001B022  0000              add [bx+si],al
0001B024  0000              add [bx+si],al
0001B026  0000              add [bx+si],al
0001B028  0000              add [bx+si],al
0001B02A  0000              add [bx+si],al
0001B02C  0000              add [bx+si],al
0001B02E  0000              add [bx+si],al
0001B030  0000              add [bx+si],al
0001B032  0000              add [bx+si],al
0001B034  0000              add [bx+si],al
0001B036  0000              add [bx+si],al
0001B038  0000              add [bx+si],al
0001B03A  0000              add [bx+si],al
0001B03C  0000              add [bx+si],al
0001B03E  0000              add [bx+si],al
0001B040  0000              add [bx+si],al
0001B042  0000              add [bx+si],al
0001B044  0000              add [bx+si],al
0001B046  0000              add [bx+si],al
0001B048  0000              add [bx+si],al
0001B04A  0000              add [bx+si],al
0001B04C  0000              add [bx+si],al
0001B04E  0000              add [bx+si],al
0001B050  0000              add [bx+si],al
0001B052  0000              add [bx+si],al
0001B054  0000              add [bx+si],al
0001B056  0000              add [bx+si],al
0001B058  0000              add [bx+si],al
0001B05A  0000              add [bx+si],al
0001B05C  0000              add [bx+si],al
0001B05E  0000              add [bx+si],al
0001B060  0000              add [bx+si],al
0001B062  0000              add [bx+si],al
0001B064  0000              add [bx+si],al
0001B066  0000              add [bx+si],al
0001B068  0000              add [bx+si],al
0001B06A  0000              add [bx+si],al
0001B06C  0000              add [bx+si],al
0001B06E  0000              add [bx+si],al
0001B070  0000              add [bx+si],al
0001B072  0000              add [bx+si],al
0001B074  0000              add [bx+si],al
0001B076  0000              add [bx+si],al
0001B078  0000              add [bx+si],al
0001B07A  0000              add [bx+si],al
0001B07C  0000              add [bx+si],al
0001B07E  0000              add [bx+si],al
0001B080  0000              add [bx+si],al
0001B082  0000              add [bx+si],al
0001B084  0000              add [bx+si],al
0001B086  0000              add [bx+si],al
0001B088  0000              add [bx+si],al
0001B08A  0000              add [bx+si],al
0001B08C  0000              add [bx+si],al
0001B08E  0000              add [bx+si],al
0001B090  0000              add [bx+si],al
0001B092  0000              add [bx+si],al
0001B094  0000              add [bx+si],al
0001B096  0000              add [bx+si],al
0001B098  0000              add [bx+si],al
0001B09A  0000              add [bx+si],al
0001B09C  0000              add [bx+si],al
0001B09E  0000              add [bx+si],al
0001B0A0  0000              add [bx+si],al
0001B0A2  0000              add [bx+si],al
0001B0A4  0000              add [bx+si],al
0001B0A6  0000              add [bx+si],al
0001B0A8  0000              add [bx+si],al
0001B0AA  0000              add [bx+si],al
0001B0AC  0000              add [bx+si],al
0001B0AE  0000              add [bx+si],al
0001B0B0  0000              add [bx+si],al
0001B0B2  0000              add [bx+si],al
0001B0B4  0000              add [bx+si],al
0001B0B6  0000              add [bx+si],al
0001B0B8  0000              add [bx+si],al
0001B0BA  0000              add [bx+si],al
0001B0BC  0000              add [bx+si],al
0001B0BE  0000              add [bx+si],al
0001B0C0  0000              add [bx+si],al
0001B0C2  0000              add [bx+si],al
0001B0C4  0000              add [bx+si],al
0001B0C6  0000              add [bx+si],al
0001B0C8  0000              add [bx+si],al
0001B0CA  0000              add [bx+si],al
0001B0CC  0000              add [bx+si],al
0001B0CE  0000              add [bx+si],al
0001B0D0  0000              add [bx+si],al
0001B0D2  0000              add [bx+si],al
0001B0D4  0000              add [bx+si],al
0001B0D6  0000              add [bx+si],al
0001B0D8  0000              add [bx+si],al
0001B0DA  0000              add [bx+si],al
0001B0DC  0000              add [bx+si],al
0001B0DE  0000              add [bx+si],al
0001B0E0  0000              add [bx+si],al
0001B0E2  0000              add [bx+si],al
0001B0E4  0000              add [bx+si],al
0001B0E6  0000              add [bx+si],al
0001B0E8  0000              add [bx+si],al
0001B0EA  0000              add [bx+si],al
0001B0EC  0000              add [bx+si],al
0001B0EE  0000              add [bx+si],al
0001B0F0  0000              add [bx+si],al
0001B0F2  0000              add [bx+si],al
0001B0F4  0000              add [bx+si],al
0001B0F6  0000              add [bx+si],al
0001B0F8  0000              add [bx+si],al
0001B0FA  0000              add [bx+si],al
0001B0FC  0000              add [bx+si],al
0001B0FE  0000              add [bx+si],al
0001B100  0000              add [bx+si],al
0001B102  0000              add [bx+si],al
0001B104  0000              add [bx+si],al
0001B106  0000              add [bx+si],al
0001B108  0000              add [bx+si],al
0001B10A  0000              add [bx+si],al
0001B10C  0000              add [bx+si],al
0001B10E  0000              add [bx+si],al
0001B110  0000              add [bx+si],al
0001B112  0000              add [bx+si],al
0001B114  0000              add [bx+si],al
0001B116  0000              add [bx+si],al
0001B118  0000              add [bx+si],al
0001B11A  0000              add [bx+si],al
0001B11C  0000              add [bx+si],al
0001B11E  0000              add [bx+si],al
0001B120  0000              add [bx+si],al
0001B122  0000              add [bx+si],al
0001B124  0000              add [bx+si],al
0001B126  0000              add [bx+si],al
0001B128  0000              add [bx+si],al
0001B12A  0000              add [bx+si],al
0001B12C  0000              add [bx+si],al
0001B12E  0000              add [bx+si],al
0001B130  0000              add [bx+si],al
0001B132  0000              add [bx+si],al
0001B134  0000              add [bx+si],al
0001B136  0000              add [bx+si],al
0001B138  0000              add [bx+si],al
0001B13A  0000              add [bx+si],al
0001B13C  0000              add [bx+si],al
0001B13E  0000              add [bx+si],al
0001B140  0000              add [bx+si],al
0001B142  0000              add [bx+si],al
0001B144  0000              add [bx+si],al
0001B146  0000              add [bx+si],al
0001B148  0000              add [bx+si],al
0001B14A  0000              add [bx+si],al
0001B14C  0000              add [bx+si],al
0001B14E  0000              add [bx+si],al
0001B150  0000              add [bx+si],al
0001B152  0000              add [bx+si],al
0001B154  0000              add [bx+si],al
0001B156  0000              add [bx+si],al
0001B158  0000              add [bx+si],al
0001B15A  0000              add [bx+si],al
0001B15C  0000              add [bx+si],al
0001B15E  0000              add [bx+si],al
0001B160  0000              add [bx+si],al
0001B162  0000              add [bx+si],al
0001B164  0000              add [bx+si],al
0001B166  0000              add [bx+si],al
0001B168  0000              add [bx+si],al
0001B16A  0000              add [bx+si],al
0001B16C  0000              add [bx+si],al
0001B16E  0000              add [bx+si],al
0001B170  0000              add [bx+si],al
0001B172  0000              add [bx+si],al
0001B174  0000              add [bx+si],al
0001B176  0000              add [bx+si],al
0001B178  0000              add [bx+si],al
0001B17A  0000              add [bx+si],al
0001B17C  0000              add [bx+si],al
0001B17E  0000              add [bx+si],al
0001B180  0000              add [bx+si],al
0001B182  0000              add [bx+si],al
0001B184  0000              add [bx+si],al
0001B186  0000              add [bx+si],al
0001B188  0000              add [bx+si],al
0001B18A  0000              add [bx+si],al
0001B18C  0000              add [bx+si],al
0001B18E  0000              add [bx+si],al
0001B190  0000              add [bx+si],al
0001B192  0000              add [bx+si],al
0001B194  0000              add [bx+si],al
0001B196  0000              add [bx+si],al
0001B198  0000              add [bx+si],al
0001B19A  0000              add [bx+si],al
0001B19C  0000              add [bx+si],al
0001B19E  0008              add [bx+si],cl
0001B1A0  000A              add [bp+si],cl
0001B1A2  020A              add cl,[bp+si]
0001B1A4  0008              add [bx+si],cl
0001B1A6  0209              add cl,[bx+di]
0001B1A8  0108              add [bx+si],cx
0001B1AA  010A              add [bp+si],cx
0001B1AC  0109              add [bx+di],cx
0001B1AE  0009              add [bx+di],cl
0001B1B0  0203              add al,[bp+di]
0001B1B2  0F1E09            hint_nop49 word [bx+di]
0001B1B5  1203              adc al,[bp+di]
0001B1B7  0902              or [bp+si],ax
0001B1B9  0C05              or al,0x5
0001B1BB  0911              or [bx+di],dx
0001B1BD  07                pop es
0001B1BE  091A              or [bp+si],bx
0001B1C0  0215              add dl,[di]
0001B1C2  0A04              or al,[si]
0001B1C4  0108              add [bx+si],cx
0001B1C6  0B07              or ax,[bx]
0001B1C8  0111              add [bx+di],dx
0001B1CA  0B11              or dx,[bx+di]
0001B1CC  0E                push cs
0001B1CD  140F              adc al,0xf
0001B1CF  0301              add ax,[bx+di]
0001B1D1  090D              or [di],cx
0001B1D3  051231            add ax,0x3112
0001B1D6  3233              xor dh,[bp+di]
0001B1D8  3435              xor al,0x35
0001B1DA  3637              ss aaa
0001B1DC  3839              cmp [bx+di],bh
0001B1DE  3031              xor [bx+di],dh
0001B1E0  3233              xor dh,[bp+di]
0001B1E2  3435              xor al,0x35
0001B1E4  3637              ss aaa
0001B1E6  3839              cmp [bx+di],bh
0001B1E8  3031              xor [bx+di],dh
0001B1EA  3233              xor dh,[bp+di]
0001B1EC  3435              xor al,0x35
0001B1EE  0000              add [bx+si],al
0001B1F0  0000              add [bx+si],al
0001B1F2  0000              add [bx+si],al
0001B1F4  0000              add [bx+si],al
0001B1F6  0000              add [bx+si],al
0001B1F8  0000              add [bx+si],al
0001B1FA  0000              add [bx+si],al
0001B1FC  0000              add [bx+si],al
0001B1FE  0000              add [bx+si],al
0001B200  0000              add [bx+si],al
0001B202  0000              add [bx+si],al
0001B204  0000              add [bx+si],al
0001B206  0000              add [bx+si],al
0001B208  0000              add [bx+si],al
0001B20A  0000              add [bx+si],al
0001B20C  0000              add [bx+si],al
0001B20E  0000              add [bx+si],al
0001B210  0000              add [bx+si],al
0001B212  0000              add [bx+si],al
0001B214  0000              add [bx+si],al
0001B216  0000              add [bx+si],al
0001B218  0004              add [si],al
0001B21A  1205              adc al,[di]
0001B21C  1006120A          adc [0xa12],al
0001B220  100B              adc [bp+di],cl
0001B222  120C              adc cl,[si]
0001B224  100D              adc [di],cl
0001B226  1203              adc al,[bp+di]
0001B228  0D010D            or ax,0xd01
0001B22B  0109              add [bx+di],cx
0001B22D  0107              add [bx],ax
0001B22F  02060307          add al,[0x703]
0001B233  0409              add al,0x9
0001B235  100D              adc [di],cl
0001B237  0D0D0F            or ax,0xf0d
0001B23A  06                push es
0001B23B  1007              adc [bx],al
0001B23D  0C09              or al,0x9
0001B23F  0D080E            or ax,0xe08
0001B242  07                pop es
0001B243  0000              add [bx+si],al
0001B245  0000              add [bx+si],al
0001B247  0000              add [bx+si],al
0001B249  0000              add [bx+si],al
0001B24B  0000              add [bx+si],al
0001B24D  0000              add [bx+si],al
0001B24F  0000              add [bx+si],al
0001B251  0000              add [bx+si],al
0001B253  0000              add [bx+si],al
0001B255  0000              add [bx+si],al
0001B257  0000              add [bx+si],al
0001B259  0000              add [bx+si],al
0001B25B  0000              add [bx+si],al
0001B25D  0000              add [bx+si],al
0001B25F  0000              add [bx+si],al
0001B261  0000              add [bx+si],al
0001B263  0000              add [bx+si],al
0001B265  0000              add [bx+si],al
0001B267  0000              add [bx+si],al
0001B269  0000              add [bx+si],al
0001B26B  0000              add [bx+si],al
0001B26D  0000              add [bx+si],al
0001B26F  0000              add [bx+si],al
0001B271  0000              add [bx+si],al
0001B273  0000              add [bx+si],al
0001B275  0000              add [bx+si],al
0001B277  0000              add [bx+si],al
0001B279  0000              add [bx+si],al
0001B27B  0000              add [bx+si],al
0001B27D  0000              add [bx+si],al
0001B27F  0000              add [bx+si],al
0001B281  0000              add [bx+si],al
0001B283  0000              add [bx+si],al
0001B285  50                push ax
0001B286  3005              xor [di],al
0001B288  0D0610            or ax,0x1006
0001B28B  59                pop cx
0001B28C  660000            o32 add [bx+si],al
0001B28F  52                push dx
0001B290  A05908            mov al,[0x859]
0001B293  0000              add [bx+si],al
0001B295  52                push dx
0001B296  AC                lodsb
0001B297  1A6250            sbb ah,[bp+si+0x50]
0001B29A  1805              sbb [di],al
0001B29C  0D0406            or ax,0x604
0001B29F  59                pop cx
0001B2A0  035980            add bx,[bx+di-0x80]
0001B2A3  52                push dx
0001B2A4  AE                scasb
0001B2A5  59                pop cx
0001B2A6  30802052          xor [bx+si+0x5220],al
0001B2AA  BA3862            mov dx,0x6238
0001B2AD  60                pusha
0001B2AE  28061005          sub [0x510],al
0001B2B2  0D6468            or ax,0x6864
0001B2B5  0000              add [bx+si],al
0001B2B7  04A5              add al,0xa5
0001B2B9  640800            or [fs:bx+si],al
0001B2BC  0054A5            add [si-0x5b],dl
0001B2BF  60                pusha
0001B2C0  6230              bound si,[bx+si]
0001B2C2  260406            es add al,0x6
0001B2C5  050D02            add ax,0x20d
0001B2C8  9C                pushf
0001B2C9  709C              jo 0xb267
0001B2CB  3461              xor al,0x61
0001B2CD  3407              xor al,0x7
0001B2CF  E000              loopne 0xb2d1
0001B2D1  34A4              xor al,0xa4
0001B2D3  866280            xchg [bp+si-0x80],ah
0001B2D6  1E                push ds
0001B2D7  08160409          or [0x904],dl
0001B2DB  027C00            add bh,[si+0x0]
0001B2DE  0002              add [bp+si],al
0001B2E0  AC                lodsb
0001B2E1  4C                dec sp
0001B2E2  7B00              jpo 0xb2e4
0001B2E4  0002              add [bp+si],al
0001B2E6  BAAC62            mov dx,0x62ac
0001B2E9  40                inc ax
0001B2EA  1A05              sbb al,[di]
0001B2EC  0904              or [si],ax
0001B2EE  07                pop es
0001B2EF  037E70            add di,[bp+0x70]
0001B2F2  7E04              jng 0xb2f8
0001B2F4  6B337A            imul si,[bp+di],byte +0x7a
0001B2F7  B000              mov al,0x0
0001B2F9  54                push sp
0001B2FA  6BC962            imul cx,cx,byte +0x62
0001B2FD  90                nop
0001B2FE  180A              sbb [bp+si],cl
0001B300  1A04              sbb al,[si]
0001B302  06                push es
0001B303  026400            add ah,[si+0x0]
0001B306  0002              add [bp+si],al
0001B308  94                xchg ax,sp
0001B309  4C                dec sp
0001B30A  6300              arpl [bx+si],ax
0001B30C  0002              add [bp+si],al
0001B30E  A0EE62            mov al,[0x62ee]
0001B311  4C                dec sp
0001B312  1805              sbb [di],al
0001B314  0D0406            or ax,0x604
0001B317  037670            add si,[bp+0x70]
0001B31A  7604              jna 0xb320
0001B31C  6333              arpl [bp+di],si
0001B31E  72A8              jc 0xb2c8
0001B320  005463            add [si+0x63],dl
0001B323  0B6358            or sp,[bp+di+0x58]
0001B326  2C03              sub al,0x3
0001B328  11060E5F          adc [0x5f0e],ax
0001B32C  5D                pop bp
0001B32D  0000              add [bx+si],al
0001B32F  58                pop ax
0001B330  98                cbw
0001B331  5F                pop di
0001B332  0400              add al,0x0
0001B334  0058A4            add [bx+si-0x5c],bl
0001B337  306330            xor [bp+di+0x30],ah
0001B33A  260406            es add al,0x6
0001B33D  06                push es
0001B33E  0B02              or ax,[bp+si]
0001B340  9C                pushf
0001B341  6C                insb
0001B342  6446              fs inc si
0001B344  A36608            mov [0x866],ax
0001B347  680046            push word 0x4600
0001B34A  AF                scasw
0001B34B  49                dec cx
0001B34C  635024            arpl [bx+si+0x24],dx
0001B34F  0111              add [bx+di],dx
0001B351  010F              add [bx],cx
0001B353  6C                insb
0001B354  8C00              mov [bx+si],es
0001B356  008DA666          add [di+0x66a6],cl
0001B35A  0300              add ax,[bx+si]
0001B35C  006656            add [bp+0x56],ah
0001B35F  6F                outsw
0001B360  63602C            arpl [bx+si+0x2c],sp
0001B363  0113              add [bp+di],dx
0001B365  0114              add [si],dx
0001B367  6C                insb
0001B368  8C00              mov [bx+si],es
0001B36A  008DA666          add [di+0x66a6],cl
0001B36E  0300              add ax,[bx+si]
0001B370  006656            add [bp+0x56],ah
0001B373  6F                outsw
0001B374  634201            arpl [bp+si+0x1],ax
0001B377  6A02              push byte +0x2
0001B379  004201            add [bp+si+0x1],al
0001B37C  6A02              push byte +0x2
0001B37E  5C                pop sp
0001B37F  42                inc dx
0001B380  016A02            add [bp+si+0x2],bp
0001B383  98                cbw
0001B384  42                inc dx
0001B385  016A02            add [bp+si+0x2],bp
0001B388  BEFF00            mov si,0xff
0001B38B  BE4201            mov si,0x142
0001B38E  00BE6A02          add [bp+0x26a],bh
0001B392  FF4201            inc word [bp+si+0x1]
0001B395  6A02              push byte +0x2
0001B397  004201            add [bp+si+0x1],al
0001B39A  6A02              push byte +0x2
0001B39C  2C00              sub al,0x0
0001B39E  004201            add [bp+si+0x1],al
0001B3A1  6442              fs inc dx
0001B3A3  016A02            add [bp+si+0x2],bp
0001B3A6  7E42              jng 0xb3ea
0001B3A8  016A02            add [bp+si+0x2],bp
0001B3AB  AA                stosb
0001B3AC  42                inc dx
0001B3AD  016A02            add [bp+si+0x2],bp
0001B3B0  C6                db 0xc6
0001B3B1  FF00              inc word [bx+si]
0001B3B3  C6420100          mov byte [bp+si+0x1],0x0
0001B3B7  C6                db 0xc6
0001B3B8  6A02              push byte +0x2
0001B3BA  FF82017E          inc word [bp+si+0x7e01]
0001B3BE  0200              add al,[bx+si]
0001B3C0  82                db 0x82
0001B3C1  017E02            add [bp+0x2],di
0001B3C4  60                pusha
0001B3C5  0200              add al,[bx+si]
0001B3C7  7E02              jng 0xb3cb
0001B3C9  A20200            mov [0x2],al
0001B3CC  7E02              jng 0xb3d0
0001B3CE  B2FF              mov dl,0xff
0001B3D0  A2B202            mov [0x2b2],al
0001B3D3  00A2B242          add [bp+si+0x42b2],ah
0001B3D7  0100              add [bx+si],ax
0001B3D9  A28201            mov [0x182],al
0001B3DC  00B27E02          add [bp+si+0x27e],dh
0001B3E0  FFC4              inc sp
0001B3E2  00BC0100          add [si+0x1],bh
0001B3E6  C400              les ax,[bx+si]
0001B3E8  BC0158            mov sp,0x5801
0001B3EB  0000              add [bx+si],al
0001B3ED  7C02              jl 0xb3f1
0001B3EF  9A00007C02        call 0x27c:0x0
0001B3F4  C6                db 0xc6
0001B3F5  FF9AC600          call far [bp+si+0xc6]
0001B3F9  0000              add [bx+si],al
0001B3FB  C6C400            mov ah,0x0
0001B3FE  00C6              add dh,al
0001B400  BC019A            mov sp,0x9a01
0001B403  C6                db 0xc6
0001B404  7C02              jl 0xb408
0001B406  FF00              inc word [bx+si]
0001B408  0018              add [bx+si],bl
0001B40A  027900            add bh,[bx+di+0x0]
0001B40D  002C              add [si],ch
0001B40F  01A70000          add [bx+0x0],sp
0001B413  1802              sbb [bp+si],al
0001B415  C7                db 0xc7
0001B416  FF                db 0xff
0001B417  79C7              jns 0xb3e0
0001B419  0000              add [bx+si],al
0001B41B  79C7              jns 0xb3e4
0001B41D  2C01              sub al,0x1
0001B41F  79C7              jns 0xb3e8
0001B421  1802              sbb [bp+si],al
0001B423  FF00              inc word [bx+si]
0001B425  007C02            add [si+0x2],bh
0001B428  6900007C          imul ax,[bx+si],word 0x7c00
0001B42C  027700            add dh,[bx+0x0]
0001B42F  007C02            add [si+0x2],bh
0001B432  C7                db 0xc7
0001B433  FF69C7            jmp far [bx+di-0x39]
0001B436  0000              add [bx+si],al
0001B438  77C7              ja 0xb401
0001B43A  C8006977          enter 0x6900,0x77
0001B43E  40                inc ax
0001B43F  0177C7            add [bx-0x39],si
0001B442  B80169            mov ax,0x6901
0001B445  C7                db 0xc7
0001B446  7C02              jl 0xb44a
0001B448  FF00              inc word [bx+si]
0001B44A  0018              add [bx+si],bl
0001B44C  026100            add ah,[bx+di+0x0]
0001B44F  002C              add [si],ch
0001B451  018F0000          add [bx+0x0],cx
0001B455  1802              sbb [bp+si],al
0001B457  AF                scasw
0001B458  FF61AF            jmp [bx+di-0x51]
0001B45B  0000              add [bx+si],al
0001B45D  61                popa
0001B45E  AF                scasw
0001B45F  2C01              sub al,0x1
0001B461  61                popa
0001B462  AF                scasw
0001B463  1802              sbb [bp+si],al
0001B465  FF00              inc word [bx+si]
0001B467  007C02            add [si+0x2],bh
0001B46A  61                popa
0001B46B  0000              add [bx+si],al
0001B46D  7C02              jl 0xb471
0001B46F  6F                outsw
0001B470  0000              add [bx+si],al
0001B472  7C02              jl 0xb476
0001B474  BFFF61            mov di,0x61ff
0001B477  BF0000            mov di,0x0
0001B47A  6F                outsw
0001B47B  BFC800            mov di,0xc8
0001B47E  016F40            add [bx+0x40],bp
0001B481  016FBF            add [bx-0x41],bp
0001B484  B80161            mov ax,0x6101
0001B487  BF7C02            mov di,0x27c
0001B48A  FF6201            jmp [bp+si+0x1]
0001B48D  7A02              jpe 0xb491
0001B48F  006201            add [bp+si+0x1],ah
0001B492  7A02              jpe 0xb496
0001B494  54                push sp
0001B495  6201              bound ax,[bx+di]
0001B497  7A02              jpe 0xb49b
0001B499  96                xchg ax,si
0001B49A  FF00              inc word [bx+si]
0001B49C  96                xchg ax,si
0001B49D  6201              bound ax,[bx+di]
0001B49F  00967A02          add [bp+0x27a],dl
0001B4A3  FF94017E          call [si+0x7e01]
0001B4A7  0200              add al,[bx+si]
0001B4A9  96                xchg ax,si
0001B4AA  017C02            add [si+0x2],di
0001B4AD  5B                pop bx
0001B4AE  0000              add [bx+si],al
0001B4B0  7C02              jl 0xb4b4
0001B4B2  99                cwd
0001B4B3  0000              add [bx+si],al
0001B4B5  7C02              jl 0xb4b9
0001B4B7  C7                db 0xc7
0001B4B8  FF99C700          call far [bx+di+0xc7]
0001B4BC  0001              add [bx+di],al
0001B4BE  C7                db 0xc7
0001B4BF  C8000199          enter 0x100,0x99
0001B4C3  94                xchg ax,sp
0001B4C4  0101              add [bx+di],ax
0001B4C6  C7                db 0xc7
0001B4C7  7C02              jl 0xb4cb
0001B4C9  FF00              inc word [bx+si]
0001B4CB  00840100          add [si+0x1],al
0001B4CF  94                xchg ax,sp
0001B4D0  017C02            add [si+0x2],di
0001B4D3  0004              add [si],al
0001B4D5  00800102          add [bx+si+0x201],al
0001B4D9  94                xchg ax,sp
0001B4DA  017C02            add [si+0x2],di
0001B4DD  50                push ax
0001B4DE  94                xchg ax,sp
0001B4DF  017C02            add [si+0x2],di
0001B4E2  54                push sp
0001B4E3  94                xchg ax,sp
0001B4E4  017C02            add [si+0x2],di
0001B4E7  86A4016C          xchg [si+0x6c01],ah
0001B4EB  028A0400          add cl,[bp+si+0x4]
0001B4EF  8001B6            add byte [bx+di],0xb6
0001B4F2  0000              add [bx+si],al
0001B4F4  8401              test [bx+di],al
0001B4F6  B8A401            mov ax,0x1a4
0001B4F9  6C                insb
0001B4FA  02B8FF00          add bh,[bx+si+0xff]
0001B4FE  B80000            mov ax,0x0
0001B501  02B60400          add dh,[bp+0x4]
0001B505  02B61400          add dh,[bp+0x14]
0001B509  02B61800          add dh,[bp+0x18]
0001B50D  02B66C01          add dh,[bp+0x16c]
0001B511  02B67001          add dh,[bp+0x170]
0001B515  02B68001          add dh,[bp+0x180]
0001B519  00B88401          add [bx+si+0x184],bh
0001B51D  005094            add [bx+si-0x6c],dl
0001B520  015486            add [si-0x7a],dx
0001B523  94                xchg ax,sp
0001B524  018AB8A4          add [bp+si-0x5b48],cx
0001B528  0100              add [bx+si],ax
0001B52A  50                push ax
0001B52B  7C02              jl 0xb52f
0001B52D  54                push sp
0001B52E  877C02            xchg [si+0x2],di
0001B531  8AB86C02          mov bh,[bx+si+0x26c]
0001B535  FF12              call [bp+si]
0001B537  1403              adc al,0x3
0001B539  02550C            add dl,[di+0xc]
0001B53C  1E                push ds
0001B53D  0302              add ax,[bp+si]
0001B53F  55                push bp
0001B540  200B              and [bp+di],cl
0001B542  0908              or [bx+si],cx
0001B544  55                push bp
0001B545  180F              sbb [bx],cl
0001B547  050455            add ax,0x5504
0001B54A  1E                push ds
0001B54B  0C01              or al,0x1
0001B54D  005524            add [di+0x24],dl
0001B550  0A07              or al,[bx]
0001B552  06                push es
0001B553  55                push bp
0001B554  1E                push ds
0001B555  0C01              or al,0x1
0001B557  00551E            add [di+0x1e],dl
0001B55A  0C01              or al,0x1
0001B55C  005512            add [di+0x12],dl
0001B55F  1409              adc al,0x9
0001B561  08581E            or [bx+si+0x1e],bl
0001B564  0C01              or al,0x1
0001B566  005820            add [bx+si+0x20],bl
0001B569  0B09              or cx,[bx+di]
0001B56B  08580B            or [bx+si+0xb],bl
0001B56E  2009              and [bx+di],cl
0001B570  08581E            or [bx+si+0x1e],bl
0001B573  0C01              or al,0x1
0001B575  005820            add [bx+si+0x20],bl
0001B578  0B09              or cx,[bx+di]
0001B57A  08580B            or [bx+si+0xb],bl
0001B57D  2009              and [bx+di],cl
0001B57F  085820            or [bx+si+0x20],bl
0001B582  0B09              or cx,[bx+di]
0001B584  085B14            or [bp+di+0x14],bl
0001B587  1205              adc al,[di]
0001B589  046D              add al,0x6d
0001B58B  0C1E              or al,0x1e
0001B58D  0302              add ax,[bp+si]
0001B58F  7220              jc 0xb5b1
0001B591  0B09              or cx,[bx+di]
0001B593  085B15            or [bp+di+0x15],bl
0001B596  1105              adc [di],ax
0001B598  08720C            or [bp+si+0xc],dh
0001B59B  1E                push ds
0001B59C  0902              or [bp+si],ax
0001B59E  5B                pop bx
0001B59F  1E                push ds
0001B5A0  0C01              or al,0x1
0001B5A2  005B14            add [bp+di+0x14],bl
0001B5A5  120A              adc cl,[bp+si]
0001B5A7  0A550A            or dl,[di+0xa]
0001B5AA  240A              and al,0xa
0001B5AC  0A5B0A            or bl,[bp+di+0xa]
0001B5AF  240A              and al,0xa
0001B5B1  0A5B8A            or bl,[bp+di-0x76]
0001B5B4  649C              fs pushf
0001B5B6  64AE              fs scasb
0001B5B8  64BE64CE          fs mov si,0xce64
0001B5BC  64E864FA          fs call 0xb024
0001B5C0  640E              fs push cs
0001B5C2  651E              gs push ds
0001B5C4  652E653E654E      gs dec si
0001B5CA  655E              gs pop si
0001B5CC  656E              gs outsb
0001B5CE  657E65            gs jng 0xb636
0001B5D1  8E65AE            mov fs,[di-0x52]
0001B5D4  65BE65CE          gs mov si,0xce65
0001B5D8  65DE65F2          fisub word [gs:di-0xe]
0001B5DC  65026612          add ah,[gs:bp+0x12]
0001B5E0  661E              o32 push ds
0001B5E2  661E              o32 push ds
0001B5E4  660100            add [bx+si],eax
0001B5E7  010B              add [bp+di],cx
0001B5E9  0112              add [bp+si],dx
0001B5EB  06                push es
0001B5EC  0A09              or cl,[bx+di]
0001B5EE  040E              add al,0xe
0001B5F0  0F1012            movups xmm2,oword [bp+si]
0001B5F3  1103              adc [bp+di],ax
0001B5F5  110A              adc [bp+si],cx
0001B5F7  06                push es
0001B5F8  0100              add [bx+si],ax
0001B5FA  07                pop es
0001B5FB  0B07              or ax,[bx]
0001B5FD  06                push es
0001B5FE  090A              or [bp+si],cx
0001B600  0C02              or al,0x2
0001B602  1108              adc [bx+si],cx
0001B604  1404              adc al,0x4
0001B606  1808              sbb [bx+si],cl
0001B608  1A04              sbb al,[si]
0001B60A  06                push es
0001B60B  07                pop es
0001B60C  0009              add [bx+di],cl
0001B60E  0A0A              or cl,[bp+si]
0001B610  0411              add al,0x11
0001B612  0A160016          or dl,[0x1600]
0001B616  07                pop es
0001B617  1F                pop ds
0001B618  07                pop es
0001B619  040A              add al,0xa
0001B61B  050407            add ax,0x704
0001B61E  0908              or [bx+si],cx
0001B620  020F              add cl,[bx]
0001B622  0410              add al,0x10
0001B624  0912              or [bp+si],dx
0001B626  0413              add al,0x13
0001B628  0A00              or al,[bx+si]
0001B62A  07                pop es
0001B62B  05090B            add ax,0xb09
0001B62E  000B              add [bp+di],cl
0001B630  06                push es
0001B631  1407              adc al,0x7
0001B633  17                pop ss
0001B634  021D              add bl,[di]
0001B636  021D              add bl,[di]
0001B638  0801              or [bx+di],al
0001B63A  0009              add [bx+di],cl
0001B63C  0B11              or dx,[bx+di]
0001B63E  0017              add [bx],dl
0001B640  0818              or [bx+si],bl
0001B642  050508            add ax,0x805
0001B645  06                push es
0001B646  0209              add cl,[bx+di]
0001B648  07                pop es
0001B649  0E                push cs
0001B64A  0011              add [bx+di],dl
0001B64C  06                push es
0001B64D  17                pop ss
0001B64E  021B              add bl,[bp+di]
0001B650  051B09            add ax,0x91b
0001B653  2302              and ax,[bp+si]
0001B655  03060800          add ax,[0x8]
0001B659  080B              or [bp+di],cl
0001B65B  0B04              or ax,[si]
0001B65D  0B07              or ax,[bx]
0001B65F  1204              adc al,[si]
0001B661  1207              adc al,[bx]
0001B663  150015            adc ax,0x1500
0001B666  0B1A              or bx,[bp+si]
0001B668  06                push es
0001B669  01060504          add [0x405],ax
0001B66D  0900              or [bx+si],ax
0001B66F  0F06              clts
0001B671  1101              adc [bx+di],ax
0001B673  07                pop es
0001B674  0A19              or bl,[bx+di]
0001B676  021A              add bl,[bp+si]
0001B678  0A00              or al,[bx+si]
0001B67A  0903              or [bp+di],ax
0001B67C  1305              adc ax,[di]
0001B67E  00060A0B          add [0xb0a],al
0001B682  050B0B            add ax,0xb0b
0001B685  0C11              or al,0x11
0001B687  110B              adc [bp+di],cx
0001B689  0305              add ax,[di]
0001B68B  07                pop es
0001B68C  07                pop es
0001B68D  0E                push cs
0001B68E  040E              add al,0xe
0001B690  07                pop es
0001B691  17                pop ss
0001B692  0017              add [bx],dl
0001B694  0417              add al,0x17
0001B696  07                pop es
0001B697  17                pop ss
0001B698  0B060606          or ax,[0x606]
0001B69C  0A09              or cl,[bx+di]
0001B69E  000E070F          add [0xf07],cl
0001B6A2  0012              add [bp+si],dl
0001B6A4  0A1C              or bl,[si]
0001B6A6  0A1E0200          or bl,[0x2]
0001B6AA  1901              sbb [bx+di],ax
0001B6AC  07                pop es
0001B6AD  0210              add dl,[bx+si]
0001B6AF  06                push es
0001B6B0  0D061A            or ax,0x1a06
0001B6B3  07                pop es
0001B6B4  0008              add [bx+si],cl
0001B6B6  090A              or [bp+si],cx
0001B6B8  16                push ss
0001B6B9  00060904          add [0x409],al
0001B6BD  0D070E            or ax,0xe07
0001B6C0  0314              add dx,[si]
0001B6C2  00160B19          add [0x190b],dl
0001B6C6  031D              add bx,[di]
0001B6C8  07                pop es
0001B6C9  0104              add [si],ax
0001B6CB  0409              add al,0x9
0001B6CD  050509            add ax,0x905
0001B6D0  0209              add cl,[bx+di]
0001B6D2  0912              or [bp+si],dx
0001B6D4  07                pop es
0001B6D5  1802              sbb [bp+si],al
0001B6D7  1F                pop ds
0001B6D8  050005            add ax,0x500
0001B6DB  000F              add [bx],cl
0001B6DD  0318              add bx,[bx+si]
0001B6DF  06                push es
0001B6E0  05060E            add ax,0xe06
0001B6E3  06                push es
0001B6E4  1C0A              sbb al,0xa
0001B6E6  0A0A              or cl,[bp+si]
0001B6E8  1302              adc ax,[bp+si]
0001B6EA  050607            add ax,0x706
0001B6ED  0A00              or al,[bx+si]
0001B6EF  0C0A              or al,0xa
0001B6F1  120A              adc cl,[bp+si]
0001B6F3  1400              adc al,0x0
0001B6F5  1B03              sbb ax,[bp+di]
0001B6F7  1B08              sbb cx,[bx+si]
0001B6F9  0804              or [si],al
0001B6FB  0A060C04          or al,[0x40c]
0001B6FF  0E                push cs
0001B700  06                push es
0001B701  1004              adc [si],al
0001B703  12061404          adc al,[0x414]
0001B707  16                push ss
0001B708  06                push es
0001B709  0205              add al,[di]
0001B70B  020E080D          add cl,[0xd08]
0001B70F  0A05              or al,[di]
0001B711  0C00              or al,0x0
0001B713  0E                push cs
0001B714  0911              or [bx+di],dx
0001B716  0411              add al,0x11
0001B718  0C00              or al,0x0
0001B71A  0C01              or al,0x1
0001B71C  16                push ss
0001B71D  0305              add ax,[di]
0001B71F  051106            add ax,0x611
0001B722  0B08              or cx,[bx+si]
0001B724  0308              add cx,[bx+si]
0001B726  0E                push cs
0001B727  0819              or [bx+di],bl
0001B729  0307              add ax,[bx]
0001B72B  0805              or [di],al
0001B72D  0A05              or al,[di]
0001B72F  0E                push cs
0001B730  0311              add dx,[bx+di]
0001B732  0315              add dx,[di]
0001B734  051705            add ax,0x517
0001B737  1909              sbb [bx+di],cx
0001B739  000B              add [bp+di],cl
0001B73B  02060605          add al,[0x506]
0001B73F  06                push es
0001B740  0A08              or cl,[bx+si]
0001B742  0F0B              ud2
0001B744  0A0E020F          or cl,[0xf02]
0001B748  06                push es
0001B749  1110              adc [bx+si],dx
0001B74B  140B              adc al,0xb
0001B74D  0008              add [bx+si],cl
0001B74F  020F              add cl,[bx]
0001B751  0217              add dl,[bx]
0001B753  041B              add al,0x1b
0001B755  050006            add ax,0x600
0001B758  0C09              or al,0x9
0001B75A  120B              adc cl,[bp+di]
0001B75C  0304              add ax,[si]
0001B75E  0304              add ax,[si]
0001B760  0809              or [bx+di],cl
0001B762  040F              add al,0xf
0001B764  030F              add cx,[bx]
0001B766  0812              or [bp+si],dl
0001B768  051903            add ax,0x319
0001B76B  1908              sbb [bx+si],cx
0001B76D  000E090E          add [0xe09],cl
0001B771  0411              add al,0x11
0001B773  0A02              or al,[bp+si]
0001B775  0A060F04          or al,[0x40f]
0001B779  0023              add [bp+di],ah
0001B77B  52                push dx
0001B77C  6658              pop eax
0001B77E  6662666C          bound esp,[bp+0x6c]
0001B782  667866            o32 js 0xb7eb
0001B785  82                db 0x82
0001B786  668C6694          o32 mov [bp-0x6c],fs
0001B78A  66A066AA          o32 mov al,[0xaa66]
0001B78E  66B666            o32 mov dh,0x66
0001B791  C066C866          shl byte [bp-0x38],byte 0x66
0001B795  D466              aam 0x66
0001B797  DC66E4            fsub qword [bp-0x1c]
0001B79A  66F066F8          lock o32 clc
0001B79E  6600670A          o32 add [bx+0xa],ah
0001B7A2  6712671C          adc ah,[edi+0x1c]
0001B7A6  672467            and al,0x67
0001B7A9  266726670102      add [es:edx],ax
0001B7AF  0907              or [bx],ax
0001B7B1  1004              adc [si],al
0001B7B3  03060806          add ax,[0x608]
0001B7B7  050D04            add ax,0x40d
0001B7BA  16                push ss
0001B7BB  0A18              or bl,[bx+si]
0001B7BD  0301              add ax,[bx+di]
0001B7BF  05050E            add ax,0xe05
0001B7C2  06                push es
0001B7C3  1003              adc [bp+di],al
0001B7C5  1403              adc al,0x3
0001B7C7  01060306          add [0x603],ax
0001B7CB  0408              add al,0x8
0001B7CD  080D              or [di],cl
0001B7CF  1406              adc al,0x6
0001B7D1  16                push ss
0001B7D2  06                push es
0001B7D3  010A              add [bp+si],cx
0001B7D5  0308              add cx,[bx+si]
0001B7D7  0803              or [bp+di],al
0001B7D9  1B02              sbb ax,[bp+si]
0001B7DB  1C06              sbb al,0x6
0001B7DD  0A08              or cl,[bx+si]
0001B7DF  16                push ss
0001B7E0  06                push es
0001B7E1  1B03              sbb ax,[bp+di]
0001B7E3  1C01              sbb al,0x1
0001B7E5  2101              and [bx+di],ax
0001B7E7  0203              add al,[bp+di]
0001B7E9  0901              or [bx+di],ax
0001B7EB  17                pop ss
0001B7EC  051A09            add ax,0x91a
0001B7EF  0208              add cl,[bx+si]
0001B7F1  0B060D08          or ax,[0x80d]
0001B7F5  0E                push cs
0001B7F6  0A1A              or bl,[bp+si]
0001B7F8  011C              add [si],bx
0001B7FA  0A02              or al,[bp+si]
0001B7FC  1102              adc [bp+si],ax
0001B7FE  010D              add [di],cx
0001B800  0209              add cl,[bx+di]
0001B802  06                push es
0001B803  1002              adc [bp+si],al
0001B805  0109              add [bx+di],cx
0001B807  0E                push cs
0001B808  0112              add [bp+si],dx
0001B80A  0212              add dl,[bp+si]
0001B80C  031C              add bx,[si]
0001B80E  091C              or [si],bx
0001B810  0A01              or al,[bx+di]
0001B812  0305              add ax,[di]
0001B814  07                pop es
0001B815  1307              adc ax,[bx]
0001B817  17                pop ss
0001B818  031E0809          add bx,[0x908]
0001B81C  0101              add [bx+di],ax
0001B81E  0105              add [di],ax
0001B820  0B07              or ax,[bx]
0001B822  1804              sbb [si],al
0001B824  08060307          or [0x703],al
0001B828  0812              or [bp+si],dl
0001B82A  0116011C          add [0x1c01],dx
0001B82E  0216010D          add dl,[0xd01]
0001B832  031D              add bx,[di]
0001B834  091A              or [bp+si],bx
0001B836  06                push es
0001B837  051509            add ax,0x915
0001B83A  0209              add cl,[bx+di]
0001B83C  1809              sbb [bx+di],cl
0001B83E  1D0104            sbb ax,0x401
0001B841  01060308          add [0x803],ax
0001B845  0C03              or al,0x3
0001B847  1E                push ds
0001B848  011E0201          add [0x102],bx
0001B84C  0F07              sysret
0001B84E  020B              add cl,[bp+di]
0001B850  0F1102            movups oword [bp+si],xmm0
0001B853  0301              add ax,[bx+di]
0001B855  0109              add [bx+di],cx
0001B857  0A0D              or cl,[di]
0001B859  0118              add [bx+si],bx
0001B85B  0109              add [bx+di],cx
0001B85D  050905            add ax,0x509
0001B860  010B              add [bp+di],cx
0001B862  0110              add [bx+si],dx
0001B864  0101              add [bx+di],ax
0001B866  0101              add [bx+di],ax
0001B868  0F1301            movlps qword [bx+di],xmm0
0001B86B  130F              adc cx,[bx]
0001B86D  0A08              or cl,[bx+si]
0001B86F  0910              or [bx+si],dx
0001B871  0212              add dl,[bp+si]
0001B873  0414              add al,0x14
0001B875  0417              add al,0x17
0001B877  0104              add [si],ax
0001B879  0406              add al,0x6
0001B87B  1C02              sbb al,0x2
0001B87D  1C09              sbb al,0x9
0001B87F  1208              adc cl,[bx+si]
0001B881  0123              add [bp+di],sp
0001B883  5A                pop dx
0001B884  675C              a32 pop sp
0001B886  6766677067        o32 jo 0xb8f2
0001B88B  7C67              jl 0xb8f4
0001B88D  866790            xchg [bx-0x70],ah
0001B890  6798              a32 cbw
0001B892  67A4              a32 movsb
0001B894  67AE              a32 scasb
0001B896  67BA67C4          mov dx,0xc467
0001B89A  67CC              a32 int3
0001B89C  67D867E0          fsub dword [edi-0x20]
0001B8A0  67E867F4          call 0xad0b
0001B8A4  67FC              a32 cld
0001B8A6  670468            add al,0x68
0001B8A9  106818            adc [bx+si+0x18],ch
0001B8AC  682268            push word 0x6822
0001B8AF  2A682C            sub ch,[bx+si+0x2c]
0001B8B2  682C68            push word 0x682c
0001B8B5  080A              or [bp+si],cl
0001B8B7  011C              add [si],bx
0001B8B9  07                pop es
0001B8BA  0C01              or al,0x1
0001B8BC  1B061701          sbb ax,[0x117]
0001B8C0  1A1E031D          sbb bl,[0x1d03]
0001B8C4  031C              add bx,[si]
0001B8C6  031B              add bx,[bp+di]
0001B8C8  031B              add bx,[bp+di]
0001B8CA  0410              add al,0x10
0001B8CC  0D0F0D            or ax,0xd0f
0001B8CF  05020B            add ax,0xb02
0001B8D2  06                push es
0001B8D3  0C0C              or al,0xc
0001B8D5  130C              adc cx,[si]
0001B8D7  1105              adc [di],ax
0001B8D9  0F0310            lsl dx,[bx+si]
0001B8DC  050506            add ax,0x605
0001B8DF  0F05              syscall
0001B8E1  2205              and al,[di]
0001B8E3  1305              adc ax,[di]
0001B8E5  0E                push cs
0001B8E6  031A              add bx,[bp+si]
0001B8E8  06                push es
0001B8E9  1E                push ds
0001B8EA  07                pop es
0001B8EB  010A              add [bp+si],cx
0001B8ED  020A              add cl,[bp+si]
0001B8EF  030A              add cx,[bp+si]
0001B8F1  040A              add al,0xa
0001B8F3  0B00              or ax,[bx+si]
0001B8F5  0401              add al,0x1
0001B8F7  1104              adc [si],ax
0001B8F9  0807              or [bx],al
0001B8FB  0102              add [bp+si],ax
0001B8FD  0305              add ax,[di]
0001B8FF  06                push es
0001B900  1207              adc al,[bx]
0001B902  1208              adc cl,[bx+si]
0001B904  1209              adc cl,[bx+di]
0001B906  120A              adc cl,[bp+si]
0001B908  1201              adc al,[bx+di]
0001B90A  0113              add [bp+di],dx
0001B90C  07                pop es
0001B90D  06                push es
0001B90E  0107              add [bx],ax
0001B910  041B              add al,0x1b
0001B912  0401              add al,0x1
0001B914  0201              add al,[bx+di]
0001B916  0901              or [bx+di],ax
0001B918  0817              or [bx],dl
0001B91A  07                pop es
0001B91B  0107              add [bx],ax
0001B91D  0106011E          add [0x1e01],ax
0001B921  021E031E          add bl,[0x1e03]
0001B925  031D              add bx,[di]
0001B927  120A              adc cl,[bp+si]
0001B929  1105              adc [di],ax
0001B92B  130A              adc cx,[bp+si]
0001B92D  1B03              sbb ax,[bp+di]
0001B92F  1205              adc al,[di]
0001B931  140A              adc al,0xa
0001B933  0109              add [bx+di],cx
0001B935  1909              sbb [bx+di],cx
0001B937  0E                push cs
0001B938  050108            add ax,0x801
0001B93B  031E0314          add bx,[0x1403]
0001B93F  030C              add cx,[si]
0001B941  03161709          add dx,[0x917]
0001B945  1809              sbb [bx+di],cl
0001B947  05011C            add ax,0x1c01
0001B94A  06                push es
0001B94B  06                push es
0001B94C  051808            add ax,0x818
0001B94F  0809              or [bx+di],cl
0001B951  07                pop es
0001B952  0907              or [bx],ax
0001B954  08060804          or [0x408],al
0001B958  1C03              sbb al,0x3
0001B95A  1C02              sbb al,0x2
0001B95C  1C01              sbb al,0x1
0001B95E  1C1A              sbb al,0x1a
0001B960  07                pop es
0001B961  1307              adc ax,[bx]
0001B963  0C07              or al,0x7
0001B965  1C05              sbb al,0x5
0001B967  1903              sbb [bp+di],ax
0001B969  06                push es
0001B96A  0309              add cx,[bx+di]
0001B96C  0809              or [bx+di],cl
0001B96E  07                pop es
0001B96F  0A07              or al,[bx]
0001B971  0B07              or ax,[bx]
0001B973  07                pop es
0001B974  0108              add [bx+si],cx
0001B976  17                pop ss
0001B977  020B              add cl,[bp+di]
0001B979  0801              or [bx+di],al
0001B97B  07                pop es
0001B97C  051C06            add ax,0x61c
0001B97F  0D0615            or ax,0x1506
0001B982  07                pop es
0001B983  1303              adc ax,[bp+di]
0001B985  0C05              or al,0x5
0001B987  0223              add ah,[bp+di]
0001B989  60                pusha
0001B98A  686668            push word 0x6866
0001B98D  7468              jz 0xb9f7
0001B98F  7E68              jng 0xb9f9
0001B991  8C6898            mov [bx+si-0x68],gs
0001B994  68A668            push word 0x68a6
0001B997  B668              mov dh,0x68
0001B999  C468D2            les bp,[bx+si-0x2e]
0001B99C  68DE68            push word 0x68de
0001B99F  EE                out dx,al
0001B9A0  68FA68            push word 0x68fa
0001B9A3  0A6918            or ch,[bx+di+0x18]
0001B9A6  69286938          imul bp,[bx+si],word 0x3869
0001B9AA  6944695069        imul ax,[si+0x69],word 0x6950
0001B9AF  5C                pop sp
0001B9B0  696C697C69        imul bp,[si+0x69],word 0x697c
0001B9B5  8A6994            mov ch,[bx+di-0x6c]
0001B9B8  699469010209      imul dx,[si+0x169],word 0x902
0001B9BE  07                pop es
0001B9BF  1004              adc [si],al
0001B9C1  0A03              or al,[bp+di]
0001B9C3  06                push es
0001B9C4  06                push es
0001B9C5  020A              add cl,[bp+si]
0001B9C7  010D              add [di],cx
0001B9C9  0A0F              or cl,[bx]
0001B9CB  051205            add ax,0x512
0001B9CE  1B01              sbb ax,[bx+di]
0001B9D0  0302              add ax,[bp+si]
0001B9D2  07                pop es
0001B9D3  0A061505          or al,[0x515]
0001B9D7  1E                push ds
0001B9D8  0101              add [bx+di],ax
0001B9DA  0101              add [bx+di],ax
0001B9DC  0D0706            or ax,0x607
0001B9DF  0F0B              ud2
0001B9E1  1308              adc cx,[bx+si]
0001B9E3  16                push ss
0001B9E4  01160D02          add [0x20d],dx
0001B9E8  0403              add al,0x3
0001B9EA  0A09              or cl,[bx+di]
0001B9EC  07                pop es
0001B9ED  1107              adc [bx],ax
0001B9EF  150318            adc ax,0x1803
0001B9F2  0A07              or al,[bx]
0001B9F4  050801            add ax,0x108
0001B9F7  0C08              or al,0x8
0001B9F9  17                pop ss
0001B9FA  07                pop es
0001B9FB  1908              sbb [bx+si],cx
0001B9FD  1D0221            sbb ax,0x2102
0001BA00  0301              add ax,[bx+di]
0001BA02  06                push es
0001BA03  050109            add ax,0x901
0001BA06  0A060513          or al,[0x1305]
0001BA0A  0817              or [bx],dl
0001BA0C  0118              add [bx+si],bx
0001BA0E  0A1C              or bl,[si]
0001BA10  06                push es
0001BA11  0207              add al,[bx]
0001BA13  0804              or [si],al
0001BA15  0D010D            or ax,0xd01
0001BA18  0910              or [bx+si],dx
0001BA1A  0817              or [bx],dl
0001BA1C  0A1B              or bl,[bp+di]
0001BA1E  0401              add al,0x1
0001BA20  0B060608          or ax,[0x806]
0001BA24  0A0E110C          or cl,[0xc11]
0001BA28  07                pop es
0001BA29  1005              adc [di],al
0001BA2B  1009              adc [bx+di],cl
0001BA2D  0407              add al,0x7
0001BA2F  0E                push cs
0001BA30  0A12              or dl,[bp+si]
0001BA32  0112              add [bp+si],dx
0001BA34  0A1C              or bl,[si]
0001BA36  011C              add [si],bx
0001BA38  0807              or [bx],al
0001BA3A  0307              add ax,[bx]
0001BA3C  07                pop es
0001BA3D  0B01              or ax,[bx+di]
0001BA3F  0B09              or cx,[bx+di]
0001BA41  0D0111            or ax,0x1101
0001BA44  0311              add dx,[bx+di]
0001BA46  07                pop es
0001BA47  1E                push ds
0001BA48  0403              add al,0x3
0001BA4A  0405              add al,0x5
0001BA4C  07                pop es
0001BA4D  0311              add dx,[bx+di]
0001BA4F  051103            add ax,0x311
0001BA52  1905              sbb [di],ax
0001BA54  1E                push ds
0001BA55  06                push es
0001BA56  06                push es
0001BA57  0B03              or ax,[bp+di]
0001BA59  0B09              or cx,[bx+di]
0001BA5B  180A              sbb [bp+si],cl
0001BA5D  1203              adc al,[bp+di]
0001BA5F  180A              sbb [bp+si],cl
0001BA61  1B08              sbb cx,[bx+si]
0001BA63  1802              sbb [bp+si],al
0001BA65  0301              add ax,[bx+di]
0001BA67  09060E02          or [0x20e],ax
0001BA6B  0E                push cs
0001BA6C  07                pop es
0001BA6D  1404              adc al,0x4
0001BA6F  16                push ss
0001BA70  091E0401          or [0x104],bx
0001BA74  1202              adc al,[bp+si]
0001BA76  1A03              sbb al,[bp+di]
0001BA78  06                push es
0001BA79  041C              add al,0x1c
0001BA7B  051008            add ax,0x810
0001BA7E  0308              add cx,[bx+si]
0001BA80  1D0919            sbb ax,0x1909
0001BA83  0301              add ax,[bx+di]
0001BA85  0803              or [bp+di],al
0001BA87  0B08              or cx,[bx+si]
0001BA89  0E                push cs
0001BA8A  051207            add ax,0x712
0001BA8D  1302              adc ax,[bp+si]
0001BA8F  1902              sbb [bp+si],ax
0001BA91  1E                push ds
0001BA92  0901              or [bx+di],ax
0001BA94  0105              add [di],ax
0001BA96  0406              add al,0x6
0001BA98  100E0C12          adc [0x120c],cl
0001BA9C  0312              add dx,[bp+si]
0001BA9E  07                pop es
0001BA9F  0101              add [bx+di],ax
0001BAA1  0A09              or cl,[bx+di]
0001BAA3  0813              or [bp+di],dl
0001BAA5  07                pop es
0001BAA6  150618            adc ax,0x1806
0001BAA9  0A1C              or bl,[si]
0001BAAB  0101              add [bx+di],ax
0001BAAD  0309              add cx,[bx+di]
0001BAAF  07                pop es
0001BAB0  0914              or [si],dx
0001BAB2  091E011E          or [0x1e01],bx
0001BAB6  0901              or [bx+di],ax
0001BAB8  0D0303            or ax,0x303
0001BABB  050F06            add ax,0x60f
0001BABE  010F              add [bx],cx
0001BAC0  0A11              or dl,[bx+di]
0001BAC2  0113              add [bp+di],dx
0001BAC4  0413              add al,0x13
0001BAC6  06                push es
0001BAC7  0A02              or al,[bp+si]
0001BAC9  0103              add [bp+di],ax
0001BACB  080B              or [bp+di],cl
0001BACD  07                pop es
0001BACE  0E                push cs
0001BACF  0A15              or dl,[di]
0001BAD1  0116051A          add [0x1a05],dx
0001BAD5  031C              add bx,[si]
0001BAD7  0107              add [bx],ax
0001BAD9  07                pop es
0001BADA  050D01            add ax,0x10d
0001BADD  0D0A15            or ax,0x150a
0001BAE0  01160A1A          add [0x1a0a],dx
0001BAE4  040A              add al,0xa
0001BAE6  0C0D              or al,0xd
0001BAE8  010F              add [bx],cx
0001BAEA  0B10              or dx,[bx+si]
0001BAEC  1012              adc [bp+si],dl
0001BAEE  0400              add al,0x0
0001BAF0  0305              add ax,[di]
0001BAF2  010D              add [di],cx
0001BAF4  0101              add [bx+di],ax
0001BAF6  010A              add [bp+si],cx
0001BAF8  010E0905          add [0x509],cx
0001BAFC  090B              or [bp+di],cx
0001BAFE  010C              add [si],cx
0001BB00  040D              add al,0xd
0001BB02  050B0A            add ax,0xa0b
0001BB05  0102              add [bp+si],ax
0001BB07  01060E03          add [0x30e],ax
0001BB0B  0F08              invd
0001BB0D  1A061606          sbb al,[0x616]
0001BB11  0C0E              or al,0xe
0001BB13  06                push es
0001BB14  0D0106            or ax,0x601
0001BB17  05041B            add ax,0x1b04
0001BB1A  021B              add bl,[bp+di]
0001BB1C  05090F            add ax,0xf09
0001BB1F  030D              add cx,[di]
0001BB21  0103              add [bp+di],ax
0001BB23  0208              add cl,[bx+si]
0001BB25  0407              add al,0x7
0001BB27  0804              or [si],al
0001BB29  0204              add al,[si]
0001BB2B  0404              add al,0x4
0001BB2D  0101              add [bx+di],ax
0001BB2F  0204              add al,[si]
0001BB31  0A0C              or cl,[si]
0001BB33  09060A0B          or [0xb0a],ax
0001BB37  010F              add [bx],cx
0001BB39  050501            add ax,0x105
0001BB3C  05090B            add ax,0xb09
0001BB3F  0A05              or al,[di]
0001BB41  0B19              or bx,[bx+di]
0001BB43  0B1C              or bx,[si]
0001BB45  07                pop es
0001BB46  0307              add ax,[bx]
0001BB48  0804              or [si],al
0001BB4A  0204              add al,[si]
0001BB4C  0209              add cl,[bx+di]
0001BB4E  0109              add [bx+di],cx
0001BB50  0109              add [bx+di],cx
0001BB52  0109              add [bx+di],cx
0001BB54  017404            add [si+0x4],si
0001BB57  1305              adc ax,[di]
0001BB59  0F06              clts
0001BB5B  130A              adc cx,[bp+si]
0001BB5D  0F0B              ud2
0001BB5F  130C              adc cx,[si]
0001BB61  0F0D13            prefetchwt1 byte [bp+di]
0001BB64  7504              jnz 0xbb6a
0001BB66  0D000D            or ax,0xd00
0001BB69  0009              add [bx+di],cl
0001BB6B  0007              add [bx],al
0001BB6D  0205              add al,[di]
0001BB6F  0407              add al,0x7
0001BB71  050976            add ax,0x7609
0001BB74  110D              adc [di],cx
0001BB76  0C0D              or al,0xd
0001BB78  0F05              syscall
0001BB7A  1107              adc [bx],ax
0001BB7C  0B09              or cx,[bx+di]
0001BB7E  0D0758            or ax,0x5807
0001BB81  0006000A          add [0xa00],al
0001BB85  000C              add [si],cl
0001BB87  010E0305          add [0x503],cx
0001BB8B  0308              add cx,[bx+si]
0001BB8D  0408              add al,0x8
0001BB8F  040A              add al,0xa
0001BB91  07                pop es
0001BB92  0A5900            or bl,[bx+di+0x0]
0001BB95  0800              or [bx+si],al
0001BB97  0B01              or ax,[bx+di]
0001BB99  05010C            add ax,0xc01
0001BB9C  0306030C          add ax,[0xc03]
0001BBA0  040E              add al,0xe
0001BBA2  050805            add ax,0x508
0001BBA5  0A06095A          or al,[0x5a09]
0001BBA9  000E0106          add [0x601],cl
0001BBAD  0108              add [bx+si],cx
0001BBAF  010A              add [bp+si],cx
0001BBB1  030A              add cx,[bp+si]
0001BBB3  030E0406          add cx,[0x604]
0001BBB7  040C              add al,0xc
0001BBB9  07                pop es
0001BBBA  095B09            or [bp+di+0x9],bx
0001BBBD  0A0E0510          or cl,[0x1005]
0001BBC1  051105            add ax,0x511
0001BBC4  0D060E            or ax,0xe06
0001BBC7  06                push es
0001BBC8  10061106          adc [0x611],al
0001BBCC  0C07              or al,0x7
0001BBCE  0B08              or cx,[bx+si]
0001BBD0  0C08              or al,0x8
0001BBD2  0E                push cs
0001BBD3  0810              or [bx+si],dl
0001BBD5  0811              or [bx+di],dl
0001BBD7  080A              or [bp+si],cl
0001BBD9  0910              or [bx+si],dx
0001BBDB  0911              or [bx+di],dx
0001BBDD  090A              or [bp+si],cx
0001BBDF  0A0B              or cl,[bp+di]
0001BBE1  0A0C              or cl,[si]
0001BBE3  0A0D              or cl,[di]
0001BBE5  0A0F              or cl,[bx]
0001BBE7  0B10              or dx,[bx+si]
0001BBE9  0B11              or dx,[bx+di]
0001BBEB  0B0C              or cx,[si]
0001BBED  0C0D              or al,0xd
0001BBEF  0C10              or al,0x10
0001BBF1  0C11              or al,0x11
0001BBF3  0C0C              or al,0xc
0001BBF5  0E                push cs
0001BBF6  0D0E0E            or ax,0xe0e
0001BBF9  0E                push cs
0001BBFA  100E110E          adc [0xe11],cl
0001BBFE  0F                db 0x0f
0001BBFF  0468              add al,0x68
0001BC01  0400              add al,0x0
0001BC03  0C00              or al,0x0
0001BC05  6208              bound cx,[bx+si]
0001BC07  051000            add ax,0x10
0001BC0A  06                push es
0001BC0B  0C09              or al,0x9
0001BC0D  0C66              or al,0x66
0001BC0F  0002              add [bp+si],al
0001BC11  0103              add [bp+di],ax
0001BC13  0301              add ax,[bx+di]
0001BC15  050606            add ax,0x606
0001BC18  07                pop es
0001BC19  5C                pop sp
0001BC1A  0001              add [bx+di],al
0001BC1C  1102              adc [bp+si],ax
0001BC1E  1104              adc [si],ax
0001BC20  07                pop es
0001BC21  0007              add [bx],al
0001BC23  0107              add [bx],ax
0001BC25  020B              add cl,[bp+di]
0001BC27  000B              add [bp+di],cl
0001BC29  010B              add [bp+di],cx
0001BC2B  025D03            add bl,[di+0x3]
0001BC2E  000F              add [bx],cl
0001BC30  006C08            add [si+0x8],ch
0001BC33  0008              add [bx+si],cl
0001BC35  0108              add [bx+si],cx
0001BC37  0209              add cl,[bx+di]
0001BC39  0009              add [bx+di],cl
0001BC3B  0109              add [bx+di],cx
0001BC3D  020A              add cl,[bp+si]
0001BC3F  000A              add [bp+si],cl
0001BC41  010A              add [bp+si],cx
0001BC43  024002            add al,[bx+si+0x2]
0001BC46  0306031A          add ax,[0x1a03]
0001BC4A  C0574553          rcl byte [bx+0x45],byte 0x53
0001BC4E  54                push sp
0001BC4F  037CB0            add di,[si-0x50]
0001BC52  53                push bx
0001BC53  50                push ax
0001BC54  41                inc cx
0001BC55  43                inc bx
0001BC56  45                inc bp
0001BC57  043D              add al,0x3d
0001BC59  0020              add [bx+si],ah
0001BC5B  014641            add [bp+0x41],ax
0001BC5E  4E                dec si
0001BC5F  54                push sp
0001BC60  41                inc cx
0001BC61  53                push bx
0001BC62  59                pop cx
0001BC63  034030            add ax,[bx+si+0x30]
0001BC66  2020              and [bx+si],ah
0001BC68  2020              and [bx+si],ah
0001BC6A  2020              and [bx+si],ah
0001BC6C  2020              and [bx+si],ah
0001BC6E  034031            add ax,[bx+si+0x31]
0001BC71  54                push sp
0001BC72  52                push dx
0001BC73  45                inc bp
0001BC74  41                inc cx
0001BC75  53                push bx
0001BC76  55                push bp
0001BC77  52                push dx
0001BC78  59                pop cx
0001BC79  005448            add [si+0x48],dl
0001BC7C  45                inc bp
0001BC7D  205449            and [si+0x49],dl
0001BC80  4D                dec bp
0001BC81  45                inc bp
0001BC82  47                inc di
0001BC83  41                inc cx
0001BC84  54                push sp
0001BC85  45                inc bp
0001BC86  53                push bx
0001BC87  007301            add [bp+di+0x1],dh
0001BC8A  1D5C00            sbb ax,0x5c
0001BC8D  010B              add [bp+di],cx
0001BC8F  014000            add [bx+si+0x0],ax
0001BC92  48                dec ax
0001BC93  41                inc cx
0001BC94  4C                dec sp
0001BC95  4C                dec sp
0001BC96  53                push bx
0001BC97  204F46            and [bx+0x46],cl
0001BC9A  20444F            and [si+0x4f],al
0001BC9D  4F                dec di
0001BC9E  4D                dec bp
0001BC9F  00731F            add [bp+di+0x1f],dh
0001BCA2  035D05            add bx,[di+0x5]
0001BCA5  0A0E0A52          or cl,[0x520a]
0001BCA9  17                pop ss
0001BCAA  0440              add al,0x40
0001BCAC  00424C            add [bp+si+0x4c],al
0001BCAF  41                inc cx
0001BCB0  43                inc bx
0001BCB1  4B                dec bx
0001BCB2  204455            and [si+0x55],al
0001BCB5  4E                dec si
0001BCB6  47                inc di
0001BCB7  45                inc bp
0001BCB8  4F                dec di
0001BCB9  4E                dec si
0001BCBA  005104            add [bx+di+0x4],dl
0001BCBD  0C73              or al,0x73
0001BCBF  100E5312          adc [0x1253],cl
0001BCC3  025D0B            add bl,[di+0xb]
0001BCC6  000C              add [si],cl
0001BCC8  006209            add [bp+si+0x9],ah
0001BCCB  090A              or [bp+si],cx
0001BCCD  0C0C              or al,0xc
0001BCCF  080D              or [di],cl
0001BCD1  0B4000            or ax,[bx+si+0x0]
0001BCD4  43                inc bx
0001BCD5  41                inc cx
0001BCD6  53                push bx
0001BCD7  54                push sp
0001BCD8  4C                dec sp
0001BCD9  45                inc bp
0001BCDA  204752            and [bx+0x52],al
0001BCDD  45                inc bp
0001BCDE  59                pop cx
0001BCDF  4D                dec bp
0001BCE0  4F                dec di
0001BCE1  4F                dec di
0001BCE2  4E                dec si
0001BCE3  005105            add [bx+di+0x5],dl
0001BCE6  02530B            add dl,[bp+di+0xb]
0001BCE9  040F              add al,0xf
0001BCEB  0A500E            or dl,[bx+si+0xe]
0001BCEE  087312            or [bp+di+0x12],dh
0001BCF1  054000            add ax,0x40
0001BCF4  4D                dec bp
0001BCF5  59                pop cx
0001BCF6  53                push bx
0001BCF7  54                push sp
0001BCF8  49                dec cx
0001BCF9  43                inc bx
0001BCFA  204D41            and [di+0x41],cl
0001BCFD  5A                pop dx
0001BCFE  45                inc bp
0001BCFF  007323            add [bp+di+0x23],dh
0001BD02  055C00            add ax,0x5c
0001BD05  0200              add al,[bx+si]
0001BD07  06                push es
0001BD08  40                inc ax
0001BD09  004348            add [bp+di+0x48],al
0001BD0C  41                inc cx
0001BD0D  4F                dec di
0001BD0E  53                push bx
0001BD0F  204341            and [bp+di+0x41],al
0001BD12  56                push si
0001BD13  45                inc bp
0001BD14  52                push dx
0001BD15  4E                dec si
0001BD16  53                push bx
0001BD17  007301            add [bp+di+0x1],dh
0001BD1A  0B5D0D            or bx,[di+0xd]
0001BD1D  000E000F          add [0xf00],cl
0001BD21  0010              add [bx+si],dl
0001BD23  000D              add [di],cl
0001BD25  0B0E0B0F          or cx,[0xf0b]
0001BD29  0B10              or dx,[bx+si]
0001BD2B  0B0E020F          or cx,[0xf02]
0001BD2F  020E090F          add cl,[0xf09]
0001BD33  094000            or [bx+si+0x0],ax
0001BD36  55                push bp
0001BD37  4E                dec si
0001BD38  44                inc sp
0001BD39  45                inc bp
0001BD3A  52                push dx
0001BD3B  57                push di
0001BD3C  4F                dec di
0001BD3D  52                push dx
0001BD3E  4C                dec sp
0001BD3F  44                inc sp
0001BD40  204152            and [bx+di+0x52],al
0001BD43  45                inc bp
0001BD44  4E                dec si
0001BD45  41                inc cx
0001BD46  007305            add [bp+di+0x5],dh
0001BD49  005D01            add [di+0x1],bl
0001BD4C  0002              add [bp+si],al
0001BD4E  0003              add [bp+di],al
0001BD50  000D              add [di],cl
0001BD52  0012              add [bp+si],dl
0001BD54  0013              add [bp+di],dl
0001BD56  0014              add [si],dl
0001BD58  001A              add [bp+si],bl
0001BD5A  001C              add [si],bl
0001BD5C  000F              add [bx],cl
0001BD5E  0210              add dl,[bx+si]
0001BD60  020B              add cl,[bp+di]
0001BD62  050D05            add ax,0x50d
0001BD65  0E                push cs
0001BD66  050F05            add ax,0x50f
0001BD69  07                pop es
0001BD6A  0008              add [bx+si],cl
0001BD6C  0010              add [bx+si],dl
0001BD6E  050309            add ax,0x903
0001BD71  010B              add [bp+di],cx
0001BD73  020B              add cl,[bp+di]
0001BD75  040B              add al,0xb
0001BD77  050B06            add ax,0x60b
0001BD7A  0B08              or cx,[bx+si]
0001BD7C  0B09              or cx,[bx+di]
0001BD7E  0B0F              or cx,[bx]
0001BD80  0B10              or dx,[bx+si]
0001BD82  0B11              or dx,[bx+di]
0001BD84  0B12              or dx,[bp+si]
0001BD86  0B18              or bx,[bx+si]
0001BD88  0B19              or bx,[bx+di]
0001BD8A  0B1B              or bx,[bp+di]
0001BD8C  0B1C              or bx,[si]
0001BD8E  0B5C00            or bx,[si+0x0]
0001BD91  0100              add [bx+si],ax
0001BD93  07                pop es
0001BD94  0008              add [bx+si],cl
0001BD96  0009              add [bx+di],cl
0001BD98  000A              add [bp+si],cl
0001BD9A  0A01              or al,[bx+di]
0001BD9C  0C06              or al,0x6
0001BD9E  0E                push cs
0001BD9F  0119              add [bx+di],bx
0001BDA1  011D              add [di],bx
0001BDA3  011D              add [di],bx
0001BDA5  021D              add bl,[di]
0001BDA7  031D              add bx,[di]
0001BDA9  051D06            add ax,0x61d
0001BDAC  1D081D            sbb ax,0x1d08
0001BDAF  091D              or [di],bx
0001BDB1  0A5E19            or bl,[bp+0x19]
0001BDB4  056200            add ax,0x62
0001BDB7  0403              add al,0x3
0001BDB9  0303              add ax,[bp+di]
0001BDBB  07                pop es
0001BDBC  06                push es
0001BDBD  0407              add al,0x7
0001BDBF  0808              or [bx+si],cl
0001BDC1  050B08            add ax,0x80b
0001BDC4  0C0A              or al,0xa
0001BDC6  0D060F            or ax,0xf06
0001BDC9  0010              add [bx+si],dl
0001BDCB  06                push es
0001BDCC  1108              adc [bx+si],cx
0001BDCE  1304              adc ax,[si]
0001BDD0  1307              adc ax,[bx]
0001BDD2  1401              adc al,0x1
0001BDD4  140A              adc al,0xa
0001BDD6  16                push ss
0001BDD7  0416              add al,0x16
0001BDD9  07                pop es
0001BDDA  17                pop ss
0001BDDB  0019              add [bx+di],bl
0001BDDD  0319              add bx,[bx+di]
0001BDDF  084000            or [bx+si+0x0],al
0001BDE2  46                inc si
0001BDE3  4F                dec di
0001BDE4  52                push dx
0001BDE5  47                inc di
0001BDE6  4F                dec di
0001BDE7  54                push sp
0001BDE8  54                push sp
0001BDE9  45                inc bp
0001BDEA  4E                dec si
0001BDEB  205255            and [bp+si+0x55],dl
0001BDEE  49                dec cx
0001BDEF  4E                dec si
0001BDF0  53                push bx
0001BDF1  007306            add [bp+di+0x6],dh
0001BDF4  135D02            adc bx,[di+0x2]
0001BDF7  0003              add [bp+di],al
0001BDF9  0008              add [bx+si],cl
0001BDFB  010A              add [bp+si],cx
0001BDFD  000B              add [bp+di],cl
0001BDFF  000D              add [di],cl
0001BE01  010F              add [bx],cx
0001BE03  010C              add [si],cx
0001BE05  120F              adc cl,[bx]
0001BE07  125C00            adc bl,[si+0x0]
0001BE0A  0300              add ax,[bx+si]
0001BE0C  0411              add al,0x11
0001BE0E  0311              add dx,[bx+di]
0001BE10  106600            adc [bp+0x0],ah
0001BE13  0100              add [bx+si],ax
0001BE15  050007            add ax,0x700
0001BE18  0100              add [bx+si],ax
0001BE1A  01060111          add [0x1101],ax
0001BE1E  0203              add al,[bp+di]
0001BE20  0212              add dl,[bp+si]
0001BE22  03060400          add ax,[0x4]
0001BE26  0412              add al,0x12
0001BE28  050305            add ax,0x503
0001BE2B  09060006          or [0x600],ax
0001BE2F  0F07              sysret
0001BE31  0107              add [bx],ax
0001BE33  0A08              or cl,[bx+si]
0001BE35  0B09              or cx,[bx+di]
0001BE37  0009              add [bx+di],cl
0001BE39  0309              add cx,[bx+di]
0001BE3B  07                pop es
0001BE3C  090E0A04          or [0x40a],cx
0001BE40  0A060B01          or al,[0x10b]
0001BE44  0B12              or dx,[bp+si]
0001BE46  0C00              or al,0x0
0001BE48  0C04              or al,0x4
0001BE4A  0D070D            or ax,0xd07
0001BE4D  110E010E          adc [0xe01],cx
0001BE51  0A0E1210          or cl,[0x1012]
0001BE55  0010              add [bx+si],dl
0001BE57  0D1012            or ax,0x1210
0001BE5A  1101              adc [bx+di],ax
0001BE5C  110C              adc [si],cx
0001BE5E  110E1111          adc [0x1111],cx
0001BE62  5E                pop si
0001BE63  050568            add ax,0x6805
0001BE66  050C0A            add ax,0xa0c
0001BE69  0A710B            or dh,[bx+di+0xb]
0001BE6C  0D4000            or ax,0x40
0001BE6F  44                inc sp
0001BE70  45                inc bp
0001BE71  41                inc cx
0001BE72  54                push sp
0001BE73  48                dec ax
0001BE74  205641            and [bp+0x41],dl
0001BE77  4C                dec sp
0001BE78  4C                dec sp
0001BE79  45                inc bp
0001BE7A  59                pop cx
0001BE7B  007300            add [bp+di+0x0],dh
0001BE7E  01510A            add [bx+di+0xa],dx
0001BE81  0115              add [di],dx
0001BE83  0315              add dx,[di]
0001BE85  085306            or [bp+di+0x6],dl
0001BE88  0A0A              or cl,[bp+si]
0001BE8A  0A19              or bl,[bx+di]
0001BE8C  0319              add bx,[bx+di]
0001BE8E  085D05            or [di+0x5],bl
0001BE91  0001              add [bx+di],al
0001BE93  0A03              or al,[bp+di]
0001BE95  0B05              or ax,[di]
0001BE97  0B0B              or cx,[bp+di]
0001BE99  050C05            add ax,0x50c
0001BE9C  0D050B            or ax,0xb05
0001BE9F  06                push es
0001BEA0  0C06              or al,0x6
0001BEA2  0D065C            or ax,0x5c06
0001BEA5  0A03              or al,[bp+di]
0001BEA7  0A04              or al,[si]
0001BEA9  0A07              or al,[bx]
0001BEAB  0A08              or cl,[bx+si]
0001BEAD  0C01              or al,0x1
0001BEAF  0C02              or al,0x2
0001BEB1  0C09              or al,0x9
0001BEB3  0C0A              or al,0xa
0001BEB5  660009            o32 add [bx+di],cl
0001BEB8  0205              add al,[di]
0001BEBA  020A              add cl,[bp+si]
0001BEBC  0301              add ax,[bx+di]
0001BEBE  0400              add al,0x0
0001BEC0  0404              add al,0x4
0001BEC2  040A              add al,0xa
0001BEC4  40                inc ax
0001BEC5  00444F            add [si+0x4f],al
0001BEC8  44                inc sp
0001BEC9  47                inc di
0001BECA  45                inc bp
0001BECB  204349            and [bp+di+0x49],al
0001BECE  54                push sp
0001BECF  59                pop cx
0001BED0  204241            and [bp+si+0x41],al
0001BED3  4E                dec si
0001BED4  4B                dec bx
0001BED5  007301            add [bp+di+0x1],dh
0001BED8  0A5209            or dl,[bp+si+0x9]
0001BEDB  040F              add al,0xf
0001BEDD  0450              add al,0x50
0001BEDF  0304              add ax,[si]
0001BEE1  150451            adc ax,0x5104
0001BEE4  06                push es
0001BEE5  0118              add [bx+si],bx
0001BEE7  07                pop es
0001BEE8  53                push bx
0001BEE9  1201              adc al,[bx+di]
0001BEEB  5D                pop bp
0001BEEC  1900              sbb [bx+si],ax
0001BEEE  1B01              sbb ax,[bx+di]
0001BEF0  1C01              sbb al,0x1
0001BEF2  1A0A              sbb cl,[bp+si]
0001BEF4  661909            sbb [bx+di],ecx
0001BEF7  1A00              sbb al,[bx+si]
0001BEF9  1A061B03          sbb al,[0x31b]
0001BEFD  1B09              sbb cx,[bx+di]
0001BEFF  1C04              sbb al,0x4
0001BF01  1C06              sbb al,0x6
0001BF03  1D011D            sbb ax,0x1d01
0001BF06  091E001E          or [0x1e00],bx
0001BF0A  051E09            add ax,0x91e
0001BF0D  1F                pop ds
0001BF0E  011F              add [bx],bx
0001BF10  084000            or [bx+si+0x0],al
0001BF13  54                push sp
0001BF14  4F                dec di
0001BF15  4D                dec bp
0001BF16  42                inc dx
0001BF17  53                push bx
0001BF18  54                push sp
0001BF19  4F                dec di
0001BF1A  4E                dec si
0001BF1B  45                inc bp
0001BF1C  204A41            and [bp+si+0x41],cl
0001BF1F  49                dec cx
0001BF20  4C                dec sp
0001BF21  005108            add [bx+di+0x8],dl
0001BF24  1E                push ds
0001BF25  7300              jnc 0xbf27
0001BF27  1E                push ds
0001BF28  5C                pop sp
0001BF29  0A0F              or cl,[bx]
0001BF2B  40                inc ax
0001BF2C  004C4F            add [si+0x4f],cl
0001BF2F  53                push bx
0001BF30  54                push sp
0001BF31  204D41            and [di+0x41],cl
0001BF34  56                push si
0001BF35  45                inc bp
0001BF36  52                push dx
0001BF37  49                dec cx
0001BF38  43                inc bx
0001BF39  4B                dec bx
0001BF3A  204D49            and [di+0x49],cl
0001BF3D  4E                dec si
0001BF3E  45                inc bp
0001BF3F  005315            add [bp+di+0x15],dl
0001BF42  027312            add dh,[bp+di+0x12]
0001BF45  0B6803            or bp,[bx+si+0x3]
0001BF48  07                pop es
0001BF49  050206            add ax,0x602
0001BF4C  07                pop es
0001BF4D  0A02              or al,[bp+si]
0001BF4F  0A08              or cl,[bx+si]
0001BF51  0D0266            or ax,0x6602
0001BF54  0001              add [bx+di],al
0001BF56  0009              add [bx+di],cl
0001BF58  0100              add [bx+si],ax
0001BF5A  010A              add [bp+si],cx
0001BF5C  0302              add ax,[bp+si]
0001BF5E  0902              or [bp+si],ax
0001BF60  0D080F            or ax,0xf08
0001BF63  085B17            or [bp+di+0x17],bl
0001BF66  051805            add ax,0x518
0001BF69  1A05              sbb al,[di]
0001BF6B  1B05              sbb ax,[di]
0001BF6D  1407              adc al,0x7
0001BF6F  150717            adc ax,0x1707
0001BF72  07                pop es
0001BF73  1807              sbb [bx],al
0001BF75  1A07              sbb al,[bx]
0001BF77  1B07              sbb ax,[bx]
0001BF79  17                pop ss
0001BF7A  0918              or [bx+si],bx
0001BF7C  091A              or [bp+si],bx
0001BF7E  091B              or [bp+di],bx
0001BF80  094000            or [bx+si+0x0],ax
0001BF83  4F                dec di
0001BF84  55                push bp
0001BF85  54                push sp
0001BF86  4C                dec sp
0001BF87  41                inc cx
0001BF88  57                push di
0001BF89  20414C            and [bx+di+0x4c],al
0001BF8C  4C                dec sp
0001BF8D  45                inc bp
0001BF8E  59                pop cx
0001BF8F  005310            add [bp+di+0x10],dl
0001BF92  0919              or [bx+di],bx
0001BF94  0473              add al,0x73
0001BF96  010A              add [bp+si],cx
0001BF98  7112              jno 0xbfac
0001BF9A  036603            add sp,[bp+0x3]
0001BF9D  0303              add ax,[bp+di]
0001BF9F  07                pop es
0001BFA0  0404              add al,0x4
0001BFA2  06                push es
0001BFA3  02060507          add al,[0x705]
0001BFA7  0808              or [bx+si],cl
0001BFA9  050904            add ax,0x409
0001BFAC  0B061507          or ax,[0x715]
0001BFB0  16                push ss
0001BFB1  041B              add al,0x1b
0001BFB3  021C              add bl,[si]
0001BFB5  031D              add bx,[di]
0001BFB7  06                push es
0001BFB8  40                inc ax
0001BFB9  004445            add [si+0x45],al
0001BFBC  41                inc cx
0001BFBD  44                inc sp
0001BFBE  204D41            and [di+0x41],cl
0001BFC1  4E                dec si
0001BFC2  27                daa
0001BFC3  53                push bx
0001BFC4  205041            and [bx+si+0x41],dl
0001BFC7  53                push bx
0001BFC8  53                push bx
0001BFC9  007303            add [bp+di+0x3],dh
0001BFCC  1F                pop ds
0001BFCD  55                push bp
0001BFCE  020E0212          add cl,[0x1202]
0001BFD2  051156            add ax,0x5611
0001BFD5  0110              add [bx+si],dx
0001BFD7  0413              add al,0x13
0001BFD9  050F57            add ax,0x570f
0001BFDC  0310              add dx,[bx+si]
0001BFDE  040D              add al,0xd
0001BFE0  53                push bx
0001BFE1  06                push es
0001BFE2  135C06            adc bx,[si+0x6]
0001BFE5  07                pop es
0001BFE6  06                push es
0001BFE7  08061806          or [0x618],al
0001BFEB  190A              sbb [bp+si],cx
0001BFED  050A06            add ax,0x60a
0001BFF0  0A09              or cl,[bx+di]
0001BFF2  0A0B              or cl,[bp+di]
0001BFF4  0A0C              or cl,[si]
0001BFF6  0A11              or dl,[bx+di]
0001BFF8  0A12              or dl,[bp+si]
0001BFFA  0A14              or dl,[si]
0001BFFC  0A15              or dl,[di]
0001BFFE  0A160A19          or dl,[0x190a]
0001C002  0A1A              or bl,[bp+si]
0001C004  0A1B              or bl,[bp+di]
0001C006  0A1C              or bl,[si]
0001C008  6607              o32 pop es
0001C00A  0207              add al,[bx]
0001C00C  0B07              or ax,[bx]
0001C00E  0F07              sysret
0001C010  1907              sbb [bx],ax
0001C012  1D0801            sbb ax,0x108
0001C015  0805              or [di],al
0001C017  0808              or [bx+si],cl
0001C019  0812              or [bp+si],dl
0001C01B  081E0900          or [0x9],bl
0001C01F  090E0916          or [0x1609],cx
0001C023  091A              or [bp+si],bx
0001C025  091E0A01          or [0x10a],bx
0001C029  0A03              or al,[bp+di]
0001C02B  0A07              or al,[bx]
0001C02D  0A0D              or cl,[di]
0001C02F  0A0F              or cl,[bx]
0001C031  0A17              or dl,[bx]
0001C033  0A1D              or bl,[di]
0001C035  40                inc ax
0001C036  004752            add [bx+0x52],al
0001C039  45                inc bp
0001C03A  41                inc cx
0001C03B  54                push sp
0001C03C  205452            and [si+0x52],dl
0001C03F  41                inc cx
0001C040  49                dec cx
0001C041  4E                dec si
0001C042  20524F            and [bp+si+0x4f],dl
0001C045  42                inc dx
0001C046  42                inc dx
0001C047  45                inc bp
0001C048  52                push dx
0001C049  59                pop cx
0001C04A  005005            add [bx+si+0x5],dl
0001C04D  021C              add bl,[si]
0001C04F  001E051E          add [0x1e05],bl
0001C053  07                pop es
0001C054  51                push cx
0001C055  06                push es
0001C056  09521A            or [bp+si+0x1a],dx
0001C059  057317            add ax,0x1773
0001C05C  0A5C00            or bl,[si+0x0]
0001C05F  014000            add [bx+si+0x0],ax
0001C062  54                push sp
0001C063  48                dec ax
0001C064  45                inc bp
0001C065  20494E            and [bx+di+0x4e],cl
0001C068  53                push bx
0001C069  49                dec cx
0001C06A  44                inc sp
0001C06B  49                dec cx
0001C06C  4F                dec di
0001C06D  55                push bp
0001C06E  53                push bx
0001C06F  204752            and [bx+0x52],al
0001C072  49                dec cx
0001C073  44                inc sp
0001C074  007309            add [bp+di+0x9],dh
0001C077  095203            or [bp+si+0x3],dx
0001C07A  0304              add ax,[si]
0001C07C  0305              add ax,[di]
0001C07E  03060303          add ax,[0x303]
0001C082  06                push es
0001C083  0406              add al,0x6
0001C085  0409              add al,0x9
0001C087  50                push ax
0001C088  0F08              invd
0001C08A  0F0B              ud2
0001C08C  100B              adc [bp+di],cl
0001C08E  0D0E0E            or ax,0xe0e
0001C091  0E                push cs
0001C092  0F0E              femms
0001C094  51                push cx
0001C095  0202              add al,[bp+si]
0001C097  0B02              or ax,[bp+si]
0001C099  0F015303          lgdt [bp+di+0x3]
0001C09D  0F0310            lsl dx,[bx+si]
0001C0A0  07                pop es
0001C0A1  0F100F            movups xmm1,oword [bx]
0001C0A4  40                inc ax
0001C0A5  005448            add [si+0x48],dl
0001C0A8  45                inc bp
0001C0A9  20564F            and [bp+0x4f],dl
0001C0AC  52                push dx
0001C0AD  54                push sp
0001C0AE  45                inc bp
0001C0AF  58                pop ax
0001C0B0  007304            add [bp+di+0x4],dh
0001C0B3  1D5C00            sbb ax,0x5c
0001C0B6  0F0B              ud2
0001C0B8  0B5400            or dx,[si+0x0]
0001C0BB  0000              add [bx+si],al
0001C0BD  0400              add al,0x0
0001C0BF  0800              or [bx+si],al
0001C0C1  0A00              or al,[bx+si]
0001C0C3  0E                push cs
0001C0C4  0010              add [bx+si],dl
0001C0C6  00160019          add [0x1900],dl
0001C0CA  001C              add [si],bl
0001C0CC  001D              add [di],bl
0001C0CE  011D              add [di],bx
0001C0D0  0200              add al,[bx+si]
0001C0D2  021D              add bl,[di]
0001C0D4  031D              add bx,[di]
0001C0D6  041B              add al,0x1b
0001C0D8  050005            add ax,0x500
0001C0DB  1B05              sbb ax,[di]
0001C0DD  1C05              sbb al,0x5
0001C0DF  1D091D            sbb ax,0x1d09
0001C0E2  0B00              or ax,[bx+si]
0001C0E4  0B05              or ax,[di]
0001C0E6  0B08              or cx,[bx+si]
0001C0E8  0B0A              or cx,[bp+si]
0001C0EA  0B0C              or cx,[si]
0001C0EC  0B17              or dx,[bx]
0001C0EE  0B1D              or bx,[di]
0001C0F0  0803              or [bp+di],al
0001C0F2  0305              add ax,[di]
0001C0F4  06                push es
0001C0F5  0B00              or ax,[bx+si]
0001C0F7  0C08              or al,0x8
0001C0F9  0E                push cs
0001C0FA  051101            add ax,0x111
0001C0FD  16                push ss
0001C0FE  0819              or [bx+di],bl
0001C100  7708              ja 0xc10a
0001C102  00060307          add [0x703],al
0001C106  0307              add ax,[bx]
0001C108  080A              or [bp+si],cl
0001C10A  0801              or [bx+di],al
0001C10C  0A061005          or al,[0x510]
0001C110  1407              adc al,0x7
0001C112  1407              adc al,0x7
0001C114  1B4000            sbb ax,[bx+si+0x0]
0001C117  4C                dec sp
0001C118  49                dec cx
0001C119  47                inc di
0001C11A  48                dec ax
0001C11B  54                push sp
0001C11C  204241            and [bp+si+0x41],al
0001C11F  52                push dx
0001C120  52                push dx
0001C121  49                dec cx
0001C122  45                inc bp
0001C123  52                push dx
0001C124  53                push bx
0001C125  00731A            add [bp+di+0x1a],dh
0001C128  06                push es
0001C129  40                inc ax
0001C12A  004741            add [bx+0x41],al
0001C12D  4D                dec bp
0001C12E  4D                dec bp
0001C12F  41                inc cx
0001C130  205354            and [bp+di+0x54],dl
0001C133  41                inc cx
0001C134  54                push sp
0001C135  49                dec cx
0001C136  4F                dec di
0001C137  4E                dec si
0001C138  007309            add [bp+di+0x9],dh
0001C13B  095400            or [si+0x0],dx
0001C13E  0000              add [bx+si],al
0001C140  06                push es
0001C141  000B              add [bp+di],cl
0001C143  0010              add [bx+si],dl
0001C145  0200              add al,[bx+si]
0001C147  02060410          add al,[0x1004]
0001C14B  050006            add ax,0x600
0001C14E  05060A            add ax,0xa06
0001C151  08060807          or [0x708],al
0001C155  0808              or [bx+si],cl
0001C157  0809              or [bx+di],cl
0001C159  080A              or [bp+si],cl
0001C15B  080F              or [bx],cl
0001C15D  0810              or [bx+si],dl
0001C15F  0900              or [bx+si],ax
0001C161  0906090A          or [0xa09],ax
0001C165  0A060A08          or al,[0x80a]
0001C169  0A09              or cl,[bx+di]
0001C16B  0A0A              or cl,[bp+si]
0001C16D  0B060B0A          or ax,[0xa0b]
0001C171  0C06              or al,0x6
0001C173  0C07              or al,0x7
0001C175  0C0A              or al,0xa
0001C177  0E                push cs
0001C178  020F              add cl,[bx]
0001C17A  06                push es
0001C17B  1110              adc [bx+si],dx
0001C17D  1210              adc dl,[bx+si]
0001C17F  1400              adc al,0x0
0001C181  1402              adc al,0x2
0001C183  1405              adc al,0x5
0001C185  140B              adc al,0xb
0001C187  140C              adc al,0xc
0001C189  1410              adc al,0x10
0001C18B  7704              ja 0xc191
0001C18D  0904              or [si],ax
0001C18F  0F05              syscall
0001C191  01060407          add [0x704],ax
0001C195  07                pop es
0001C196  0901              or [bx+di],ax
0001C198  0C03              or al,0x3
0001C19A  0D060E            or ax,0xe06
0001C19D  0E                push cs
0001C19E  1009              adc [bx+di],cl
0001C1A0  1207              adc al,[bx]
0001C1A2  1305              adc ax,[di]
0001C1A4  40                inc ax
0001C1A5  004D49            add [di+0x49],cl
0001C1A8  44                inc sp
0001C1A9  4E                dec si
0001C1AA  49                dec cx
0001C1AB  47                inc di
0001C1AC  48                dec ax
0001C1AD  54                push sp
0001C1AE  204D41            and [di+0x41],cl
0001C1B1  53                push bx
0001C1B2  53                push bx
0001C1B3  41                inc cx
0001C1B4  43                inc bx
0001C1B5  52                push dx
0001C1B6  45                inc bp
0001C1B7  007307            add [bp+di+0x7],dh
0001C1BA  005105            add [bx+di+0x5],dl
0001C1BD  185204            sbb [bp+si+0x4],dl
0001C1C0  0407              add al,0x7
0001C1C2  06                push es
0001C1C3  0818              or [bx+si],bl
0001C1C5  50                push ax
0001C1C6  07                pop es
0001C1C7  0404              add al,0x4
0001C1C9  06                push es
0001C1CA  5C                pop sp
0001C1CB  07                pop es
0001C1CC  150716            adc ax,0x1607
0001C1CF  07                pop es
0001C1D0  17                pop ss
0001C1D1  07                pop es
0001C1D2  1809              sbb [bx+di],cl
0001C1D4  150916            adc ax,0x1609
0001C1D7  0917              or [bx],dx
0001C1D9  0918              or [bx+si],bx
0001C1DB  6D                insw
0001C1DC  000D              add [di],cl
0001C1DE  0213              add dl,[bp+di]
0001C1E0  090F              or [bx],cx
0001C1E2  6E                outsb
0001C1E3  0011              add [bx+di],dl
0001C1E5  0411              add al,0x11
0001C1E7  0B0D              or cx,[di]
0001C1E9  6F                outsw
0001C1EA  050E07            add ax,0x70e
0001C1ED  137005            adc si,[bx+si+0x5]
0001C1F0  1407              adc al,0x7
0001C1F2  100B              adc [bp+di],cl
0001C1F4  115500            adc [di+0x0],dx
0001C1F7  1801              sbb [bx+di],al
0001C1F9  17                pop ss
0001C1FA  021D              add bl,[di]
0001C1FC  0316031A          add dx,[0x1a03]
0001C200  0416              add al,0x16
0001C202  051705            add ax,0x517
0001C205  1D071C            sbb ax,0x1c07
0001C208  081A              or [bp+si],bl
0001C20A  091D              or [di],bx
0001C20C  0A18              or bl,[bx+si]
0001C20E  0A1D              or bl,[di]
0001C210  56                push si
0001C211  001A              add [bp+si],bl
0001C213  0317              add dx,[bx]
0001C215  0419              add al,0x19
0001C217  041A              add al,0x1a
0001C219  041C              add al,0x1c
0001C21B  051606            add ax,0x616
0001C21E  17                pop ss
0001C21F  06                push es
0001C220  1D071A            sbb ax,0x1a07
0001C223  081D              or [di],bl
0001C225  091C              or [si],bx
0001C227  0A1A              or bl,[bp+si]
0001C229  0B18              or bx,[bx+si]
0001C22B  0B1D              or bx,[di]
0001C22D  57                push di
0001C22E  001B              add [bp+di],bl
0001C230  001D              add [di],bl
0001C232  0118              add [bx+si],bx
0001C234  011A              add [bp+si],bx
0001C236  011D              add [di],bx
0001C238  021C              add bl,[si]
0001C23A  031D              add bx,[di]
0001C23C  041D              add al,0x1d
0001C23E  051907            add ax,0x719
0001C241  1D0A17            sbb ax,0x170a
0001C244  0B1A              or bx,[bp+si]
0001C246  0B1B              or bx,[bp+di]
0001C248  40                inc ax
0001C249  004553            add [di+0x53],al
0001C24C  43                inc bx
0001C24D  41                inc cx
0001C24E  50                push ax
0001C24F  45                inc bp
0001C250  20544F            and [si+0x4f],dl
0001C253  204D4F            and [di+0x4f],cl
0001C256  4F                dec di
0001C257  4E                dec si
0001C258  42                inc dx
0001C259  41                inc cx
0001C25A  53                push bx
0001C25B  45                inc bp
0001C25C  005011            add [bx+si+0x11],dl
0001C25F  0813              or [bp+di],dl
0001C261  085114            or [bx+di+0x14],dl
0001C264  0452              add al,0x52
0001C266  1103              adc [bp+di],ax
0001C268  53                push bx
0001C269  1407              adc al,0x7
0001C26B  731D              jnc 0xc28a
0001C26D  06                push es
0001C26E  40                inc ax
0001C26F  00454E            add [di+0x4e],al
0001C272  54                push sp
0001C273  45                inc bp
0001C274  52                push dx
0001C275  50                push ax
0001C276  52                push dx
0001C277  49                dec cx
0001C278  53                push bx
0001C279  45                inc bp
0001C27A  006200            add [bp+si+0x0],ah
0001C27D  0100              add [bx+si],ax
0001C27F  0402              add al,0x2
0001C281  0004              add [si],al
0001C283  0A0E0C0F          or cl,[0xf0c]
0001C287  0912              or [bp+si],dx
0001C289  0B6606            or sp,[bp+0x6]
0001C28C  0007              add [bx],al
0001C28E  06                push es
0001C28F  0805              or [di],al
0001C291  0905              or [di],ax
0001C293  0B0A              or cx,[bp+si]
0001C295  0B0D              or cx,[di]
0001C297  0C09              or al,0x9
0001C299  0D0D0E            or ax,0xe0d
0001C29C  080E0A0E          or [0xe0a],cl
0001C2A0  0E                push cs
0001C2A1  5C                pop sp
0001C2A2  0003              add [bp+di],al
0001C2A4  00060007          add [0x700],al
0001C2A8  0903              or [bp+di],ax
0001C2AA  0904              or [si],ax
0001C2AC  1308              adc cx,[bx+si]
0001C2AE  1309              adc cx,[bx+di]
0001C2B0  130E130F          adc cx,[0xf13]
0001C2B4  1310              adc dx,[bx+si]
0001C2B6  5D                pop bp
0001C2B7  0400              add al,0x0
0001C2B9  05000B            add ax,0xb00
0001C2BC  110C              adc [si],cx
0001C2BE  110D              adc [di],cx
0001C2C0  110E110F          adc [0xf11],cx
0001C2C4  1110              adc [bx+si],dx
0001C2C6  115E03            adc [bp+0x3],bx
0001C2C9  036807            add bp,[bx+si+0x7]
0001C2CC  015201            add [bp+si+0x1],dx
0001C2CF  0A5004            or dl,[bx+si+0x4]
0001C2D2  0D5107            or ax,0x751
0001C2D5  0C58              or al,0x58
0001C2D7  0408              add al,0x8
0001C2D9  050806            add ax,0x608
0001C2DC  085B07            or [bp+di+0x7],bl
0001C2DF  0808              or [bx+si],cl
0001C2E1  0809              or [bx+di],cl
0001C2E3  087313            or [bp+di+0x13],dh
0001C2E6  06                push es
0001C2E7  40                inc ax
0001C2E8  0300              add ax,[bx+si]
0001C2EA  0202              add al,[bp+si]
0001C2EC  02065452          add al,[0x5254]
0001C2F0  45                inc bp
0001C2F1  45                inc bp
0001C2F2  53                push bx
0001C2F3  034072            add ax,[bx+si+0x72]
0001C2F6  43                inc bx
0001C2F7  41                inc cx
0001C2F8  43                inc bx
0001C2F9  54                push sp
0001C2FA  49                dec cx
0001C2FB  0203              add al,[bp+di]
0001C2FD  06                push es
0001C2FE  034002            add ax,[bx+si+0x2]
0001C301  48                dec ax
0001C302  4F                dec di
0001C303  55                push bp
0001C304  53                push bx
0001C305  45                inc bp
0001C306  0320              add sp,[bx+si]
0001C308  0C46              or al,0x46
0001C30A  45                inc bp
0001C30B  4E                dec si
0001C30C  43                inc bx
0001C30D  45                inc bp
0001C30E  0318              add bx,[bx+si]
0001C310  52                push dx
0001C311  48                dec ax
0001C312  55                push bp
0001C313  54                push sp
0001C314  0308              add cx,[bx+si]
0001C316  7257              jc 0xc36f
0001C318  41                inc cx
0001C319  4C                dec sp
0001C31A  4C                dec sp
0001C31B  53                push bx
0001C31C  035082            add dx,[bx+si-0x7e]
0001C31F  4E                dec si
0001C320  4F                dec di
0001C321  54                push sp
0001C322  204845            and [bx+si+0x45],cl
0001C325  52                push dx
0001C326  45                inc bp
0001C327  2E0378E2          add di,[cs:bx+si-0x1e]
0001C32B  4E                dec si
0001C32C  4F                dec di
0001C32D  54                push sp
0001C32E  204845            and [bx+si+0x45],cl
0001C331  52                push dx
0001C332  45                inc bp
0001C333  037BEE            add di,[bp+di-0x12]
0001C336  45                inc bp
0001C337  49                dec cx
0001C338  54                push sp
0001C339  48                dec ax
0001C33A  45                inc bp
0001C33B  52                push dx
0001C33C  2103              and [bp+di],ax
0001C33E  7982              jns 0xc2c2
0001C340  47                inc di
0001C341  4F                dec di
0001C342  54                push sp
0001C343  204954            and [bx+di+0x54],cl
0001C346  2100              and [bx+si],ax
0001C348  44                inc sp
0001C349  45                inc bp
0001C34A  4D                dec bp
0001C34B  4F                dec di
0001C34C  007308            add [bp+di+0x8],dh
0001C34F  217801            and [bx+si+0x1],di
0001C352  1C01              sbb al,0x1
0001C354  1E                push ds
0001C355  0120              add [bx+si],sp
0001C357  021B              add bl,[bp+di]
0001C359  021D              add bl,[di]
0001C35B  021F              add bl,[bx]
0001C35D  0221              add ah,[bx+di]
0001C35F  031C              add bx,[si]
0001C361  031E0320          add bx,[0x2003]
0001C365  06                push es
0001C366  1C06              sbb al,0x6
0001C368  1E                push ds
0001C369  06                push es
0001C36A  2007              and [bx],al
0001C36C  1B07              sbb ax,[bx]
0001C36E  1D071F            sbb ax,0x1f07
0001C371  07                pop es
0001C372  2108              and [bx+si],cx
0001C374  1C08              sbb al,0x8
0001C376  1E                push ds
0001C377  0820              or [bx+si],ah
0001C379  40                inc ax
0001C37A  0300              add ax,[bx+si]
0001C37C  1402              adc al,0x2
0001C37E  06                push es
0001C37F  025448            add dl,[si+0x48]
0001C382  45                inc bp
0001C383  205449            and [si+0x49],dl
0001C386  4D                dec bp
0001C387  45                inc bp
0001C388  47                inc di
0001C389  41                inc cx
0001C38A  54                push sp
0001C38B  45                inc bp
0001C38C  53                push bx
0001C38D  205745            and [bx+0x45],dl
0001C390  52                push dx
0001C391  45                inc bp
0001C392  204255            and [bp+si+0x55],al
0001C395  49                dec cx
0001C396  4C                dec sp
0001C397  54                push sp
0001C398  0120              add [bx+si],sp
0001C39A  204259            and [bp+si+0x59],al
0001C39D  204120            and [bx+di+0x20],al
0001C3A0  50                push ax
0001C3A1  4F                dec di
0001C3A2  57                push di
0001C3A3  45                inc bp
0001C3A4  52                push dx
0001C3A5  46                inc si
0001C3A6  55                push bp
0001C3A7  4C                dec sp
0001C3A8  205241            and [bp+si+0x41],dl
0001C3AB  43                inc bx
0001C3AC  45                inc bp
0001C3AD  01544F            add [si+0x4f],dx
0001C3B0  205354            and [bp+di+0x54],dl
0001C3B3  55                push bp
0001C3B4  44                inc sp
0001C3B5  59                pop cx
0001C3B6  205448            and [si+0x48],dl
0001C3B9  45                inc bp
0001C3BA  205245            and [bp+si+0x45],dl
0001C3BD  41                inc cx
0001C3BE  43                inc bx
0001C3BF  48                dec ax
0001C3C0  45                inc bp
0001C3C1  53                push bx
0001C3C2  204F46            and [bx+0x46],cl
0001C3C5  0120              add [bx+si],sp
0001C3C7  20414C            and [bx+di+0x4c],al
0001C3CA  4C                dec sp
0001C3CB  205449            and [si+0x49],dl
0001C3CE  4D                dec bp
0001C3CF  45                inc bp
0001C3D0  20414E            and [bx+di+0x4e],al
0001C3D3  44                inc sp
0001C3D4  205350            and [bp+di+0x50],dl
0001C3D7  41                inc cx
0001C3D8  43                inc bx
0001C3D9  45                inc bp
0001C3DA  2C01              sub al,0x1
0001C3DC  52                push dx
0001C3DD  45                inc bp
0001C3DE  43                inc bx
0001C3DF  4C                dec sp
0001C3E0  41                inc cx
0001C3E1  49                dec cx
0001C3E2  4D                dec bp
0001C3E3  49                dec cx
0001C3E4  4E                dec si
0001C3E5  47                inc di
0001C3E6  205448            and [si+0x48],dl
0001C3E9  45                inc bp
0001C3EA  20464F            and [bp+0x4f],al
0001C3ED  52                push dx
0001C3EE  47                inc di
0001C3EF  4F                dec di
0001C3F0  54                push sp
0001C3F1  54                push sp
0001C3F2  45                inc bp
0001C3F3  4E                dec si
0001C3F4  0120              add [bx+si],sp
0001C3F6  204152            and [bx+di+0x52],al
0001C3F9  43                inc bx
0001C3FA  48                dec ax
0001C3FB  49                dec cx
0001C3FC  56                push si
0001C3FD  45                inc bp
0001C3FE  53                push bx
0001C3FF  204F46            and [bx+0x46],cl
0001C402  204F4C            and [bx+0x4c],cl
0001C405  44                inc sp
0001C406  45                inc bp
0001C407  01414E            add [bx+di+0x4e],ax
0001C40A  44                inc sp
0001C40B  204C45            and [si+0x45],cl
0001C40E  41                inc cx
0001C40F  52                push dx
0001C410  4E                dec si
0001C411  49                dec cx
0001C412  4E                dec si
0001C413  47                inc di
0001C414  205448            and [si+0x48],dl
0001C417  45                inc bp
0001C418  204C45            and [si+0x45],cl
0001C41B  53                push bx
0001C41C  53                push bx
0001C41D  4F                dec di
0001C41E  4E                dec si
0001C41F  53                push bx
0001C420  0120              add [bx+si],sp
0001C422  20544F            and [si+0x4f],dl
0001C425  4D                dec bp
0001C426  4F                dec di
0001C427  52                push dx
0001C428  52                push dx
0001C429  4F                dec di
0001C42A  57                push di
0001C42B  27                daa
0001C42C  53                push bx
0001C42D  20574F            and [bx+0x4f],dl
0001C430  52                push dx
0001C431  4C                dec sp
0001C432  44                inc sp
0001C433  53                push bx
0001C434  20484F            and [bx+si+0x4f],cl
0001C437  4C                dec sp
0001C438  44                inc sp
0001C439  2E0300            add ax,[cs:bx+si]
0001C43C  7A02              jpe 0xc440
0001C43E  06                push es
0001C43F  0454              add al,0x54
0001C441  48                dec ax
0001C442  45                inc bp
0001C443  53                push bx
0001C444  45                inc bp
0001C445  204C4F            and [si+0x4f],cl
0001C448  52                push dx
0001C449  44                inc sp
0001C44A  53                push bx
0001C44B  204F46            and [bx+0x46],cl
0001C44E  205449            and [si+0x49],dl
0001C451  4D                dec bp
0001C452  45                inc bp
0001C453  20444F            and [si+0x4f],al
0001C456  204E4F            and [bp+0x4f],cl
0001C459  54                push sp
0001C45A  0120              add [bx+si],sp
0001C45C  20494E            and [bx+di+0x4e],cl
0001C45F  54                push sp
0001C460  45                inc bp
0001C461  52                push dx
0001C462  46                inc si
0001C463  45                inc bp
0001C464  52                push dx
0001C465  45                inc bp
0001C466  2C01              sub al,0x1
0001C468  41                inc cx
0001C469  46                inc si
0001C46A  52                push dx
0001C46B  41                inc cx
0001C46C  49                dec cx
0001C46D  44                inc sp
0001C46E  205448            and [si+0x48],dl
0001C471  41                inc cx
0001C472  54                push sp
0001C473  204449            and [si+0x49],al
0001C476  53                push bx
0001C477  41                inc cx
0001C478  53                push bx
0001C479  54                push sp
0001C47A  45                inc bp
0001C47B  52                push dx
0001C47C  4F                dec di
0001C47D  55                push bp
0001C47E  53                push bx
0001C47F  0120              add [bx+si],sp
0001C481  204348            and [bp+di+0x48],al
0001C484  41                inc cx
0001C485  4E                dec si
0001C486  47                inc di
0001C487  45                inc bp
0001C488  204D41            and [di+0x41],cl
0001C48B  59                pop cx
0001C48C  205245            and [bp+si+0x45],dl
0001C48F  41                inc cx
0001C490  52                push dx
0001C491  2E01544F          add [cs:si+0x4f],dx
0001C495  20414C            and [bx+di+0x4c],al
0001C498  54                push sp
0001C499  45                inc bp
0001C49A  52                push dx
0001C49B  205448            and [si+0x48],dl
0001C49E  45                inc bp
0001C49F  20434F            and [bp+di+0x4f],al
0001C4A2  55                push bp
0001C4A3  52                push dx
0001C4A4  53                push bx
0001C4A5  45                inc bp
0001C4A6  204F46            and [bx+0x46],cl
0001C4A9  0120              add [bx+si],sp
0001C4AB  204E41            and [bp+0x41],cl
0001C4AE  54                push sp
0001C4AF  55                push bp
0001C4B0  52                push dx
0001C4B1  41                inc cx
0001C4B2  4C                dec sp
0001C4B3  205449            and [si+0x49],dl
0001C4B6  4D                dec bp
0001C4B7  45                inc bp
0001C4B8  014953            add [bx+di+0x53],cx
0001C4BB  204245            and [bp+si+0x45],al
0001C4BE  4C                dec sp
0001C4BF  49                dec cx
0001C4C0  45                inc bp
0001C4C1  56                push si
0001C4C2  45                inc bp
0001C4C3  44                inc sp
0001C4C4  20544F            and [si+0x4f],dl
0001C4C7  204245            and [bp+si+0x45],al
0001C4CA  205448            and [si+0x48],dl
0001C4CD  45                inc bp
0001C4CE  204D4F            and [di+0x4f],cl
0001C4D1  53                push bx
0001C4D2  54                push sp
0001C4D3  0120              add [bx+si],sp
0001C4D5  205349            and [bp+di+0x49],dl
0001C4D8  4E                dec si
0001C4D9  49                dec cx
0001C4DA  53                push bx
0001C4DB  54                push sp
0001C4DC  45                inc bp
0001C4DD  52                push dx
0001C4DE  204352            and [bp+di+0x52],al
0001C4E1  49                dec cx
0001C4E2  4D                dec bp
0001C4E3  45                inc bp
0001C4E4  2E0300            add ax,[cs:bx+si]
0001C4E7  E002              loopne 0xc4eb
0001C4E9  06                push es
0001C4EA  054255            add ax,0x5542
0001C4ED  54                push sp
0001C4EE  20534F            and [bp+di+0x4f],dl
0001C4F1  4D                dec bp
0001C4F2  45                inc bp
0001C4F3  20494E            and [bx+di+0x4e],cl
0001C4F6  53                push bx
0001C4F7  49                dec cx
0001C4F8  53                push bx
0001C4F9  54                push sp
0001C4FA  45                inc bp
0001C4FB  44                inc sp
0001C4FC  204F4E            and [bx+0x4e],cl
0001C4FF  205553            and [di+0x53],dl
0001C502  49                dec cx
0001C503  4E                dec si
0001C504  47                inc di
0001C505  0120              add [bx+si],sp
0001C507  205448            and [si+0x48],dl
0001C50A  45                inc bp
0001C50B  204741            and [bx+0x41],al
0001C50E  54                push sp
0001C50F  45                inc bp
0001C510  53                push bx
0001C511  014C49            add [si+0x49],cx
0001C514  4B                dec bx
0001C515  45                inc bp
0001C516  2022              and [bp+si],ah
0001C518  47                inc di
0001C519  55                push bp
0001C51A  41                inc cx
0001C51B  52                push dx
0001C51C  44                inc sp
0001C51D  49                dec cx
0001C51E  41                inc cx
0001C51F  4E                dec si
0001C520  53                push bx
0001C521  2220              and ah,[bx+si]
0001C523  54                push sp
0001C524  4F                dec di
0001C525  204348            and [bp+di+0x48],al
0001C528  41                inc cx
0001C529  4E                dec si
0001C52A  47                inc di
0001C52B  45                inc bp
0001C52C  0120              add [bx+si],sp
0001C52E  205448            and [si+0x48],dl
0001C531  45                inc bp
0001C532  204641            and [bp+0x41],al
0001C535  54                push sp
0001C536  45                inc bp
0001C537  53                push bx
0001C538  014F46            add [bx+0x46],cx
0001C53B  20414C            and [bx+di+0x4c],al
0001C53E  4C                dec sp
0001C53F  204D49            and [di+0x49],cl
0001C542  53                push bx
0001C543  47                inc di
0001C544  55                push bp
0001C545  49                dec cx
0001C546  44                inc sp
0001C547  45                inc bp
0001C548  44                inc sp
0001C549  20414E            and [bx+di+0x4e],al
0001C54C  44                inc sp
0001C54D  0120              add [bx+si],sp
0001C54F  20544F            and [si+0x4f],dl
0001C552  52                push dx
0001C553  4D                dec bp
0001C554  45                inc bp
0001C555  4E                dec si
0001C556  54                push sp
0001C557  45                inc bp
0001C558  44                inc sp
0001C559  20534F            and [bp+di+0x4f],dl
0001C55C  55                push bp
0001C55D  4C                dec sp
0001C55E  53                push bx
0001C55F  2C01              sub al,0x1
0001C561  41                inc cx
0001C562  4E                dec si
0001C563  44                inc sp
0001C564  205345            and [bp+di+0x45],dl
0001C567  49                dec cx
0001C568  5A                pop dx
0001C569  45                inc bp
0001C56A  44                inc sp
0001C56B  205448            and [si+0x48],dl
0001C56E  45                inc bp
0001C56F  205449            and [si+0x49],dl
0001C572  4D                dec bp
0001C573  45                inc bp
0001C574  47                inc di
0001C575  41                inc cx
0001C576  54                push sp
0001C577  45                inc bp
0001C578  53                push bx
0001C579  0120              add [bx+si],sp
0001C57B  20544F            and [si+0x4f],dl
0001C57E  205245            and [bp+si+0x45],dl
0001C581  41                inc cx
0001C582  43                inc bx
0001C583  48                dec ax
0001C584  205448            and [si+0x48],dl
0001C587  45                inc bp
0001C588  53                push bx
0001C589  45                inc bp
0001C58A  20474F            and [bx+0x4f],al
0001C58D  41                inc cx
0001C58E  4C                dec sp
0001C58F  53                push bx
0001C590  2E02060304        add al,[cs:0x403]
0001C595  0000              add [bx+si],al
0001C597  46                inc si
0001C598  015448            add [si+0x48],dx
0001C59B  45                inc bp
0001C59C  204755            and [bx+0x55],al
0001C59F  41                inc cx
0001C5A0  52                push dx
0001C5A1  44                inc sp
0001C5A2  49                dec cx
0001C5A3  41                inc cx
0001C5A4  4E                dec si
0001C5A5  53                push bx
0001C5A6  20524F            and [bp+si+0x4f],dl
0001C5A9  44                inc sp
0001C5AA  45                inc bp
0001C5AB  204F4E            and [bx+0x4e],cl
0001C5AE  204101            and [bx+di+0x1],al
0001C5B1  2020              and [bx+si],ah
0001C5B3  57                push di
0001C5B4  41                inc cx
0001C5B5  56                push si
0001C5B6  45                inc bp
0001C5B7  204F46            and [bx+0x46],cl
0001C5BA  204348            and [bp+di+0x48],al
0001C5BD  41                inc cx
0001C5BE  4E                dec si
0001C5BF  47                inc di
0001C5C0  45                inc bp
0001C5C1  015448            add [si+0x48],dx
0001C5C4  52                push dx
0001C5C5  4F                dec di
0001C5C6  55                push bp
0001C5C7  47                inc di
0001C5C8  48                dec ax
0001C5C9  204341            and [bp+di+0x41],al
0001C5CC  53                push bx
0001C5CD  54                push sp
0001C5CE  4C                dec sp
0001C5CF  45                inc bp
0001C5D0  2C20              sub al,0x20
0001C5D2  53                push bx
0001C5D3  54                push sp
0001C5D4  41                inc cx
0001C5D5  52                push dx
0001C5D6  53                push bx
0001C5D7  48                dec ax
0001C5D8  49                dec cx
0001C5D9  50                push ax
0001C5DA  2C01              sub al,0x1
0001C5DC  2020              and [bx+si],ah
0001C5DE  41                inc cx
0001C5DF  4E                dec si
0001C5E0  44                inc sp
0001C5E1  204445            and [si+0x45],al
0001C5E4  53                push bx
0001C5E5  45                inc bp
0001C5E6  52                push dx
0001C5E7  54                push sp
0001C5E8  205241            and [bp+si+0x41],dl
0001C5EB  4E                dec si
0001C5EC  47                inc di
0001C5ED  45                inc bp
0001C5EE  2E015448          add [cs:si+0x48],dx
0001C5F2  45                inc bp
0001C5F3  205249            and [bp+si+0x49],dl
0001C5F6  43                inc bx
0001C5F7  48                dec ax
0001C5F8  45                inc bp
0001C5F9  53                push bx
0001C5FA  205448            and [si+0x48],dl
0001C5FD  45                inc bp
0001C5FE  59                pop cx
0001C5FF  20464F            and [bp+0x4f],al
0001C602  55                push bp
0001C603  4E                dec si
0001C604  44                inc sp
0001C605  205745            and [bx+0x45],dl
0001C608  52                push dx
0001C609  45                inc bp
0001C60A  0120              add [bx+si],sp
0001C60C  204245            and [bp+si+0x45],al
0001C60F  59                pop cx
0001C610  4F                dec di
0001C611  4E                dec si
0001C612  44                inc sp
0001C613  20414C            and [bx+di+0x4c],al
0001C616  4C                dec sp
0001C617  204D45            and [di+0x45],cl
0001C61A  41                inc cx
0001C61B  53                push bx
0001C61C  55                push bp
0001C61D  52                push dx
0001C61E  45                inc bp
0001C61F  2E015441          add [cs:si+0x41],dx
0001C623  4B                dec bx
0001C624  45                inc bp
0001C625  4E                dec si
0001C626  204259            and [bp+si+0x59],al
0001C629  204752            and [bx+0x52],al
0001C62C  45                inc bp
0001C62D  45                inc bp
0001C62E  44                inc sp
0001C62F  2C20              sub al,0x20
0001C631  54                push sp
0001C632  48                dec ax
0001C633  45                inc bp
0001C634  59                pop cx
0001C635  204E4F            and [bp+0x4f],cl
0001C638  57                push di
0001C639  0120              add [bx+si],sp
0001C63B  204755            and [bx+0x55],al
0001C63E  41                inc cx
0001C63F  52                push dx
0001C640  44                inc sp
0001C641  204F4E            and [bx+0x4e],cl
0001C644  4C                dec sp
0001C645  59                pop cx
0001C646  205448            and [si+0x48],dl
0001C649  45                inc bp
0001C64A  205452            and [si+0x52],dl
0001C64D  45                inc bp
0001C64E  41                inc cx
0001C64F  53                push bx
0001C650  55                push bp
0001C651  52                push dx
0001C652  45                inc bp
0001C653  2E0102            add [cs:bp+si],ax
0001C656  06                push es
0001C657  07                pop es
0001C658  0400              add al,0x0
0001C65A  00B4014B          add [si+0x4b01],dh
0001C65E  49                dec cx
0001C65F  4C                dec sp
0001C660  4C                dec sp
0001C661  45                inc bp
0001C662  52                push dx
0001C663  20534D            and [bp+di+0x4d],dl
0001C666  55                push bp
0001C667  52                push dx
0001C668  50                push ax
0001C669  48                dec ax
0001C66A  2020              and [bx+si],ah
0001C66C  2020              and [bx+si],ah
0001C66E  205343            and [bp+di+0x43],dl
0001C671  4F                dec di
0001C672  52                push dx
0001C673  50                push ax
0001C674  49                dec cx
0001C675  4F                dec di
0001C676  4E                dec si
0001C677  0400              add al,0x0
0001C679  00D4              add ah,dl
0001C67B  014C4F            add [si+0x4f],cx
0001C67E  4F                dec di
0001C67F  4B                dec bx
0001C680  49                dec cx
0001C681  4E                dec si
0001C682  47                inc di
0001C683  204C55            and [si+0x55],cl
0001C686  52                push dx
0001C687  4B                dec bx
0001C688  45                inc bp
0001C689  52                push dx
0001C68A  2020              and [bx+si],ah
0001C68C  41                inc cx
0001C68D  4E                dec si
0001C68E  47                inc di
0001C68F  52                push dx
0001C690  59                pop cx
0001C691  20454C            and [di+0x4c],al
0001C694  4D                dec bp
0001C695  4F                dec di
0001C696  0400              add al,0x0
0001C698  00F4              add ah,dh
0001C69A  01504F            add [bx+si+0x4f],dx
0001C69D  4C                dec sp
0001C69E  54                push sp
0001C69F  45                inc bp
0001C6A0  52                push dx
0001C6A1  47                inc di
0001C6A2  48                dec ax
0001C6A3  4F                dec di
0001C6A4  53                push bx
0001C6A5  54                push sp
0001C6A6  2020              and [bx+si],ah
0001C6A8  2020              and [bx+si],ah
0001C6AA  44                inc sp
0001C6AB  45                inc bp
0001C6AC  41                inc cx
0001C6AD  54                push sp
0001C6AE  48                dec ax
0001C6AF  204452            and [si+0x52],al
0001C6B2  4F                dec di
0001C6B3  49                dec cx
0001C6B4  44                inc sp
0001C6B5  0000              add [bx+si],al
0001C6B7  7308              jnc 0xc6c1
0001C6B9  214003            and [bx+si+0x3],ax
0001C6BC  0014              add [si],dl
0001C6BE  0207              add al,[bx]
0001C6C0  06                push es
0001C6C1  54                push sp
0001C6C2  48                dec ax
0001C6C3  45                inc bp
0001C6C4  205449            and [si+0x49],dl
0001C6C7  4D                dec bp
0001C6C8  45                inc bp
0001C6C9  4C                dec sp
0001C6CA  4F                dec di
0001C6CB  52                push dx
0001C6CC  44                inc sp
0001C6CD  53                push bx
0001C6CE  204841            and [bx+si+0x41],cl
0001C6D1  56                push si
0001C6D2  45                inc bp
0001C6D3  20564F            and [bp+0x4f],dl
0001C6D6  57                push di
0001C6D7  45                inc bp
0001C6D8  44                inc sp
0001C6D9  0120              add [bx+si],sp
0001C6DB  20544F            and [si+0x4f],dl
0001C6DE  205345            and [bp+di+0x45],dl
0001C6E1  54                push sp
0001C6E2  204556            and [di+0x56],al
0001C6E5  45                inc bp
0001C6E6  52                push dx
0001C6E7  59                pop cx
0001C6E8  54                push sp
0001C6E9  48                dec ax
0001C6EA  49                dec cx
0001C6EB  4E                dec si
0001C6EC  47                inc di
0001C6ED  205249            and [bp+si+0x49],dl
0001C6F0  47                inc di
0001C6F1  48                dec ax
0001C6F2  54                push sp
0001C6F3  2E015448          add [cs:si+0x48],dx
0001C6F7  45                inc bp
0001C6F8  59                pop cx
0001C6F9  27                daa
0001C6FA  56                push si
0001C6FB  45                inc bp
0001C6FC  204152            and [bx+di+0x52],al
0001C6FF  4D                dec bp
0001C700  45                inc bp
0001C701  44                inc sp
0001C702  205448            and [si+0x48],dl
0001C705  45                inc bp
0001C706  4D                dec bp
0001C707  53                push bx
0001C708  45                inc bp
0001C709  4C                dec sp
0001C70A  56                push si
0001C70B  45                inc bp
0001C70C  53                push bx
0001C70D  0120              add [bx+si],sp
0001C70F  20414E            and [bx+di+0x4e],al
0001C712  44                inc sp
0001C713  204C45            and [si+0x45],cl
0001C716  41                inc cx
0001C717  52                push dx
0001C718  4E                dec si
0001C719  45                inc bp
0001C71A  44                inc sp
0001C71B  20544F            and [si+0x4f],dl
0001C71E  204649            and [bp+0x49],al
0001C721  47                inc di
0001C722  48                dec ax
0001C723  54                push sp
0001C724  2E015448          add [cs:si+0x48],dx
0001C728  45                inc bp
0001C729  53                push bx
0001C72A  45                inc bp
0001C72B  2022              and [bp+si],ah
0001C72D  54                push sp
0001C72E  45                inc bp
0001C72F  43                inc bx
0001C730  48                dec ax
0001C731  4E                dec si
0001C732  4F                dec di
0001C733  2D4241            sub ax,0x4142
0001C736  4E                dec si
0001C737  44                inc sp
0001C738  49                dec cx
0001C739  54                push sp
0001C73A  53                push bx
0001C73B  2220              and ah,[bx+si]
0001C73D  4E                dec si
0001C73E  4F                dec di
0001C73F  57                push di
0001C740  0120              add [bx+si],sp
0001C742  205343            and [bp+di+0x43],dl
0001C745  4F                dec di
0001C746  55                push bp
0001C747  52                push dx
0001C748  205448            and [si+0x48],dl
0001C74B  45                inc bp
0001C74C  204C41            and [si+0x41],cl
0001C74F  4E                dec si
0001C750  44                inc sp
0001C751  53                push bx
0001C752  01414E            add [bx+di+0x4e],ax
0001C755  44                inc sp
0001C756  204241            and [bp+si+0x41],al
0001C759  54                push sp
0001C75A  54                push sp
0001C75B  4C                dec sp
0001C75C  45                inc bp
0001C75D  205448            and [si+0x48],dl
0001C760  45                inc bp
0001C761  204755            and [bx+0x55],al
0001C764  41                inc cx
0001C765  52                push dx
0001C766  44                inc sp
0001C767  49                dec cx
0001C768  41                inc cx
0001C769  4E                dec si
0001C76A  53                push bx
0001C76B  0120              add [bx+si],sp
0001C76D  205748            and [bx+0x48],dl
0001C770  45                inc bp
0001C771  52                push dx
0001C772  45                inc bp
0001C773  56                push si
0001C774  45                inc bp
0001C775  52                push dx
0001C776  205448            and [si+0x48],dl
0001C779  45                inc bp
0001C77A  59                pop cx
0001C77B  205354            and [bp+di+0x54],dl
0001C77E  41                inc cx
0001C77F  4E                dec si
0001C780  44                inc sp
0001C781  2E0300            add ax,[cs:bx+si]
0001C784  7A02              jpe 0xc788
0001C786  0306494E          add ax,[0x4e49]
0001C78A  54                push sp
0001C78B  4F                dec di
0001C78C  20414C            and [bx+di+0x4c],al
0001C78F  4C                dec sp
0001C790  205448            and [si+0x48],dl
0001C793  49                dec cx
0001C794  53                push bx
0001C795  20434F            and [bp+di+0x4f],al
0001C798  4E                dec si
0001C799  46                inc si
0001C79A  55                push bp
0001C79B  53                push bx
0001C79C  49                dec cx
0001C79D  4F                dec di
0001C79E  4E                dec si
0001C79F  0120              add [bx+si],sp
0001C7A1  205448            and [si+0x48],dl
0001C7A4  45                inc bp
0001C7A5  205449            and [si+0x49],dl
0001C7A8  4D                dec bp
0001C7A9  45                inc bp
0001C7AA  204241            and [bp+si+0x41],al
0001C7AD  4E                dec si
0001C7AE  44                inc sp
0001C7AF  49                dec cx
0001C7B0  54                push sp
0001C7B1  20474F            and [bx+0x4f],al
0001C7B4  45                inc bp
0001C7B5  53                push bx
0001C7B6  2E01414D          add [cs:bx+di+0x4d],ax
0001C7BA  4F                dec di
0001C7BB  4E                dec si
0001C7BC  47                inc di
0001C7BD  205445            and [si+0x45],dl
0001C7C0  43                inc bx
0001C7C1  48                dec ax
0001C7C2  4E                dec si
0001C7C3  4F                dec di
0001C7C4  53                push bx
0001C7C5  20262047          and [0x4720],ah
0001C7C9  55                push bp
0001C7CA  41                inc cx
0001C7CB  52                push dx
0001C7CC  44                inc sp
0001C7CD  49                dec cx
0001C7CE  41                inc cx
0001C7CF  4E                dec si
0001C7D0  53                push bx
0001C7D1  0120              add [bx+si],sp
0001C7D3  204845            and [bx+si+0x45],cl
0001C7D6  204649            and [bp+0x49],al
0001C7D9  4E                dec si
0001C7DA  44                inc sp
0001C7DB  53                push bx
0001C7DC  204F4E            and [bx+0x4e],cl
0001C7DF  4C                dec sp
0001C7E0  59                pop cx
0001C7E1  20464F            and [bp+0x4f],al
0001C7E4  45                inc bp
0001C7E5  53                push bx
0001C7E6  2C01              sub al,0x1
0001C7E8  46                inc si
0001C7E9  4F                dec di
0001C7EA  52                push dx
0001C7EB  204845            and [bx+si+0x45],cl
0001C7EE  205441            and [si+0x41],dl
0001C7F1  4B                dec bx
0001C7F2  45                inc bp
0001C7F3  53                push bx
0001C7F4  205448            and [si+0x48],dl
0001C7F7  45                inc bp
0001C7F8  205452            and [si+0x52],dl
0001C7FB  45                inc bp
0001C7FC  41                inc cx
0001C7FD  53                push bx
0001C7FE  55                push bp
0001C7FF  52                push dx
0001C800  45                inc bp
0001C801  0120              add [bx+si],sp
0001C803  205448            and [si+0x48],dl
0001C806  41                inc cx
0001C807  54                push sp
0001C808  20424F            and [bp+si+0x4f],al
0001C80B  54                push sp
0001C80C  48                dec ax
0001C80D  205749            and [bx+0x49],dl
0001C810  53                push bx
0001C811  48                dec ax
0001C812  20544F            and [si+0x4f],dl
0001C815  204F57            and [bx+0x57],cl
0001C818  4E                dec si
0001C819  01414E            add [bx+di+0x4e],ax
0001C81C  44                inc sp
0001C81D  204341            and [bp+di+0x41],al
0001C820  52                push dx
0001C821  52                push dx
0001C822  49                dec cx
0001C823  45                inc bp
0001C824  53                push bx
0001C825  204954            and [bx+di+0x54],cl
0001C828  204F46            and [bx+0x46],cl
0001C82B  46                inc si
0001C82C  20464F            and [bp+0x4f],al
0001C82F  52                push dx
0001C830  0120              add [bx+si],sp
0001C832  205245            and [bp+si+0x45],dl
0001C835  41                inc cx
0001C836  53                push bx
0001C837  4F                dec di
0001C838  4E                dec si
0001C839  53                push bx
0001C83A  20554E            and [di+0x4e],dl
0001C83D  4B                dec bx
0001C83E  4E                dec si
0001C83F  4F                dec di
0001C840  57                push di
0001C841  4E                dec si
0001C842  2E2E2E0300        add ax,[cs:bx+si]
0001C847  E002              loopne 0xc84b
0001C849  050654            add ax,0x5406
0001C84C  48                dec ax
0001C84D  45                inc bp
0001C84E  204352            and [bp+di+0x52],al
0001C851  45                inc bp
0001C852  41                inc cx
0001C853  54                push sp
0001C854  4F                dec di
0001C855  52                push dx
0001C856  53                push bx
0001C857  204E4F            and [bp+0x4f],cl
0001C85A  57                push di
0001C85B  204F46            and [bx+0x46],cl
0001C85E  46                inc si
0001C85F  45                inc bp
0001C860  52                push dx
0001C861  0120              add [bx+si],sp
0001C863  205448            and [si+0x48],dl
0001C866  45                inc bp
0001C867  204241            and [bp+si+0x41],al
0001C86A  4E                dec si
0001C86B  44                inc sp
0001C86C  49                dec cx
0001C86D  54                push sp
0001C86E  204120            and [bx+di+0x20],al
0001C871  44                inc sp
0001C872  41                inc cx
0001C873  52                push dx
0001C874  45                inc bp
0001C875  015441            add [si+0x41],dx
0001C878  4B                dec bx
0001C879  49                dec cx
0001C87A  4E                dec si
0001C87B  47                inc di
0001C87C  204120            and [bx+di+0x20],al
0001C87F  53                push bx
0001C880  54                push sp
0001C881  52                push dx
0001C882  45                inc bp
0001C883  4E                dec si
0001C884  47                inc di
0001C885  54                push sp
0001C886  48                dec ax
0001C887  2C20              sub al,0x20
0001C889  53                push bx
0001C88A  4B                dec bx
0001C88B  49                dec cx
0001C88C  4C                dec sp
0001C88D  4C                dec sp
0001C88E  2C01              sub al,0x1
0001C890  2020              and [bx+si],ah
0001C892  41                inc cx
0001C893  4E                dec si
0001C894  44                inc sp
0001C895  204355            and [bp+di+0x55],al
0001C898  4E                dec si
0001C899  4E                dec si
0001C89A  49                dec cx
0001C89B  4E                dec si
0001C89C  47                inc di
0001C89D  20534F            and [bp+di+0x4f],dl
0001C8A0  205241            and [bp+si+0x41],dl
0001C8A3  52                push dx
0001C8A4  45                inc bp
0001C8A5  2E015749          add [cs:bx+0x49],dx
0001C8A9  4C                dec sp
0001C8AA  4C                dec sp
0001C8AB  205448            and [si+0x48],dl
0001C8AE  45                inc bp
0001C8AF  204348            and [bp+di+0x48],al
0001C8B2  41                inc cx
0001C8B3  4C                dec sp
0001C8B4  4C                dec sp
0001C8B5  45                inc bp
0001C8B6  4E                dec si
0001C8B7  47                inc di
0001C8B8  45                inc bp
0001C8B9  204245            and [bp+si+0x45],al
0001C8BC  204D45            and [di+0x45],cl
0001C8BF  54                push sp
0001C8C0  0120              add [bx+si],sp
0001C8C2  204259            and [bp+si+0x59],al
0001C8C5  204120            and [bx+di+0x20],al
0001C8C8  54                push sp
0001C8C9  52                push dx
0001C8CA  55                push bp
0001C8CB  45                inc bp
0001C8CC  204348            and [bp+di+0x48],al
0001C8CF  41                inc cx
0001C8D0  4D                dec bp
0001C8D1  50                push ax
0001C8D2  49                dec cx
0001C8D3  4F                dec di
0001C8D4  4E                dec si
0001C8D5  2C01              sub al,0x1
0001C8D7  4F                dec di
0001C8D8  52                push dx
0001C8D9  205749            and [bx+0x49],dl
0001C8DC  4C                dec sp
0001C8DD  4C                dec sp
0001C8DE  205448            and [si+0x48],dl
0001C8E1  45                inc bp
0001C8E2  204241            and [bp+si+0x41],al
0001C8E5  4E                dec si
0001C8E6  44                inc sp
0001C8E7  49                dec cx
0001C8E8  54                push sp
0001C8E9  20464C            and [bp+0x4c],al
0001C8EC  45                inc bp
0001C8ED  45                inc bp
0001C8EE  2C01              sub al,0x1
0001C8F0  2020              and [bx+si],ah
0001C8F2  41                inc cx
0001C8F3  44                inc sp
0001C8F4  4D                dec bp
0001C8F5  49                dec cx
0001C8F6  54                push sp
0001C8F7  54                push sp
0001C8F8  49                dec cx
0001C8F9  4E                dec si
0001C8FA  47                inc di
0001C8FB  205745            and [bx+0x45],dl
0001C8FE  27                daa
0001C8FF  56                push si
0001C900  45                inc bp
0001C901  20574F            and [bx+0x4f],dl
0001C904  4E                dec si
0001C905  3F                aas
0001C906  0204              add al,[si]
0001C908  06                push es
0001C909  0400              add al,0x0
0001C90B  004601            add [bp+0x1],al
0001C90E  54                push sp
0001C90F  48                dec ax
0001C910  45                inc bp
0001C911  204649            and [bp+0x49],al
0001C914  52                push dx
0001C915  53                push bx
0001C916  54                push sp
0001C917  205441            and [si+0x41],dl
0001C91A  53                push bx
0001C91B  4B                dec bx
0001C91C  204953            and [bx+di+0x53],cl
0001C91F  20544F            and [si+0x4f],dl
0001C922  204649            and [bp+0x49],al
0001C925  4E                dec si
0001C926  44                inc sp
0001C927  0120              add [bx+si],sp
0001C929  205448            and [si+0x48],dl
0001C92C  45                inc bp
0001C92D  204752            and [bx+0x52],al
0001C930  45                inc bp
0001C931  41                inc cx
0001C932  54                push sp
0001C933  204152            and [bx+di+0x52],al
0001C936  54                push sp
0001C937  49                dec cx
0001C938  46                inc si
0001C939  41                inc cx
0001C93A  43                inc bx
0001C93B  54                push sp
0001C93C  53                push bx
0001C93D  015448            add [si+0x48],dx
0001C940  41                inc cx
0001C941  54                push sp
0001C942  205448            and [si+0x48],dl
0001C945  45                inc bp
0001C946  204755            and [bx+0x55],al
0001C949  41                inc cx
0001C94A  52                push dx
0001C94B  44                inc sp
0001C94C  49                dec cx
0001C94D  41                inc cx
0001C94E  4E                dec si
0001C94F  53                push bx
0001C950  205354            and [bp+di+0x54],dl
0001C953  4F                dec di
0001C954  4C                dec sp
0001C955  45                inc bp
0001C956  0120              add [bx+si],sp
0001C958  204652            and [bp+0x52],al
0001C95B  4F                dec di
0001C95C  4D                dec bp
0001C95D  205448            and [si+0x48],dl
0001C960  45                inc bp
0001C961  205452            and [si+0x52],dl
0001C964  45                inc bp
0001C965  41                inc cx
0001C966  53                push bx
0001C967  55                push bp
0001C968  52                push dx
0001C969  59                pop cx
0001C96A  205241            and [bp+si+0x41],dl
0001C96D  43                inc bx
0001C96E  4B                dec bx
0001C96F  53                push bx
0001C970  2E014752          add [cs:bx+0x52],ax
0001C974  45                inc bp
0001C975  41                inc cx
0001C976  54                push sp
0001C977  204245            and [bp+si+0x45],al
0001C97A  41                inc cx
0001C97B  55                push bp
0001C97C  54                push sp
0001C97D  59                pop cx
0001C97E  20414E            and [bx+di+0x4e],al
0001C981  44                inc sp
0001C982  204D45            and [di+0x45],cl
0001C985  41                inc cx
0001C986  4E                dec si
0001C987  49                dec cx
0001C988  4E                dec si
0001C989  47                inc di
0001C98A  0120              add [bx+si],sp
0001C98C  205448            and [si+0x48],dl
0001C98F  45                inc bp
0001C990  53                push bx
0001C991  45                inc bp
0001C992  204152            and [bx+di+0x52],al
0001C995  54                push sp
0001C996  49                dec cx
0001C997  46                inc si
0001C998  41                inc cx
0001C999  43                inc bx
0001C99A  54                push sp
0001C99B  53                push bx
0001C99C  20484F            and [bx+si+0x4f],cl
0001C99F  4C                dec sp
0001C9A0  44                inc sp
0001C9A1  2C01              sub al,0x1
0001C9A3  47                inc di
0001C9A4  49                dec cx
0001C9A5  56                push si
0001C9A6  49                dec cx
0001C9A7  4E                dec si
0001C9A8  47                inc di
0001C9A9  205052            and [bx+si+0x52],dl
0001C9AC  45                inc bp
0001C9AD  53                push bx
0001C9AE  54                push sp
0001C9AF  49                dec cx
0001C9B0  47                inc di
0001C9B1  45                inc bp
0001C9B2  20414E            and [bx+di+0x4e],al
0001C9B5  44                inc sp
0001C9B6  20504F            and [bx+si+0x4f],dl
0001C9B9  57                push di
0001C9BA  45                inc bp
0001C9BB  52                push dx
0001C9BC  0120              add [bx+si],sp
0001C9BE  20544F            and [si+0x4f],dl
0001C9C1  205448            and [si+0x48],dl
0001C9C4  45                inc bp
0001C9C5  204241            and [bp+si+0x41],al
0001C9C8  4E                dec si
0001C9C9  44                inc sp
0001C9CA  49                dec cx
0001C9CB  54                push sp
0001C9CC  205448            and [si+0x48],dl
0001C9CF  49                dec cx
0001C9D0  53                push bx
0001C9D1  20424F            and [bp+si+0x4f],al
0001C9D4  4C                dec sp
0001C9D5  44                inc sp
0001C9D6  2E0202            add al,[cs:bp+si]
0001C9D9  06                push es
0001C9DA  0400              add al,0x0
0001C9DC  00AC0141          add [si+0x4101],ch
0001C9E0  205245            and [bp+si+0x45],dl
0001C9E3  41                inc cx
0001C9E4  4C                dec sp
0001C9E5  204D41            and [di+0x41],cl
0001C9E8  53                push bx
0001C9E9  54                push sp
0001C9EA  45                inc bp
0001C9EB  52                push dx
0001C9EC  204341            and [bp+di+0x41],al
0001C9EF  4E                dec si
0001C9F0  204143            and [bx+di+0x43],al
0001C9F3  54                push sp
0001C9F4  55                push bp
0001C9F5  41                inc cx
0001C9F6  4C                dec sp
0001C9F7  4C                dec sp
0001C9F8  59                pop cx
0001C9F9  0120              add [bx+si],sp
0001C9FB  20434F            and [bp+di+0x4f],al
0001C9FE  4E                dec si
0001C9FF  51                push cx
0001CA00  55                push bp
0001CA01  45                inc bp
0001CA02  52                push dx
0001CA03  204120            and [bx+di+0x20],al
0001CA06  4D                dec bp
0001CA07  41                inc cx
0001CA08  5A                pop dx
0001CA09  45                inc bp
0001CA0A  014259            add [bp+si+0x59],ax
0001CA0D  204445            and [si+0x45],al
0001CA10  46                inc si
0001CA11  45                inc bp
0001CA12  41                inc cx
0001CA13  54                push sp
0001CA14  49                dec cx
0001CA15  4E                dec si
0001CA16  47                inc di
0001CA17  2034              and [si],dh
0001CA19  44                inc sp
0001CA1A  2C20              sub al,0x20
0001CA1C  49                dec cx
0001CA1D  54                push sp
0001CA1E  53                push bx
0001CA1F  204D4F            and [di+0x4f],cl
0001CA22  53                push bx
0001CA23  54                push sp
0001CA24  0120              add [bx+si],sp
0001CA26  204F4D            and [bx+0x4d],cl
0001CA29  49                dec cx
0001CA2A  4E                dec si
0001CA2B  4F                dec di
0001CA2C  55                push bp
0001CA2D  53                push bx
0001CA2E  205048            and [bx+si+0x48],dl
0001CA31  41                inc cx
0001CA32  53                push bx
0001CA33  45                inc bp
0001CA34  2E015448          add [cs:si+0x48],dx
0001CA38  45                inc bp
0001CA39  204741            and [bx+0x41],al
0001CA3C  54                push sp
0001CA3D  45                inc bp
0001CA3E  53                push bx
0001CA3F  204341            and [bp+di+0x41],al
0001CA42  4E                dec si
0001CA43  204245            and [bp+si+0x45],al
0001CA46  204252            and [bp+si+0x52],al
0001CA49  4F                dec di
0001CA4A  4B                dec bx
0001CA4B  45                inc bp
0001CA4C  4E                dec si
0001CA4D  2C01              sub al,0x1
0001CA4F  2020              and [bx+si],ah
0001CA51  4F                dec di
0001CA52  4E                dec si
0001CA53  45                inc bp
0001CA54  204259            and [bp+si+0x59],al
0001CA57  204F4E            and [bx+0x4e],cl
0001CA5A  45                inc bp
0001CA5B  2C01              sub al,0x1
0001CA5D  42                inc dx
0001CA5E  55                push bp
0001CA5F  54                push sp
0001CA60  205749            and [bx+0x49],dl
0001CA63  4E                dec si
0001CA64  4E                dec si
0001CA65  49                dec cx
0001CA66  4E                dec si
0001CA67  47                inc di
0001CA68  205448            and [si+0x48],dl
0001CA6B  45                inc bp
0001CA6C  4D                dec bp
0001CA6D  20414C            and [bx+di+0x4c],al
0001CA70  4C                dec sp
0001CA71  204841            and [bx+si+0x41],cl
0001CA74  53                push bx
0001CA75  0120              add [bx+si],sp
0001CA77  204E45            and [bp+0x45],cl
0001CA7A  56                push si
0001CA7B  45                inc bp
0001CA7C  52                push dx
0001CA7D  204245            and [bp+si+0x45],al
0001CA80  45                inc bp
0001CA81  4E                dec si
0001CA82  20444F            and [si+0x4f],al
0001CA85  4E                dec si
0001CA86  45                inc bp
0001CA87  2E2E2E0000        add [cs:bx+si],al
0001CA8C  FA                cli
0001CA8D  692D6B45          imul bp,[di],word 0x456b
0001CA91  6B606B89          imul sp,[bx+si+0x6b],byte -0x77
0001CA95  6BA56BBD6B        imul sp,[di-0x4295],byte +0x6b
0001CA9A  EC                in al,dx
0001CA9B  6B976C216D        imul dx,[bx+0x216c],byte +0x6d
0001CAA0  7B6D              jpo 0xcb0f
0001CAA2  C7                db 0xc7
0001CAA3  6D                insw
0001CAA4  E56D              in ax,0x6d
0001CAA6  356E6F            xor ax,0x6f6e
0001CAA9  6E                outsb
0001CAAA  F06E              lock outsb
0001CAAC  1A6F56            sbb ch,[bx+0x56]
0001CAAF  6F                outsw
0001CAB0  CB                retf
0001CAB1  6F                outsw
0001CAB2  DE6F5D            fisubr word [bx+0x5d]
0001CAB5  7002              jo 0xcab9
0001CAB7  7120              jno 0xcad9
0001CAB9  71F2              jno 0xcaad
0001CABB  715C              jno 0xcb19
0001CABD  756B              jnz 0xcb2a
0001CABF  7901              jns 0xcac2
0001CAC1  7A85              jpe 0xca48
0001CAC3  7A09              jpe 0xcace
0001CAC5  7B02              jpo 0xcac9
0001CAC7  0005              add [di],al
0001CAC9  00FF              add bh,bh
0001CACB  0111              add [bx+di],dx
0001CACD  0029              add [bx+di],ch
0001CACF  00FF              add bh,bh
0001CAD1  0101              add [bx+di],ax
0001CAD3  000C              add [si],cl
0001CAD5  00FF              add bh,bh
0001CAD7  0021              add [bx+di],ah
0001CAD9  0025              add [di],ah
0001CADB  00FF              add bh,bh
0001CADD  0018              add [bx+si],bl
0001CADF  000B              add [bp+di],cl
0001CAE1  00FF              add bh,bh
0001CAE3  0009              add [bx+di],cl
0001CAE5  005900            add [bx+di+0x0],bl
0001CAE8  FF01              inc word [bx+di]
0001CAEA  0400              add al,0x0
0001CAEC  8500              test [bx+si],ax
0001CAEE  FF03              inc word [bp+di]
0001CAF0  050030            add ax,0x3000
0001CAF3  00FF              add bh,bh
0001CAF5  0010              add [bx+si],dl
0001CAF7  0013              add [bp+di],dl
0001CAF9  00FF              add bh,bh
0001CAFB  0030              add [bx+si],dh
0001CAFD  000F              add [bx],cl
0001CAFF  00FF              add bh,bh
0001CB01  0008              add [bx+si],cl
0001CB03  008B00FF          add [bp+di-0x100],cl
0001CB07  0001              add [bx+di],al
0001CB09  0025              add [di],ah
0001CB0B  00FF              add bh,bh
0001CB0D  0014              add [si],dl
0001CB0F  0013              add [bp+di],dl
0001CB11  00FF              add bh,bh
0001CB13  0004              add [si],al
0001CB15  0015              add [di],dl
0001CB17  00FF              add bh,bh
0001CB19  0001              add [bx+di],al
0001CB1B  006900            add [bx+di+0x0],ch
0001CB1E  FF00              inc word [bx+si]
0001CB20  1200              adc al,[bx+si]
0001CB22  A4                movsb
0001CB23  00FF              add bh,bh
0001CB25  0001              add [bx+di],al
0001CB27  001B              add [bp+di],bl
0001CB29  00FF              add bh,bh
0001CB2B  0001              add [bx+di],al
0001CB2D  000E00FF          add [0xff00],cl
0001CB31  0028              add [bx+si],ch
0001CB33  002A              add [bp+si],ch
0001CB35  00FF              add bh,bh
0001CB37  0009              add [bx+di],cl
0001CB39  006D00            add [di+0x0],ch
0001CB3C  FF03              inc word [bp+di]
0001CB3E  1100              adc [bx+si],ax
0001CB40  9A00FF0001        call 0x100:0xff00
0001CB45  004600            add [bp+0x0],al
0001CB48  FF00              inc word [bx+si]
0001CB4A  0100              add [bx+si],ax
0001CB4C  1F                pop ds
0001CB4D  003F              add [bx],bh
0001CB4F  0001              add [bx+di],al
0001CB51  0001              add [bx+di],al
0001CB53  0001              add [bx+di],al
0001CB55  0001              add [bx+di],al
0001CB57  0001              add [bx+di],al
0001CB59  0001              add [bx+di],al
0001CB5B  0002              add [bp+si],al
0001CB5D  0005              add [di],al
0001CB5F  00FF              add bh,bh
0001CB61  010E0056          add [0x5600],cx
0001CB65  00FF              add bh,bh
0001CB67  010A              add [bp+si],cx
0001CB69  0015              add [di],dl
0001CB6B  00FF              add bh,bh
0001CB6D  0023              add [bp+di],ah
0001CB6F  0035              add [di],dh
0001CB71  00FF              add bh,bh
0001CB73  001A              add [bp+si],bl
0001CB75  001D              add [di],bl
0001CB77  00FF              add bh,bh
0001CB79  0013              add [bp+di],dl
0001CB7B  0033              add [bp+di],dh
0001CB7D  00FF              add bh,bh
0001CB7F  010A              add [bp+si],cx
0001CB81  0019              add [bx+di],bl
0001CB83  00FF              add bh,bh
0001CB85  0315              add dx,[di]
0001CB87  001A              add [bp+si],bl
0001CB89  00FF              add bh,bh
0001CB8B  000A              add [bp+si],cl
0001CB8D  005600            add [bp+0x0],dl
0001CB90  FF00              inc word [bx+si]
0001CB92  3800              cmp [bx+si],al
0001CB94  2600FF            es add bh,bh
0001CB97  0019              add [bx+di],bl
0001CB99  005B00            add [bp+di+0x0],bl
0001CB9C  FF00              inc word [bx+si]
0001CB9E  0A00              or al,[bx+si]
0001CBA0  3600FF            ss add bh,bh
0001CBA3  0023              add [bp+di],ah
0001CBA5  009A00FF          add [bp+si-0x100],bl
0001CBA9  000C              add [si],cl
0001CBAB  003B              add [bp+di],bh
0001CBAD  00FF              add bh,bh
0001CBAF  000A              add [bp+si],cl
0001CBB1  009600FF          add [bp-0x100],dl
0001CBB5  001600AD          add [0xad00],dl
0001CBB9  00FF              add bh,bh
0001CBBB  0009              add [bx+di],cl
0001CBBD  002B              add [bp+di],ch
0001CBBF  00FF              add bh,bh
0001CBC1  00060033          add [0x3300],al
0001CBC5  00FF              add bh,bh
0001CBC7  0015              add [di],dl
0001CBC9  001C              add [si],bl
0001CBCB  00FF              add bh,bh
0001CBCD  000B              add [bp+di],cl
0001CBCF  00BE00FF          add [bp-0x100],bh
0001CBD3  0313              add dx,[bp+di]
0001CBD5  007300            add [bp+di+0x0],dh
0001CBD8  FF00              inc word [bx+si]
0001CBDA  0300              add ax,[bx+si]
0001CBDC  5C                pop sp
0001CBDD  00FF              add bh,bh
0001CBDF  0001              add [bx+di],al
0001CBE1  000600FF          add [0xff00],al
0001CBE5  0117              add [bx],dx
0001CBE7  003E00FF          add [0xff00],bh
0001CBEB  0113              add [bp+di],dx
0001CBED  001E00FF          add [0xff00],bl
0001CBF1  002B              add [bp+di],ch
0001CBF3  003D              add [di],bh
0001CBF5  00FF              add bh,bh
0001CBF7  001B              add [bp+di],bl
0001CBF9  002D              add [di],ch
0001CBFB  00FF              add bh,bh
0001CBFD  0D1B00            or ax,0x1b
0001CC00  5B                pop bx
0001CC01  00FF              add bh,bh
0001CC03  010D              add [di],cx
0001CC05  00DC              add ah,bl
0001CC07  00FF              add bh,bh
0001CC09  032D              add bp,[di]
0001CC0B  002E00FF          add [0xff00],ch
0001CC0F  0013              add [bp+di],dl
0001CC11  004200            add [bp+si+0x0],al
0001CC14  FF00              inc word [bx+si]
0001CC16  3A00              cmp al,[bx+si]
0001CC18  1F                pop ds
0001CC19  00FF              add bh,bh
0001CC1B  001D              add [di],bl
0001CC1D  00AF00FF          add [bx-0x100],ch
0001CC21  000E0035          add [0x3500],cl
0001CC25  00FF              add bh,bh
0001CC27  00360073          add [0x7300],dh
0001CC2B  00FF              add bh,bh
0001CC2D  000D              add [di],cl
0001CC2F  003F              add [bx],bh
0001CC31  00FF              add bh,bh
0001CC33  0007              add [bx],al
0001CC35  003B              add [bp+di],bh
0001CC37  00FF              add bh,bh
0001CC39  0036005B          add [0x5b00],dh
0001CC3D  00FF              add bh,bh
0001CC3F  99                cwd
0001CC40  0E                push cs
0001CC41  002F              add [bx],ch
0001CC43  00FF              add bh,bh
0001CC45  000D              add [di],cl
0001CC47  003E00FF          add [0xff00],bh
0001CC4B  0035              add [di],dh
0001CC4D  003D              add [di],bh
0001CC4F  00FF              add bh,bh
0001CC51  000D              add [di],cl
0001CC53  00D7              add bh,dl
0001CC55  00FF              add bh,bh
0001CC57  031D              add bx,[di]
0001CC59  006D00            add [di+0x0],ch
0001CC5C  FF00              inc word [bx+si]
0001CC5E  07                pop es
0001CC5F  006E00            add [bp+0x0],ch
0001CC62  FF00              inc word [bx+si]
0001CC64  0400              add al,0x0
0001CC66  0300              add ax,[bx+si]
0001CC68  FF01              inc word [bx+di]
0001CC6A  1F                pop ds
0001CC6B  007F00            add [bx+0x0],bh
0001CC6E  FF01              inc word [bx+di]
0001CC70  1F                pop ds
0001CC71  001F              add [bx],bl
0001CC73  00FF              add bh,bh
0001CC75  003F              add [bx],bh
0001CC77  007F00            add [bx+0x0],bh
0001CC7A  FF00              inc word [bx+si]
0001CC7C  1F                pop ds
0001CC7D  003F              add [bx],bh
0001CC7F  00FF              add bh,bh
0001CC81  1F                pop ds
0001CC82  1F                pop ds
0001CC83  007F00            add [bx+0x0],bh
0001CC86  FF01              inc word [bx+di]
0001CC88  0F                db 0x0f
0001CC89  00FF              add bh,bh
0001CC8B  00FF              add bh,bh
0001CC8D  033F              add di,[bx]
0001CC8F  007F00            add [bx+0x0],bh
0001CC92  FF00              inc word [bx+si]
0001CC94  1F                pop ds
0001CC95  007F00            add [bx+0x0],bh
0001CC98  FF00              inc word [bx+si]
0001CC9A  3F                aas
0001CC9B  003F              add [bx],bh
0001CC9D  00FF              add bh,bh
0001CC9F  001F              add [bx],bl
0001CCA1  00FF              add bh,bh
0001CCA3  00FF              add bh,bh
0001CCA5  000F              add [bx],cl
0001CCA7  003F              add [bx],bh
0001CCA9  00FF              add bh,bh
0001CCAB  003F              add [bx],bh
0001CCAD  00FF              add bh,bh
0001CCAF  00FF              add bh,bh
0001CCB1  000F              add [bx],cl
0001CCB3  007F00            add [bx+0x0],bh
0001CCB6  FF00              inc word [bx+si]
0001CCB8  0F006F00          verw [bx+0x0]
0001CCBC  FF00              inc word [bx+si]
0001CCBE  3F                aas
0001CCBF  003F              add [bx],bh
0001CCC1  00FF              add bh,bh
0001CCC3  FF0F              dec word [bx]
0001CCC5  003F              add [bx],bh
0001CCC7  00FF              add bh,bh
0001CCC9  000F              add [bx],cl
0001CCCB  003F              add [bx],bh
0001CCCD  00FF              add bh,bh
0001CCCF  001F              add [bx],bl
0001CCD1  003F              add [bx],bh
0001CCD3  00FF              add bh,bh
0001CCD5  000F              add [bx],cl
0001CCD7  00FF              add bh,bh
0001CCD9  00FF              add bh,bh
0001CCDB  031F              add bx,[bx]
0001CCDD  00FF              add bh,bh
0001CCDF  00FF              add bh,bh
0001CCE1  000F              add [bx],cl
0001CCE3  007F00            add [bx+0x0],bh
0001CCE6  FF00              inc word [bx+si]
0001CCE8  0000              add [bx+si],al
0001CCEA  00E3              add bl,ah
0001CCEC  848985B7          test [bx+di-0x487b],cl
0001CCF0  851B              test [bp+di],bx
0001CCF2  90                nop
0001CCF3  0000              add [bx+si],al
0001CCF5  0000              add [bx+si],al
0001CCF7  0000              add [bx+si],al
0001CCF9  0000              add [bx+si],al
0001CCFB  0000              add [bx+si],al
0001CCFD  0000              add [bx+si],al
0001CCFF  0000              add [bx+si],al
0001CD01  0000              add [bx+si],al
0001CD03  AA                stosb
0001CD04  AA                stosb
0001CD05  55                push bp
0001CD06  55                push bp
0001CD07  AA                stosb
0001CD08  AA                stosb
0001CD09  55                push bp
0001CD0A  55                push bp
0001CD0B  AA                stosb
0001CD0C  AA                stosb
0001CD0D  FF                db 0xff
0001CD0E  FF                db 0xff
0001CD0F  FF                db 0xff
0001CD10  FF                db 0xff
0001CD11  FF                db 0xff
0001CD12  FF                db 0xff
0001CD13  FF                db 0xff
0001CD14  FF                db 0xff
0001CD15  FF                db 0xff
0001CD16  FF                db 0xff
0001CD17  FF                db 0xff
0001CD18  FF                db 0xff
0001CD19  FF                db 0xff
0001CD1A  FF                db 0xff
0001CD1B  FF                db 0xff
0001CD1C  FF23              jmp [bp+di]
0001CD1E  9C                pushf
0001CD1F  F259              repne pop cx
0001CD21  95                xchg ax,bp
0001CD22  D09C23C1          rcr byte [si-0x3edd],1
0001CD26  8E99AD02          mov ds,[bx+di+0x2ad]
0001CD2A  00B74001          add [bx+0x140],dh
0001CD2E  0000              add [bx+si],al
0001CD30  0000              add [bx+si],al
0001CD32  FF                db 0xff
0001CD33  FF00              inc word [bx+si]
0001CD35  0000              add [bx+si],al
0001CD37  0000              add [bx+si],al
0001CD39  0000              add [bx+si],al
0001CD3B  0000              add [bx+si],al
0001CD3D  0000              add [bx+si],al
0001CD3F  0000              add [bx+si],al
0001CD41  0000              add [bx+si],al
0001CD43  0000              add [bx+si],al
0001CD45  0000              add [bx+si],al
0001CD47  0000              add [bx+si],al
0001CD49  FC                cld
0001CD4A  0002              add [bp+si],al
0001CD4C  00FC              add ah,bh
0001CD4E  92                xchg ax,dx
0001CD4F  C3                ret
0001CD50  A7                cmpsw
0001CD51  51                push cx
0001CD52  0000              add [bx+si],al
0001CD54  0000              add [bx+si],al
0001CD56  0000              add [bx+si],al
0001CD58  0000              add [bx+si],al
0001CD5A  0000              add [bx+si],al
0001CD5C  0000              add [bx+si],al
0001CD5E  0000              add [bx+si],al
0001CD60  0000              add [bx+si],al
0001CD62  02060750          add al,[0x5007]
0001CD66  46                inc si
0001CD67  3102              xor [bp+si],ax
0001CD69  0303              add ax,[bp+di]
0001CD6B  20534F            and [bp+di+0x4f],dl
0001CD6E  4C                dec sp
0001CD6F  4F                dec di
0001CD70  204B45            and [bp+di+0x45],cl
0001CD73  59                pop cx
0001CD74  42                inc dx
0001CD75  4F                dec di
0001CD76  41                inc cx
0001CD77  52                push dx
0001CD78  44                inc sp
0001CD79  0100              add [bx+si],ax
0001CD7B  02060750          add al,[0x5007]
0001CD7F  46                inc si
0001CD80  3202              xor al,[bp+si]
0001CD82  0303              add ax,[bp+di]
0001CD84  20534F            and [bp+di+0x4f],dl
0001CD87  4C                dec sp
0001CD88  4F                dec di
0001CD89  204A4F            and [bp+si+0x4f],cl
0001CD8C  59                pop cx
0001CD8D  53                push bx
0001CD8E  54                push sp
0001CD8F  49                dec cx
0001CD90  43                inc bx
0001CD91  4B                dec bx
0001CD92  0100              add [bx+si],ax
0001CD94  02060750          add al,[0x5007]
0001CD98  46                inc si
0001CD99  3302              xor ax,[bp+si]
0001CD9B  0303              add ax,[bp+di]
0001CD9D  204455            and [si+0x55],al
0001CDA0  41                inc cx
0001CDA1  4C                dec sp
0001CDA2  205354            and [bp+di+0x54],dl
0001CDA5  49                dec cx
0001CDA6  43                inc bx
0001CDA7  4B                dec bx
0001CDA8  2F                das
0001CDA9  4B                dec bx
0001CDAA  45                inc bp
0001CDAB  59                pop cx
0001CDAC  53                push bx
0001CDAD  0100              add [bx+si],ax
0001CDAF  02060750          add al,[0x5007]
0001CDB3  46                inc si
0001CDB4  3402              xor al,0x2
0001CDB6  0303              add ax,[bp+di]
0001CDB8  204455            and [si+0x55],al
0001CDBB  41                inc cx
0001CDBC  4C                dec sp
0001CDBD  2032              and [bp+si],dh
0001CDBF  204A4F            and [bp+si+0x4f],cl
0001CDC2  59                pop cx
0001CDC3  53                push bx
0001CDC4  54                push sp
0001CDC5  49                dec cx
0001CDC6  43                inc bx
0001CDC7  4B                dec bx
0001CDC8  0005              add [di],al
0001CDCA  0300              add ax,[bx+si]
0001CDCC  BC0205            mov sp,0x502
0001CDCF  054259            add ax,0x5942
0001CDD2  204249            and [bp+si+0x49],al
0001CDD5  4C                dec sp
0001CDD6  4C                dec sp
0001CDD7  204455            and [si+0x55],al
0001CDDA  4E                dec si
0001CDDB  4C                dec sp
0001CDDC  45                inc bp
0001CDDD  56                push si
0001CDDE  59                pop cx
0001CDDF  20262048          and [0x4820],ah
0001CDE3  41                inc cx
0001CDE4  52                push dx
0001CDE5  52                push dx
0001CDE6  59                pop cx
0001CDE7  204C41            and [si+0x41],cl
0001CDEA  46                inc si
0001CDEB  4E                dec si
0001CDEC  45                inc bp
0001CDED  41                inc cx
0001CDEE  52                push dx
0001CDEF  0364BC            add sp,[si-0x44]
0001CDF2  284329            sub [bp+di+0x29],al
0001CDF5  2031              and [bx+di],dh
0001CDF7  3938              cmp [bx+si],di
0001CDF9  3420              xor al,0x20
0001CDFB  4D                dec bp
0001CDFC  49                dec cx
0001CDFD  43                inc bx
0001CDFE  48                dec ax
0001CDFF  54                push sp
0001CE00  52                push dx
0001CE01  4F                dec di
0001CE02  4E                dec si
0001CE03  0005              add [di],al
0001CE05  205745            and [bx+0x45],dl
0001CE08  4C                dec sp
0001CE09  43                inc bx
0001CE0A  4F                dec di
0001CE0B  4D                dec bp
0001CE0C  45                inc bp
0001CE0D  20544F            and [si+0x4f],dl
0001CE10  205449            and [si+0x49],dl
0001CE13  4D                dec bp
0001CE14  45                inc bp
0001CE15  204241            and [bp+si+0x41],al
0001CE18  4E                dec si
0001CE19  44                inc sp
0001CE1A  49                dec cx
0001CE1B  54                push sp
0001CE1C  3A01              cmp al,[bx+di]
0001CE1E  2020              and [bx+si],ah
0001CE20  54                push sp
0001CE21  48                dec ax
0001CE22  45                inc bp
0001CE23  204144            and [bx+di+0x44],al
0001CE26  56                push si
0001CE27  45                inc bp
0001CE28  4E                dec si
0001CE29  54                push sp
0001CE2A  55                push bp
0001CE2B  52                push dx
0001CE2C  45                inc bp
0001CE2D  204152            and [bx+di+0x52],al
0001CE30  43                inc bx
0001CE31  41                inc cx
0001CE32  44                inc sp
0001CE33  45                inc bp
0001CE34  2100              and [bx+si],ax
0001CE36  006405            add [si+0x5],ah
0001CE39  4D                dec bp
0001CE3A  4F                dec di
0001CE3B  56                push si
0001CE3C  45                inc bp
0001CE3D  205448            and [si+0x48],dl
0001CE40  45                inc bp
0001CE41  204241            and [bp+si+0x41],al
0001CE44  4E                dec si
0001CE45  44                inc sp
0001CE46  49                dec cx
0001CE47  54                push sp
0001CE48  205553            and [di+0x53],dl
0001CE4B  49                dec cx
0001CE4C  4E                dec si
0001CE4D  47                inc di
0001CE4E  205448            and [si+0x48],dl
0001CE51  45                inc bp
0001CE52  014A4F            add [bp+si+0x4f],cx
0001CE55  59                pop cx
0001CE56  53                push bx
0001CE57  54                push sp
0001CE58  49                dec cx
0001CE59  43                inc bx
0001CE5A  4B                dec bx
0001CE5B  204F52            and [bx+0x52],cl
0001CE5E  204152            and [bx+di+0x52],al
0001CE61  52                push dx
0001CE62  4F                dec di
0001CE63  57                push di
0001CE64  204B45            and [bp+di+0x45],cl
0001CE67  59                pop cx
0001CE68  53                push bx
0001CE69  2E0000            add [cs:bx+si],al
0001CE6C  3202              xor al,[bp+si]
0001CE6E  0403              add al,0x3
0001CE70  0804              or [si],al
0001CE72  0801              or [bx+di],al
0001CE74  0802              or [bp+si],al
0001CE76  0800              or [bx+si],al
0001CE78  1905              sbb [di],ax
0001CE7A  54                push sp
0001CE7B  48                dec ax
0001CE7C  45                inc bp
0001CE7D  53                push bx
0001CE7E  45                inc bp
0001CE7F  204152            and [bx+di+0x52],al
0001CE82  45                inc bp
0001CE83  20534F            and [bp+di+0x4f],dl
0001CE86  4C                dec sp
0001CE87  49                dec cx
0001CE88  44                inc sp
0001CE89  204C41            and [si+0x41],cl
0001CE8C  4E                dec si
0001CE8D  44                inc sp
0001CE8E  4D                dec bp
0001CE8F  41                inc cx
0001CE90  52                push dx
0001CE91  4B                dec bx
0001CE92  53                push bx
0001CE93  3B01              cmp ax,[bx+di]
0001CE95  59                pop cx
0001CE96  4F                dec di
0001CE97  55                push bp
0001CE98  204341            and [bp+di+0x41],al
0001CE9B  4E                dec si
0001CE9C  27                daa
0001CE9D  54                push sp
0001CE9E  20474F            and [bx+0x4f],al
0001CEA1  205448            and [si+0x48],dl
0001CEA4  52                push dx
0001CEA5  4F                dec di
0001CEA6  55                push bp
0001CEA7  47                inc di
0001CEA8  48                dec ax
0001CEA9  205448            and [si+0x48],dl
0001CEAC  45                inc bp
0001CEAD  4D                dec bp
0001CEAE  2E0000            add [cs:bx+si],al
0001CEB1  1C03              sbb al,0x3
0001CEB3  0202              add al,[bp+si]
0001CEB5  0401              add al,0x1
0001CEB7  0200              add al,[bx+si]
0001CEB9  0C03              or al,0x3
0001CEBB  0404              add al,0x4
0001CEBD  0203              add al,[bp+di]
0001CEBF  0204              add al,[si]
0001CEC1  06                push es
0001CEC2  0102              add [bp+si],ax
0001CEC4  0008              add [bx+si],cl
0001CEC6  0304              add ax,[si]
0001CEC8  0404              add al,0x4
0001CECA  01060402          add [0x204],ax
0001CECE  0004              add [si],al
0001CED0  0202              add al,[bp+si]
0001CED2  03060202          add ax,[0x202]
0001CED6  0004              add [si],al
0001CED8  0805              or [di],al
0001CEDA  57                push di
0001CEDB  48                dec ax
0001CEDC  45                inc bp
0001CEDD  4E                dec si
0001CEDE  20594F            and [bx+di+0x4f],bl
0001CEE1  55                push bp
0001CEE2  205245            and [bp+si+0x45],dl
0001CEE5  41                inc cx
0001CEE6  43                inc bx
0001CEE7  48                dec ax
0001CEE8  205448            and [si+0x48],dl
0001CEEB  45                inc bp
0001CEEC  204544            and [di+0x44],al
0001CEEF  47                inc di
0001CEF0  45                inc bp
0001CEF1  2C01              sub al,0x1
0001CEF3  54                push sp
0001CEF4  48                dec ax
0001CEF5  45                inc bp
0001CEF6  204D41            and [di+0x41],cl
0001CEF9  50                push ax
0001CEFA  204D4F            and [di+0x4f],cl
0001CEFD  56                push si
0001CEFE  45                inc bp
0001CEFF  53                push bx
0001CF00  2100              and [bx+si],ax
0001CF02  0028              add [bx+si],ch
0001CF04  030C              add cx,[si]
0001CF06  000F              add [bx],cl
0001CF08  0805              or [di],al
0001CF0A  4F                dec di
0001CF0B  4E                dec si
0001CF0C  45                inc bp
0001CF0D  2D5741            sub ax,0x4157
0001CF10  59                pop cx
0001CF11  20444F            and [si+0x4f],al
0001CF14  4F                dec di
0001CF15  52                push dx
0001CF16  53                push bx
0001CF17  204C45            and [si+0x45],cl
0001CF1A  54                push sp
0001CF1B  20594F            and [bx+di+0x4f],bl
0001CF1E  55                push bp
0001CF1F  204D4F            and [di+0x4f],cl
0001CF22  56                push si
0001CF23  45                inc bp
0001CF24  01494E            add [bx+di+0x4e],cx
0001CF27  204449            and [si+0x49],al
0001CF2A  52                push dx
0001CF2B  45                inc bp
0001CF2C  43                inc bx
0001CF2D  54                push sp
0001CF2E  49                dec cx
0001CF2F  4F                dec di
0001CF30  4E                dec si
0001CF31  204F46            and [bx+0x46],cl
0001CF34  204152            and [bx+di+0x52],al
0001CF37  52                push dx
0001CF38  4F                dec di
0001CF39  57                push di
0001CF3A  53                push bx
0001CF3B  204F4E            and [bx+0x4e],cl
0001CF3E  4C                dec sp
0001CF3F  59                pop cx
0001CF40  0000              add [bx+si],al
0001CF42  2D0404            sub ax,0x404
0001CF45  01060204          add [0x402],ax
0001CF49  03060206          add ax,[0x602]
0001CF4D  0008              add [bx+si],cl
0001CF4F  0404              add al,0x4
0001CF51  0204              add al,[si]
0001CF53  0008              add [bx+si],cl
0001CF55  01060204          add [0x402],ax
0001CF59  03060408          add ax,[0x804]
0001CF5D  000C              add [si],cl
0001CF5F  0803              or [bp+di],al
0001CF61  0801              or [bx+di],al
0001CF63  0400              add al,0x0
0001CF65  0405              add al,0x5
0001CF67  54                push sp
0001CF68  48                dec ax
0001CF69  45                inc bp
0001CF6A  53                push bx
0001CF6B  45                inc bp
0001CF6C  204152            and [bx+di+0x52],al
0001CF6F  45                inc bp
0001CF70  204556            and [di+0x56],al
0001CF73  49                dec cx
0001CF74  4C                dec sp
0001CF75  20504F            and [bx+si+0x4f],dl
0001CF78  52                push dx
0001CF79  54                push sp
0001CF7A  41                inc cx
0001CF7B  4C                dec sp
0001CF7C  53                push bx
0001CF7D  3B01              cmp ax,[bx+di]
0001CF7F  43                inc bx
0001CF80  52                push dx
0001CF81  45                inc bp
0001CF82  41                inc cx
0001CF83  54                push sp
0001CF84  55                push bp
0001CF85  52                push dx
0001CF86  45                inc bp
0001CF87  53                push bx
0001CF88  20454D            and [di+0x4d],al
0001CF8B  45                inc bp
0001CF8C  52                push dx
0001CF8D  47                inc di
0001CF8E  45                inc bp
0001CF8F  204652            and [bp+0x52],al
0001CF92  4F                dec di
0001CF93  4D                dec bp
0001CF94  205448            and [si+0x48],dl
0001CF97  45                inc bp
0001CF98  4D                dec bp
0001CF99  2E0000            add [cs:bx+si],al
0001CF9C  3208              xor cl,[bx+si]
0001CF9E  055553            add ax,0x5355
0001CFA1  45                inc bp
0001CFA2  205350            and [bp+di+0x50],dl
0001CFA5  41                inc cx
0001CFA6  43                inc bx
0001CFA7  45                inc bp
0001CFA8  42                inc dx
0001CFA9  41                inc cx
0001CFAA  52                push dx
0001CFAB  204F52            and [bx+0x52],cl
0001CFAE  204A4F            and [bp+si+0x4f],cl
0001CFB1  59                pop cx
0001CFB2  53                push bx
0001CFB3  54                push sp
0001CFB4  49                dec cx
0001CFB5  43                inc bx
0001CFB6  4B                dec bx
0001CFB7  014255            add [bp+si+0x55],ax
0001CFBA  54                push sp
0001CFBB  54                push sp
0001CFBC  4F                dec di
0001CFBD  4E                dec si
0001CFBE  20544F            and [si+0x4f],dl
0001CFC1  205348            and [bp+di+0x48],dl
0001CFC4  4F                dec di
0001CFC5  4F                dec di
0001CFC6  54                push sp
0001CFC7  204352            and [bp+di+0x52],al
0001CFCA  45                inc bp
0001CFCB  41                inc cx
0001CFCC  54                push sp
0001CFCD  55                push bp
0001CFCE  52                push dx
0001CFCF  45                inc bp
0001CFD0  53                push bx
0001CFD1  2100              and [bx+si],ax
0001CFD3  06                push es
0001CFD4  090E0303          or [0x303],cx
0001CFD8  000E0201          add [0x102],cl
0001CFDC  06                push es
0001CFDD  000E0401          add [0x104],cl
0001CFE1  07                pop es
0001CFE2  0401              add al,0x1
0001CFE4  000D              add [di],cl
0001CFE6  07                pop es
0001CFE7  06                push es
0001CFE8  090E0503          or [0x305],cx
0001CFEC  06                push es
0001CFED  000E0601          add [0x106],cl
0001CFF1  0201              add al,[bx+di]
0001CFF3  0008              add [bx+si],cl
0001CFF5  07                pop es
0001CFF6  0401              add al,0x1
0001CFF8  07                pop es
0001CFF9  0023              add [bp+di],ah
0001CFFB  0805              or [di],al
0001CFFD  49                dec cx
0001CFFE  46                inc si
0001CFFF  20594F            and [bx+di+0x4f],bl
0001D002  55                push bp
0001D003  204745            and [bx+0x45],al
0001D006  54                push sp
0001D007  204849            and [bx+si+0x49],cl
0001D00A  54                push sp
0001D00B  2C20              sub al,0x20
0001D00D  59                pop cx
0001D00E  4F                dec di
0001D00F  55                push bp
0001D010  204C4F            and [si+0x4f],cl
0001D013  53                push bx
0001D014  45                inc bp
0001D015  204101            and [bx+di+0x1],al
0001D018  4C                dec sp
0001D019  49                dec cx
0001D01A  46                inc si
0001D01B  45                inc bp
0001D01C  20414E            and [bx+di+0x4e],al
0001D01F  44                inc sp
0001D020  205448            and [si+0x48],dl
0001D023  45                inc bp
0001D024  204741            and [bx+0x41],al
0001D027  4D                dec bp
0001D028  45                inc bp
0001D029  20474F            and [bx+0x4f],al
0001D02C  45                inc bp
0001D02D  53                push bx
0001D02E  204F4E            and [bx+0x4e],cl
0001D031  2100              and [bx+si],ax
0001D033  004106            add [bx+di+0x6],al
0001D036  0411              add al,0x11
0001D038  07                pop es
0001D039  0006000E          add [0xe00],al
0001D03D  0801              or [bx+di],al
0001D03F  06                push es
0001D040  090E0403          or [0x304],cx
0001D044  001E0805          add [0x508],bl
0001D048  53                push bx
0001D049  45                inc bp
0001D04A  41                inc cx
0001D04B  52                push dx
0001D04C  43                inc bx
0001D04D  48                dec ax
0001D04E  20464F            and [bp+0x4f],al
0001D051  52                push dx
0001D052  205448            and [si+0x48],dl
0001D055  45                inc bp
0001D056  204B45            and [bp+di+0x45],cl
0001D059  59                pop cx
0001D05A  2121              and [bx+di],sp
0001D05C  2100              and [bx+si],ax
0001D05E  0028              add [bx+si],ch
0001D060  0304              add ax,[si]
0001D062  0210              add dl,[bx+si]
0001D064  0108              add [bx+si],cx
0001D066  000A              add [bp+si],cl
0001D068  050141            add ax,0x4101
0001D06B  4E                dec si
0001D06C  44                inc sp
0001D06D  204752            and [bx+0x52],al
0001D070  41                inc cx
0001D071  42                inc dx
0001D072  205452            and [si+0x52],dl
0001D075  45                inc bp
0001D076  41                inc cx
0001D077  53                push bx
0001D078  55                push bp
0001D079  52                push dx
0001D07A  45                inc bp
0001D07B  20544F            and [si+0x4f],dl
0001D07E  4F                dec di
0001D07F  2100              and [bx+si],ax
0001D081  0014              add [si],dl
0001D083  0404              add al,0x4
0001D085  0202              add al,[bp+si]
0001D087  000C              add [si],cl
0001D089  0204              add al,[si]
0001D08B  0108              add [bx+si],cx
0001D08D  0019              add [bx+di],bl
0001D08F  0308              add cx,[bx+si]
0001D091  0402              add al,0x2
0001D093  0308              add cx,[bx+si]
0001D095  02060102          add al,[0x201]
0001D099  02060302          add al,[0x203]
0001D09D  0004              add [si],al
0001D09F  05012E            add ax,0x2e01
0001D0A2  2E2E41            cs inc cx
0001D0A5  4E                dec si
0001D0A6  44                inc sp
0001D0A7  20414E            and [bx+di+0x4e],al
0001D0AA  4F                dec di
0001D0AB  54                push sp
0001D0AC  48                dec ax
0001D0AD  45                inc bp
0001D0AE  52                push dx
0001D0AF  205452            and [si+0x52],dl
0001D0B2  45                inc bp
0001D0B3  41                inc cx
0001D0B4  53                push bx
0001D0B5  55                push bp
0001D0B6  52                push dx
0001D0B7  45                inc bp
0001D0B8  2E2E2E0000        add [cs:bx+si],al
0001D0BD  1404              adc al,0x4
0001D0BF  0402              add al,0x2
0001D0C1  0400              add al,0x0
0001D0C3  0A01              or al,[bx+di]
0001D0C5  06                push es
0001D0C6  0404              add al,0x4
0001D0C8  0104              add [si],ax
0001D0CA  0402              add al,0x2
0001D0CC  0202              add al,[bp+si]
0001D0CE  000C              add [si],cl
0001D0D0  0202              add al,[bp+si]
0001D0D2  0102              add [bp+si],ax
0001D0D4  0202              add al,[bp+si]
0001D0D6  0102              add [bp+si],ax
0001D0D8  0019              add [bx+di],bl
0001D0DA  0102              add [bp+si],ax
0001D0DC  0302              add ax,[bp+si]
0001D0DE  000F              add [bx],cl
0001D0E0  0805              or [di],al
0001D0E2  41                inc cx
0001D0E3  4E                dec si
0001D0E4  44                inc sp
0001D0E5  204E4F            and [bp+0x4f],cl
0001D0E8  57                push di
0001D0E9  20594F            and [bx+di+0x4f],bl
0001D0EC  55                push bp
0001D0ED  204D55            and [di+0x55],cl
0001D0F0  53                push bx
0001D0F1  54                push sp
0001D0F2  205345            and [bp+di+0x45],dl
0001D0F5  41                inc cx
0001D0F6  52                push dx
0001D0F7  43                inc bx
0001D0F8  48                dec ax
0001D0F9  01464F            add [bp+0x4f],ax
0001D0FC  52                push dx
0001D0FD  205448            and [si+0x48],dl
0001D100  45                inc bp
0001D101  204C4F            and [si+0x4f],cl
0001D104  43                inc bx
0001D105  4B                dec bx
0001D106  2E0000            add [cs:bx+si],al
0001D109  2803              sub [bp+di],al
0001D10B  0204              add al,[si]
0001D10D  0203              add al,[bp+di]
0001D10F  06                push es
0001D110  0202              add al,[bp+si]
0001D112  0308              add cx,[bx+si]
0001D114  0003              add [bp+di],al
0001D116  0805              or [di],al
0001D118  42                inc dx
0001D119  45                inc bp
0001D11A  57                push di
0001D11B  41                inc cx
0001D11C  52                push dx
0001D11D  45                inc bp
0001D11E  204F46            and [bx+0x46],cl
0001D121  205741            and [bx+0x41],dl
0001D124  52                push dx
0001D125  50                push ax
0001D126  53                push bx
0001D127  014E45            add [bp+0x45],cx
0001D12A  41                inc cx
0001D12B  52                push dx
0001D12C  205448            and [si+0x48],dl
0001D12F  45                inc bp
0001D130  204544            and [di+0x44],al
0001D133  47                inc di
0001D134  45                inc bp
0001D135  2E0000            add [cs:bx+si],al
0001D138  2808              sub [bx+si],cl
0001D13A  0304              add ax,[si]
0001D13C  0003              add [bp+di],al
0001D13E  055748            add ax,0x4857
0001D141  41                inc cx
0001D142  54                push sp
0001D143  204841            and [bx+si+0x41],cl
0001D146  50                push ax
0001D147  50                push ax
0001D148  45                inc bp
0001D149  4E                dec si
0001D14A  45                inc bp
0001D14B  44                inc sp
0001D14C  3F                aas
0001D14D  205448            and [si+0x48],dl
0001D150  45                inc bp
0001D151  204241            and [bp+si+0x41],al
0001D154  4E                dec si
0001D155  44                inc sp
0001D156  49                dec cx
0001D157  54                push sp
0001D158  015741            add [bx+0x41],dx
0001D15B  52                push dx
0001D15C  50                push ax
0001D15D  45                inc bp
0001D15E  44                inc sp
0001D15F  20544F            and [si+0x4f],dl
0001D162  204120            and [bx+di+0x20],al
0001D165  4E                dec si
0001D166  45                inc bp
0001D167  57                push di
0001D168  205345            and [bp+di+0x45],dl
0001D16B  43                inc bx
0001D16C  54                push sp
0001D16D  49                dec cx
0001D16E  4F                dec di
0001D16F  4E                dec si
0001D170  2E0000            add [cs:bx+si],al
0001D173  2808              sub [bx+si],cl
0001D175  054C45            add ax,0x454c
0001D178  54                push sp
0001D179  27                daa
0001D17A  53                push bx
0001D17B  205452            and [si+0x52],dl
0001D17E  59                pop cx
0001D17F  204954            and [bx+di+0x54],cl
0001D182  20534F            and [bp+di+0x4f],dl
0001D185  4D                dec bp
0001D186  45                inc bp
0001D187  204D4F            and [di+0x4f],cl
0001D18A  52                push dx
0001D18B  45                inc bp
0001D18C  2100              and [bx+si],ax
0001D18E  0014              add [si],dl
0001D190  0108              add [bx+si],cx
0001D192  000A              add [bp+si],cl
0001D194  0308              add cx,[bx+si]
0001D196  0108              add [bx+si],cx
0001D198  0308              add cx,[bx+si]
0001D19A  0014              add [si],dl
0001D19C  0805              or [di],al
0001D19E  59                pop cx
0001D19F  4F                dec di
0001D1A0  55                push bp
0001D1A1  204541            and [di+0x41],al
0001D1A4  52                push dx
0001D1A5  4E                dec si
0001D1A6  20414E            and [bx+di+0x4e],al
0001D1A9  204558            and [di+0x58],al
0001D1AC  54                push sp
0001D1AD  52                push dx
0001D1AE  41                inc cx
0001D1AF  204C49            and [si+0x49],cl
0001D1B2  46                inc si
0001D1B3  45                inc bp
0001D1B4  014556            add [di+0x56],ax
0001D1B7  45                inc bp
0001D1B8  52                push dx
0001D1B9  59                pop cx
0001D1BA  2031              and [bx+di],dh
0001D1BC  3030              xor [bx+si],dh
0001D1BE  204355            and [bp+di+0x55],al
0001D1C1  42                inc dx
0001D1C2  49                dec cx
0001D1C3  54                push sp
0001D1C4  53                push bx
0001D1C5  2E0000            add [cs:bx+si],al
0001D1C8  1E                push ds
0001D1C9  0304              add ax,[si]
0001D1CB  0102              add [bp+si],ax
0001D1CD  0014              add [si],dl
0001D1CF  0805              or [di],al
0001D1D1  47                inc di
0001D1D2  4F                dec di
0001D1D3  204F50            and [bx+0x50],cl
0001D1D6  45                inc bp
0001D1D7  4E                dec si
0001D1D8  205448            and [si+0x48],dl
0001D1DB  45                inc bp
0001D1DC  204C4F            and [si+0x4f],cl
0001D1DF  43                inc bx
0001D1E0  4B                dec bx
0001D1E1  2D2D01            sub ax,0x12d
0001D1E4  41                inc cx
0001D1E5  4E                dec si
0001D1E6  44                inc sp
0001D1E7  205052            and [bx+si+0x52],dl
0001D1EA  45                inc bp
0001D1EB  50                push ax
0001D1EC  41                inc cx
0001D1ED  52                push dx
0001D1EE  45                inc bp
0001D1EF  20464F            and [bp+0x4f],al
0001D1F2  52                push dx
0001D1F3  204241            and [bp+si+0x41],al
0001D1F6  54                push sp
0001D1F7  54                push sp
0001D1F8  4C                dec sp
0001D1F9  45                inc bp
0001D1FA  2100              and [bx+si],ax
0001D1FC  0028              add [bx+si],ch
0001D1FE  06                push es
0001D1FF  0A02              or al,[bp+si]
0001D201  0801              or [bx+di],al
0001D203  06                push es
0001D204  0A060701          or al,[0x107]
0001D208  06                push es
0001D209  0F                db 0x0f
0001D20A  0403              add al,0x3
0001D20C  00060F04          add [0x40f],al
0001D210  050204            add ax,0x402
0001D213  0200              add al,[bx+si]
0001D215  0407              add al,0x7
0001D217  0004              add [si],al
0001D219  0406              add al,0x6
0001D21B  07                pop es
0001D21C  0004              add [si],al
0001D21E  06                push es
0001D21F  0F                db 0x0f
0001D220  0406              add al,0x6
0001D222  0004              add [si],al
0001D224  06                push es
0001D225  0102              add [bp+si],ax
0001D227  07                pop es
0001D228  0102              add [bp+si],ax
0001D22A  0204              add al,[si]
0001D22C  0402              add al,0x2
0001D22E  000F              add [bx],cl
0001D230  0402              add al,0x2
0001D232  0302              add ax,[bp+si]
0001D234  07                pop es
0001D235  0304              add ax,[si]
0001D237  06                push es
0001D238  0A02              or al,[bp+si]
0001D23A  0901              or [bx+di],ax
0001D23C  0202              add al,[bp+si]
0001D23E  07                pop es
0001D23F  06                push es
0001D240  0F                db 0x0f
0001D241  0405              add al,0x5
0001D243  0200              add al,[bx+si]
0001D245  0803              or [bp+di],al
0001D247  0207              add al,[bx]
0001D249  0003              add [bp+di],al
0001D24B  0805              or [di],al
0001D24D  0205              add al,[di]
0001D24F  07                pop es
0001D250  51                push cx
0001D251  55                push bp
0001D252  49                dec cx
0001D253  43                inc bx
0001D254  4B                dec bx
0001D255  2C20              sub al,0x20
0001D257  45                inc bp
0001D258  58                pop ax
0001D259  49                dec cx
0001D25A  54                push sp
0001D25B  205448            and [si+0x48],dl
0001D25E  52                push dx
0001D25F  4F                dec di
0001D260  55                push bp
0001D261  47                inc di
0001D262  48                dec ax
0001D263  205448            and [si+0x48],dl
0001D266  45                inc bp
0001D267  015350            add [bp+di+0x50],dx
0001D26A  49                dec cx
0001D26B  4E                dec si
0001D26C  4E                dec si
0001D26D  49                dec cx
0001D26E  4E                dec si
0001D26F  47                inc di
0001D270  204741            and [bx+0x41],al
0001D273  54                push sp
0001D274  45                inc bp
0001D275  2E2E2E56          cs push si
0001D279  49                dec cx
0001D27A  43                inc bx
0001D27B  54                push sp
0001D27C  4F                dec di
0001D27D  52                push dx
0001D27E  59                pop cx
0001D27F  2121              and [bx+di],sp
0001D281  0000              add [bx+si],al
0001D283  050302            add ax,0x203
0001D286  0202              add al,[bp+si]
0001D288  07                pop es
0001D289  07                pop es
0001D28A  0202              add al,[bp+si]
0001D28C  06                push es
0001D28D  0A060801          or al,[0x108]
0001D291  0102              add [bp+si],ax
0001D293  0204              add al,[si]
0001D295  0402              add al,0x2
0001D297  07                pop es
0001D298  07                pop es
0001D299  0202              add al,[bp+si]
0001D29B  0302              add ax,[bp+si]
0001D29D  0202              add al,[bp+si]
0001D29F  050339            add ax,0x3903
0001D2A2  1402              adc al,0x2
0001D2A4  0406              add al,0x6
0001D2A6  56                push si
0001D2A7  49                dec cx
0001D2A8  43                inc bx
0001D2A9  54                push sp
0001D2AA  4F                dec di
0001D2AB  52                push dx
0001D2AC  59                pop cx
0001D2AD  2121              and [bx+di],sp
0001D2AF  0005              add [di],al
0001D2B1  0339              add di,[bx+di]
0001D2B3  1402              adc al,0x2
0001D2B5  0305              add ax,[di]
0001D2B7  56                push si
0001D2B8  49                dec cx
0001D2B9  43                inc bx
0001D2BA  54                push sp
0001D2BB  4F                dec di
0001D2BC  52                push dx
0001D2BD  59                pop cx
0001D2BE  2121              and [bx+di],sp
0001D2C0  0005              add [di],al
0001D2C2  0339              add di,[bx+di]
0001D2C4  1402              adc al,0x2
0001D2C6  0203              add al,[bp+di]
0001D2C8  56                push si
0001D2C9  49                dec cx
0001D2CA  43                inc bx
0001D2CB  54                push sp
0001D2CC  4F                dec di
0001D2CD  52                push dx
0001D2CE  59                pop cx
0001D2CF  2121              and [bx+di],sp
0001D2D1  0005              add [di],al
0001D2D3  0339              add di,[bx+di]
0001D2D5  1402              adc al,0x2
0001D2D7  06                push es
0001D2D8  025649            add dl,[bp+0x49]
0001D2DB  43                inc bx
0001D2DC  54                push sp
0001D2DD  4F                dec di
0001D2DE  52                push dx
0001D2DF  59                pop cx
0001D2E0  2121              and [bx+di],sp
0001D2E2  0005              add [di],al
0001D2E4  0339              add di,[bx+di]
0001D2E6  1402              adc al,0x2
0001D2E8  0406              add al,0x6
0001D2EA  56                push si
0001D2EB  49                dec cx
0001D2EC  43                inc bx
0001D2ED  54                push sp
0001D2EE  4F                dec di
0001D2EF  52                push dx
0001D2F0  59                pop cx
0001D2F1  2121              and [bx+di],sp
0001D2F3  0005              add [di],al
0001D2F5  0339              add di,[bx+di]
0001D2F7  1402              adc al,0x2
0001D2F9  0305              add ax,[di]
0001D2FB  56                push si
0001D2FC  49                dec cx
0001D2FD  43                inc bx
0001D2FE  54                push sp
0001D2FF  4F                dec di
0001D300  52                push dx
0001D301  59                pop cx
0001D302  2121              and [bx+di],sp
0001D304  0005              add [di],al
0001D306  0339              add di,[bx+di]
0001D308  1402              adc al,0x2
0001D30A  0203              add al,[bp+di]
0001D30C  56                push si
0001D30D  49                dec cx
0001D30E  43                inc bx
0001D30F  54                push sp
0001D310  4F                dec di
0001D311  52                push dx
0001D312  59                pop cx
0001D313  2121              and [bx+di],sp
0001D315  0005              add [di],al
0001D317  0339              add di,[bx+di]
0001D319  1402              adc al,0x2
0001D31B  06                push es
0001D31C  07                pop es
0001D31D  56                push si
0001D31E  49                dec cx
0001D31F  43                inc bx
0001D320  54                push sp
0001D321  4F                dec di
0001D322  52                push dx
0001D323  59                pop cx
0001D324  2121              and [bx+di],sp
0001D326  0000              add [bx+si],al
0001D328  1402              adc al,0x2
0001D32A  0400              add al,0x0
0001D32C  0005              add [di],al
0001D32E  0207              add al,[bx]
0001D330  0320              add sp,[bx+si]
0001D332  2020              and [bx+si],ah
0001D334  54                push sp
0001D335  48                dec ax
0001D336  45                inc bp
0001D337  204C45            and [si+0x45],cl
0001D33A  47                inc di
0001D33B  45                inc bp
0001D33C  4E                dec si
0001D33D  44                inc sp
0001D33E  20414E            and [bx+di+0x4e],al
0001D341  44                inc sp
0001D342  204C4F            and [si+0x4f],cl
0001D345  52                push dx
0001D346  45                inc bp
0001D347  0120              add [bx+si],sp
0001D349  2020              and [bx+si],ah
0001D34B  4F                dec di
0001D34C  46                inc si
0001D34D  205448            and [si+0x48],dl
0001D350  45                inc bp
0001D351  205449            and [si+0x49],dl
0001D354  4D                dec bp
0001D355  45                inc bp
0001D356  47                inc di
0001D357  41                inc cx
0001D358  54                push sp
0001D359  45                inc bp
0001D35A  205741            and [bx+0x41],dl
0001D35D  52                push dx
0001D35E  0006021C          add [0x1c02],al
0001D362  0401              add al,0x1
0001D364  06                push es
0001D365  07                pop es
0001D366  1C06              sbb al,0x6
0001D368  0106021E          add [0x1e02],ax
0001D36C  0301              add ax,[bx+di]
0001D36E  06                push es
0001D36F  07                pop es
0001D370  1E                push ds
0001D371  0801              or [bx+di],al
0001D373  06                push es
0001D374  0220              add ah,[bx+si]
0001D376  050106            add ax,0x601
0001D379  07                pop es
0001D37A  2007              and [bx],al
0001D37C  0100              add [bx+si],ax
0001D37E  0203              add al,[bp+di]
0001D380  0200              add al,[bx+si]
0001D382  0203              add al,[bp+di]
0001D384  0200              add al,[bx+si]
0001D386  0203              add al,[bp+di]
0001D388  0200              add al,[bx+si]
0001D38A  0203              add al,[bp+di]
0001D38C  0200              add al,[bx+si]
0001D38E  0203              add al,[bp+di]
0001D390  0200              add al,[bx+si]
0001D392  0203              add al,[bp+di]
0001D394  0200              add al,[bx+si]
0001D396  0203              add al,[bp+di]
0001D398  0200              add al,[bx+si]
0001D39A  8703              xchg [bp+di],ax
0001D39C  0C00              or al,0x0
0001D39E  8703              xchg [bp+di],ax
0001D3A0  0C00              or al,0x0
0001D3A2  9B030E009B        wait add cx,[0x9b00]
0001D3A7  030C              add cx,[si]
0001D3A9  00870402          add [bx+0x204],al
0001D3AD  050207            add ax,0x702
0001D3B0  0320              add sp,[bx+si]
0001D3B2  2020              and [bx+si],ah
0001D3B4  54                push sp
0001D3B5  48                dec ax
0001D3B6  45                inc bp
0001D3B7  204C45            and [si+0x45],cl
0001D3BA  47                inc di
0001D3BB  45                inc bp
0001D3BC  4E                dec si
0001D3BD  44                inc sp
0001D3BE  20414E            and [bx+di+0x4e],al
0001D3C1  44                inc sp
0001D3C2  204C4F            and [si+0x4f],cl
0001D3C5  52                push dx
0001D3C6  45                inc bp
0001D3C7  0120              add [bx+si],sp
0001D3C9  2020              and [bx+si],ah
0001D3CB  4F                dec di
0001D3CC  46                inc si
0001D3CD  205448            and [si+0x48],dl
0001D3D0  45                inc bp
0001D3D1  205449            and [si+0x49],dl
0001D3D4  4D                dec bp
0001D3D5  45                inc bp
0001D3D6  47                inc di
0001D3D7  41                inc cx
0001D3D8  54                push sp
0001D3D9  45                inc bp
0001D3DA  205741            and [bx+0x41],dl
0001D3DD  52                push dx
0001D3DE  0000              add [bx+si],al
0001D3E0  0203              add al,[bp+di]
0001D3E2  0200              add al,[bx+si]
0001D3E4  0203              add al,[bp+di]
0001D3E6  0200              add al,[bx+si]
0001D3E8  0203              add al,[bp+di]
0001D3EA  0200              add al,[bx+si]
0001D3EC  0203              add al,[bp+di]
0001D3EE  0200              add al,[bx+si]
0001D3F0  0203              add al,[bp+di]
0001D3F2  0200              add al,[bx+si]
0001D3F4  0203              add al,[bp+di]
0001D3F6  0200              add al,[bx+si]
0001D3F8  0203              add al,[bp+di]
0001D3FA  0200              add al,[bx+si]
0001D3FC  BE030C            mov si,0xc03
0001D3FF  00D2              add dl,dl
0001D401  030C              add cx,[si]
0001D403  00D2              add dl,dl
0001D405  030E00D2          add cx,[0xd200]
0001D409  030C              add cx,[si]
0001D40B  00D2              add dl,dl
0001D40D  0402              add al,0x2
0001D40F  3B16D77B          cmp dx,[0x7bd7]
0001D413  743C              jz 0xd451
0001D415  8916D77B          mov [0x7bd7],dx
0001D419  BF987B            mov di,0x7b98
0001D41C  B90300            mov cx,0x3
0001D41F  33C0              xor ax,ax
0001D421  33DB              xor bx,bx
0001D423  D0EA              shr dl,1
0001D425  7301              jnc 0xd428
0001D427  48                dec ax
0001D428  D0EE              shr dh,1
0001D42A  7301              jnc 0xd42d
0001D42C  4B                dec bx
0001D42D  8905              mov [di],ax
0001D42F  895D0C            mov [di+0xc],bx
0001D432  25AAAA            and ax,0xaaaa
0001D435  81E35555          and bx,0x5555
0001D439  0BC3              or ax,bx
0001D43B  894502            mov [di+0x2],ax
0001D43E  894506            mov [di+0x6],ax
0001D441  89450A            mov [di+0xa],ax
0001D444  D1C0              rol ax,1
0001D446  894504            mov [di+0x4],ax
0001D449  894508            mov [di+0x8],ax
0001D44C  83C70E            add di,byte +0xe
0001D44F  E2CE              loop 0xd41f
0001D451  C3                ret
0001D452  A3D081            mov [0x81d0],ax
0001D455  8A14              mov dl,[si]
0001D457  46                inc si
0001D458  0AD2              or dl,dl
0001D45A  7450              jz 0xd4ac
0001D45C  80FA01            cmp dl,0x1
0001D45F  7508              jnz 0xd469
0001D461  A1D081            mov ax,[0x81d0]
0001D464  83C30C            add bx,byte +0xc
0001D467  EBEC              jmp short 0xd455
0001D469  80FA02            cmp dl,0x2
0001D46C  7510              jnz 0xd47e
0001D46E  50                push ax
0001D46F  53                push bx
0001D470  8B14              mov dx,[si]
0001D472  83C602            add si,byte +0x2
0001D475  56                push si
0001D476  E896FF            call 0xd40f
0001D479  5E                pop si
0001D47A  5B                pop bx
0001D47B  58                pop ax
0001D47C  EBD7              jmp short 0xd455
0001D47E  80FA03            cmp dl,0x3
0001D481  750C              jnz 0xd48f
0001D483  AD                lodsw
0001D484  8ADC              mov bl,ah
0001D486  32E4              xor ah,ah
0001D488  8AFC              mov bh,ah
0001D48A  A3D081            mov [0x81d0],ax
0001D48D  EBC6              jmp short 0xd455
0001D48F  80FA04            cmp dl,0x4
0001D492  750A              jnz 0xd49e
0001D494  AD                lodsw
0001D495  8BD8              mov bx,ax
0001D497  AD                lodsw
0001D498  93                xchg ax,bx
0001D499  A3D081            mov [0x81d0],ax
0001D49C  EBB7              jmp short 0xd455
0001D49E  50                push ax
0001D49F  53                push bx
0001D4A0  56                push si
0001D4A1  E80900            call 0xd4ad
0001D4A4  5E                pop si
0001D4A5  5B                pop bx
0001D4A6  58                pop ax
0001D4A7  050300            add ax,0x3
0001D4AA  EBA9              jmp short 0xd455
0001D4AC  C3                ret
0001D4AD  BE20FE            mov si,0xfe20
0001D4B0  32F6              xor dh,dh
0001D4B2  D1E2              shl dx,1
0001D4B4  D1E2              shl dx,1
0001D4B6  D1E2              shl dx,1
0001D4B8  8BCA              mov cx,dx
0001D4BA  D1E2              shl dx,1
0001D4BC  03D1              add dx,cx
0001D4BE  03F2              add si,dx
0001D4C0  FA                cli
0001D4C1  8926F87B          mov [0x7bf8],sp
0001D4C5  32F6              xor dh,dh
0001D4C7  8BC8              mov cx,ax
0001D4C9  D1E9              shr cx,1
0001D4CB  7302              jnc 0xd4cf
0001D4CD  FECE              dec dh
0001D4CF  8BEA              mov bp,dx
0001D4D1  D1E1              shl cx,1
0001D4D3  D1E1              shl cx,1
0001D4D5  8BFB              mov di,bx
0001D4D7  81E70300          and di,0x3
0001D4DB  D1EB              shr bx,1
0001D4DD  D1EB              shr bx,1
0001D4DF  A1D17B            mov ax,[0x7bd1]
0001D4E2  8BE0              mov sp,ax
0001D4E4  83EC04            sub sp,byte +0x4
0001D4E7  F7E3              mul bx
0001D4E9  8BD5              mov dx,bp
0001D4EB  03F8              add di,ax
0001D4ED  03F9              add di,cx
0001D4EF  BD987B            mov bp,0x7b98
0001D4F2  C706D57B000F      mov word [0x7bd5],0xf00
0001D4F8  0AF6              or dh,dh
0001D4FA  7406              jz 0xd502
0001D4FC  C706D57BF000      mov word [0x7bd5],0xf0
0001D502  8B1ED37B          mov bx,[0x7bd3]
0001D506  8E07              mov es,[bx]
0001D508  893EFC7B          mov [0x7bfc],di
0001D50C  891EFA7B          mov [0x7bfa],bx
0001D510  8B1ED57B          mov bx,[0x7bd5]
0001D514  B2FC              mov dl,0xfc
0001D516  B90C00            mov cx,0xc
0001D519  F606F77BFF        test byte [0x7bf7],0xff
0001D51E  753A              jnz 0xd55a
0001D520  AD                lodsw
0001D521  234600            and ax,[bp+0x0]
0001D524  D0EA              shr dl,1
0001D526  7303              jnc 0xd52b
0001D528  83C502            add bp,byte +0x2
0001D52B  D0CE              ror dh,1
0001D52D  730C              jnc 0xd53b
0001D52F  86C4              xchg ah,al
0001D531  D1E8              shr ax,1
0001D533  D1E8              shr ax,1
0001D535  D1E8              shr ax,1
0001D537  D1E8              shr ax,1
0001D539  86C4              xchg ah,al
0001D53B  26201D            and [es:di],bl
0001D53E  26207D04          and [es:di+0x4],bh
0001D542  260805            or [es:di],al
0001D545  26086504          or [es:di+0x4],ah
0001D549  47                inc di
0001D54A  F7C70300          test di,0x3
0001D54E  7404              jz 0xd554
0001D550  E2CE              loop 0xd520
0001D552  EB37              jmp short 0xd58b
0001D554  03FC              add di,sp
0001D556  E2C8              loop 0xd520
0001D558  EB31              jmp short 0xd58b
0001D55A  AD                lodsw
0001D55B  234600            and ax,[bp+0x0]
0001D55E  D0EA              shr dl,1
0001D560  7303              jnc 0xd565
0001D562  83C502            add bp,byte +0x2
0001D565  D0CE              ror dh,1
0001D567  730C              jnc 0xd575
0001D569  86C4              xchg ah,al
0001D56B  D1E8              shr ax,1
0001D56D  D1E8              shr ax,1
0001D56F  D1E8              shr ax,1
0001D571  D1E8              shr ax,1
0001D573  86C4              xchg ah,al
0001D575  263005            xor [es:di],al
0001D578  26306504          xor [es:di+0x4],ah
0001D57C  47                inc di
0001D57D  F7C70300          test di,0x3
0001D581  7404              jz 0xd587
0001D583  E2D5              loop 0xd55a
0001D585  EB04              jmp short 0xd58b
0001D587  03FC              add di,sp
0001D589  E2CF              loop 0xd55a
0001D58B  8B3EFC7B          mov di,[0x7bfc]
0001D58F  8B1EFA7B          mov bx,[0x7bfa]
0001D593  83EE18            sub si,byte +0x18
0001D596  83C502            add bp,byte +0x2
0001D599  83C302            add bx,byte +0x2
0001D59C  A1D37B            mov ax,[0x7bd3]
0001D59F  050600            add ax,0x6
0001D5A2  3BC3              cmp ax,bx
0001D5A4  7403              jz 0xd5a9
0001D5A6  E95DFF            jmp 0xd506
0001D5A9  8B26F87B          mov sp,[0x7bf8]
0001D5AD  FB                sti
0001D5AE  8CC8              mov ax,cs
0001D5B0  8EC0              mov es,ax
0001D5B2  C3                ret
0001D5B3  56                push si
0001D5B4  57                push di
0001D5B5  BB9F27            mov bx,0x279f
0001D5B8  81C32354          add bx,0x5423
0001D5BC  E81F27            call 0xfcde
0001D5BF  8B0EF57B          mov cx,[0x7bf5]
0001D5C3  8B16F37B          mov dx,[0x7bf3]
0001D5C7  8BF1              mov si,cx
0001D5C9  8BFA              mov di,dx
0001D5CB  8AC5              mov al,ch
0001D5CD  8AE9              mov ch,cl
0001D5CF  8ACE              mov cl,dh
0001D5D1  8AF2              mov dh,dl
0001D5D3  8AD0              mov dl,al
0001D5D5  D1E9              shr cx,1
0001D5D7  D1DA              rcr dx,1
0001D5D9  2BD7              sub dx,di
0001D5DB  1BCE              sbb cx,si
0001D5DD  2BD7              sub dx,di
0001D5DF  1BCE              sbb cx,si
0001D5E1  2BD7              sub dx,di
0001D5E3  1BCE              sbb cx,si
0001D5E5  8916F37B          mov [0x7bf3],dx
0001D5E9  890EF57B          mov [0x7bf5],cx
0001D5ED  5F                pop di
0001D5EE  5E                pop si
0001D5EF  C3                ret
0001D5F0  B00C              mov al,0xc
0001D5F2  E630              out 0x30,al
0001D5F4  32C0              xor al,al
0001D5F6  E632              out 0x32,al
0001D5F8  B00D              mov al,0xd
0001D5FA  E630              out 0x30,al
0001D5FC  32C0              xor al,al
0001D5FE  E632              out 0x32,al
0001D600  B005              mov al,0x5
0001D602  E610              out 0x10,al
0001D604  33FF              xor di,di
0001D606  8BC7              mov ax,di
0001D608  8E063289          mov es,[0x8932]
0001D60C  B90420            mov cx,0x2004
0001D60F  F3AB              rep stosw
0001D611  33FF              xor di,di
0001D613  BA00F0            mov dx,0xf000
0001D616  8EC2              mov es,dx
0001D618  B90040            mov cx,0x4000
0001D61B  F3AB              rep stosw
0001D61D  8CC8              mov ax,cs
0001D61F  8EC0              mov es,ax
0001D621  C3                ret
0001D622  D1E3              shl bx,1
0001D624  FFA7907B          jmp [bx+0x7b90]
0001D628  C706057C0000      mov word [0x7c05],0x0
0001D62E  B401              mov ah,0x1
0001D630  E8FE01            call 0xd831
0001D633  7408              jz 0xd63d
0001D635  32E4              xor ah,ah
0001D637  E8F701            call 0xd831
0001D63A  A3057C            mov [0x7c05],ax
0001D63D  C3                ret
0001D63E  A1057C            mov ax,[0x7c05]
0001D641  C606FE7B50        mov byte [0x7bfe],0x50
0001D646  3D004B            cmp ax,0x4b00
0001D649  7415              jz 0xd660
0001D64B  3D0047            cmp ax,0x4700
0001D64E  7410              jz 0xd660
0001D650  3C0A              cmp al,0xa
0001D652  740C              jz 0xd660
0001D654  3C34              cmp al,0x34
0001D656  7408              jz 0xd660
0001D658  3C37              cmp al,0x37
0001D65A  7404              jz 0xd660
0001D65C  3C31              cmp al,0x31
0001D65E  7505              jnz 0xd665
0001D660  C606FE7B19        mov byte [0x7bfe],0x19
0001D665  3D004D            cmp ax,0x4d00
0001D668  7416              jz 0xd680
0001D66A  3D0049            cmp ax,0x4900
0001D66D  7411              jz 0xd680
0001D66F  3D0051            cmp ax,0x5100
0001D672  740C              jz 0xd680
0001D674  3C36              cmp al,0x36
0001D676  7408              jz 0xd680
0001D678  3C39              cmp al,0x39
0001D67A  7404              jz 0xd680
0001D67C  3C33              cmp al,0x33
0001D67E  7505              jnz 0xd685
0001D680  C606FE7B87        mov byte [0x7bfe],0x87
0001D685  C606FF7B50        mov byte [0x7bff],0x50
0001D68A  3D0048            cmp ax,0x4800
0001D68D  7416              jz 0xd6a5
0001D68F  3D0047            cmp ax,0x4700
0001D692  7411              jz 0xd6a5
0001D694  3D0049            cmp ax,0x4900
0001D697  740C              jz 0xd6a5
0001D699  3C37              cmp al,0x37
0001D69B  7408              jz 0xd6a5
0001D69D  3C38              cmp al,0x38
0001D69F  7404              jz 0xd6a5
0001D6A1  3C39              cmp al,0x39
0001D6A3  7505              jnz 0xd6aa
0001D6A5  C606FF7B19        mov byte [0x7bff],0x19
0001D6AA  3D0050            cmp ax,0x5000
0001D6AD  7415              jz 0xd6c4
0001D6AF  3D0051            cmp ax,0x5100
0001D6B2  7410              jz 0xd6c4
0001D6B4  3C0A              cmp al,0xa
0001D6B6  740C              jz 0xd6c4
0001D6B8  3C35              cmp al,0x35
0001D6BA  7408              jz 0xd6c4
0001D6BC  3C31              cmp al,0x31
0001D6BE  7404              jz 0xd6c4
0001D6C0  3C33              cmp al,0x33
0001D6C2  7505              jnz 0xd6c9
0001D6C4  C606FF7B8C        mov byte [0x7bff],0x8c
0001D6C9  C706007C0000      mov word [0x7c00],0x0
0001D6CF  3C20              cmp al,0x20
0001D6D1  7504              jnz 0xd6d7
0001D6D3  FE06007C          inc byte [0x7c00]
0001D6D7  3C41              cmp al,0x41
0001D6D9  7208              jc 0xd6e3
0001D6DB  3C7A              cmp al,0x7a
0001D6DD  7704              ja 0xd6e3
0001D6DF  FE06017C          inc byte [0x7c01]
0001D6E3  C3                ret
0001D6E4  F606037CFF        test byte [0x7c03],0xff
0001D6E9  7526              jnz 0xd711
0001D6EB  B101              mov cl,0x1
0001D6ED  E88A00            call 0xd77a
0001D6F0  8826FE7B          mov [0x7bfe],ah
0001D6F4  B102              mov cl,0x2
0001D6F6  E88100            call 0xd77a
0001D6F9  8826FF7B          mov [0x7bff],ah
0001D6FD  C706007C0000      mov word [0x7c00],0x0
0001D703  D0C8              ror al,1
0001D705  D0C8              ror al,1
0001D707  D01E007C          rcr byte [0x7c00],1
0001D70B  D0C8              ror al,1
0001D70D  D01E017C          rcr byte [0x7c01],1
0001D711  C3                ret
0001D712  F606047CFF        test byte [0x7c04],0xff
0001D717  7528              jnz 0xd741
0001D719  B103              mov cl,0x3
0001D71B  E85C00            call 0xd77a
0001D71E  8826FE7B          mov [0x7bfe],ah
0001D722  B104              mov cl,0x4
0001D724  E85300            call 0xd77a
0001D727  8826FF7B          mov [0x7bff],ah
0001D72B  C706007C0000      mov word [0x7c00],0x0
0001D731  D0C8              ror al,1
0001D733  D01E007C          rcr byte [0x7c00],1
0001D737  D0C8              ror al,1
0001D739  D0C8              ror al,1
0001D73B  D0C8              ror al,1
0001D73D  D01E017C          rcr byte [0x7c01],1
0001D741  C3                ret
0001D742  5B                pop bx
0001D743  81FBF085          cmp bx,0x85f0
0001D747  741B              jz 0xd764
0001D749  FFE3              jmp bx
0001D74B  8B4E0B            mov cx,[bp+0xb]
0001D74E  FE4E0D            dec byte [bp+0xd]
0001D751  E0FB              loopne 0xd74e
0001D753  E3ED              jcxz 0xd742
0001D755  51                push cx
0001D756  8B5605            mov dx,[bp+0x5]
0001D759  8B4E09            mov cx,[bp+0x9]
0001D75C  2B4E07            sub cx,[bp+0x7]
0001D75F  D1E9              shr cx,1
0001D761  8B7607            mov si,[bp+0x7]
0001D764  AD                lodsw
0001D765  03D0              add dx,ax
0001D767  D1C2              rol dx,1
0001D769  E2F9              loop 0xd764
0001D76B  58                pop ax
0001D76C  335603            xor dx,[bp+0x3]
0001D76F  74D1              jz 0xd742
0001D771  C7060986AB00      mov word [0x8609],0xab
0001D777  EBE8              jmp short 0xd761
0001D779  C3                ret
0001D77A  FA                cli
0001D77B  A0027C            mov al,[0x7c02]
0001D77E  E61A              out 0x1a,al
0001D780  B408              mov ah,0x8
0001D782  D2E4              shl ah,cl
0001D784  B90008            mov cx,0x800
0001D787  E41A              in al,0x1a
0001D789  247F              and al,0x7f
0001D78B  E61A              out 0x1a,al
0001D78D  0C80              or al,0x80
0001D78F  E61A              out 0x1a,al
0001D791  247F              and al,0x7f
0001D793  E61A              out 0x1a,al
0001D795  D0E8              shr al,1
0001D797  E418              in al,0x18
0001D799  22C4              and al,ah
0001D79B  E0F8              loopne 0xd795
0001D79D  E41A              in al,0x1a
0001D79F  A2027C            mov [0x7c02],al
0001D7A2  E418              in al,0x18
0001D7A4  FB                sti
0001D7A5  8AE1              mov ah,cl
0001D7A7  0AE9              or ch,cl
0001D7A9  7502              jnz 0xd7ad
0001D7AB  F9                stc
0001D7AC  C3                ret
0001D7AD  8ACC              mov cl,ah
0001D7AF  32ED              xor ch,ch
0001D7B1  E300              jcxz 0xd7b3
0001D7B3  F6DC              neg ah
0001D7B5  F8                clc
0001D7B6  C3                ret
0001D7B7  E41A              in al,0x1a
0001D7B9  A2027C            mov [0x7c02],al
0001D7BC  B101              mov cl,0x1
0001D7BE  C706037C0000      mov word [0x7c03],0x0
0001D7C4  E8B3FF            call 0xd77a
0001D7C7  7304              jnc 0xd7cd
0001D7C9  FE06037C          inc byte [0x7c03]
0001D7CD  B103              mov cl,0x3
0001D7CF  E8A8FF            call 0xd77a
0001D7D2  7304              jnc 0xd7d8
0001D7D4  FE06047C          inc byte [0x7c04]
0001D7D8  C3                ret
0001D7D9  E43A              in al,0x3a
0001D7DB  A802              test al,0x2
0001D7DD  C3                ret
0001D7DE  50                push ax
0001D7DF  53                push bx
0001D7E0  06                push es
0001D7E1  1E                push ds
0001D7E2  E8F4FF            call 0xd7d9
0001D7E5  7422              jz 0xd809
0001D7E7  8CCB              mov bx,cs
0001D7E9  8EDB              mov ds,bx
0001D7EB  A808              test al,0x8
0001D7ED  C41EEB7B          les bx,[0x7beb]
0001D7F1  7404              jz 0xd7f7
0001D7F3  C41EEF7B          les bx,[0x7bef]
0001D7F7  33C0              xor ax,ax
0001D7F9  E438              in al,0x38
0001D7FB  D1E0              shl ax,1
0001D7FD  03D8              add bx,ax
0001D7FF  B035              mov al,0x35
0001D801  E63A              out 0x3a,al
0001D803  268B07            mov ax,[es:bx]
0001D806  E80500            call 0xd80e
0001D809  1F                pop ds
0001D80A  07                pop es
0001D80B  5B                pop bx
0001D80C  58                pop ax
0001D80D  CF                iret
0001D80E  32FF              xor bh,bh
0001D810  8A1ED97B          mov bl,[0x7bd9]
0001D814  8987DB7B          mov [bx+0x7bdb],ax
0001D818  80C302            add bl,0x2
0001D81B  80E30F            and bl,0xf
0001D81E  8A3EDA7B          mov bh,[0x7bda]
0001D822  3ADF              cmp bl,bh
0001D824  7506              jnz 0xd82c
0001D826  80EB02            sub bl,0x2
0001D829  80E30F            and bl,0xf
0001D82C  891ED97B          mov [0x7bd9],bx
0001D830  C3                ret
0001D831  53                push bx
0001D832  FECC              dec ah
0001D834  7804              js 0xd83a
0001D836  7429              jz 0xd861
0001D838  5B                pop bx
0001D839  C3                ret
0001D83A  A0DA7B            mov al,[0x7bda]
0001D83D  3A06D97B          cmp al,[0x7bd9]
0001D841  74F7              jz 0xd83a
0001D843  32FF              xor bh,bh
0001D845  8AD8              mov bl,al
0001D847  8B87DB7B          mov ax,[bx+0x7bdb]
0001D84B  80C302            add bl,0x2
0001D84E  80E30F            and bl,0xf
0001D851  881EDA7B          mov [0x7bda],bl
0001D855  BB1987            mov bx,0x8719
0001D858  87DD              xchg bp,bx
0001D85A  50                push ax
0001D85B  E8EDFE            call 0xd74b
0001D85E  58                pop ax
0001D85F  5B                pop bx
0001D860  C3                ret
0001D861  FA                cli
0001D862  32FF              xor bh,bh
0001D864  A0DA7B            mov al,[0x7bda]
0001D867  3A06D97B          cmp al,[0x7bd9]
0001D86B  8AD8              mov bl,al
0001D86D  8B87DB7B          mov ax,[bx+0x7bdb]
0001D871  FB                sti
0001D872  5B                pop bx
0001D873  C3                ret
0001D874  680DAC            push word 0xac0d
0001D877  D527              aad 0x27
0001D879  AA                stosb
0001D87A  AA                stosb
0001D87B  D2811987          rol byte [bx+di-0x78e7],cl
0001D87F  0200              add al,[bx+si]
0001D881  2B00              sub ax,[bx+si]
0001D883  0000              add [bx+si],al
0001D885  0000              add [bx+si],al
0001D887  0000              add [bx+si],al
0001D889  0000              add [bx+si],al
0001D88B  0000              add [bx+si],al
0001D88D  0000              add [bx+si],al
0001D88F  0000              add [bx+si],al
0001D891  0000              add [bx+si],al
0001D893  0000              add [bx+si],al
0001D895  0000              add [bx+si],al
0001D897  0000              add [bx+si],al
0001D899  0000              add [bx+si],al
0001D89B  0000              add [bx+si],al
0001D89D  0000              add [bx+si],al
0001D89F  0000              add [bx+si],al
0001D8A1  0000              add [bx+si],al
0001D8A3  0000              add [bx+si],al
0001D8A5  0000              add [bx+si],al
0001D8A7  0000              add [bx+si],al
0001D8A9  0000              add [bx+si],al
0001D8AB  0000              add [bx+si],al
0001D8AD  0000              add [bx+si],al
0001D8AF  0000              add [bx+si],al
0001D8B1  0000              add [bx+si],al
0001D8B3  0000              add [bx+si],al
0001D8B5  0000              add [bx+si],al
0001D8B7  0000              add [bx+si],al
0001D8B9  0000              add [bx+si],al
0001D8BB  0000              add [bx+si],al
0001D8BD  0000              add [bx+si],al
0001D8BF  0000              add [bx+si],al
0001D8C1  0000              add [bx+si],al
0001D8C3  0000              add [bx+si],al
0001D8C5  0000              add [bx+si],al
0001D8C7  0000              add [bx+si],al
0001D8C9  0000              add [bx+si],al
0001D8CB  0000              add [bx+si],al
0001D8CD  0000              add [bx+si],al
0001D8CF  0000              add [bx+si],al
0001D8D1  0000              add [bx+si],al
0001D8D3  0000              add [bx+si],al
0001D8D5  0000              add [bx+si],al
0001D8D7  0000              add [bx+si],al
0001D8D9  0000              add [bx+si],al
0001D8DB  0000              add [bx+si],al
0001D8DD  0000              add [bx+si],al
0001D8DF  0000              add [bx+si],al
0001D8E1  0000              add [bx+si],al
0001D8E3  0000              add [bx+si],al
0001D8E5  0000              add [bx+si],al
0001D8E7  0000              add [bx+si],al
0001D8E9  0000              add [bx+si],al
0001D8EB  0000              add [bx+si],al
0001D8ED  0000              add [bx+si],al
0001D8EF  0000              add [bx+si],al
0001D8F1  0000              add [bx+si],al
0001D8F3  0000              add [bx+si],al
0001D8F5  0000              add [bx+si],al
0001D8F7  0000              add [bx+si],al
0001D8F9  0000              add [bx+si],al
0001D8FB  0000              add [bx+si],al
0001D8FD  0000              add [bx+si],al
0001D8FF  0000              add [bx+si],al
0001D901  0000              add [bx+si],al
0001D903  0000              add [bx+si],al
0001D905  0000              add [bx+si],al
0001D907  0000              add [bx+si],al
0001D909  0000              add [bx+si],al
0001D90B  0000              add [bx+si],al
0001D90D  0000              add [bx+si],al
0001D90F  0000              add [bx+si],al
0001D911  0000              add [bx+si],al
0001D913  0000              add [bx+si],al
0001D915  0000              add [bx+si],al
0001D917  0000              add [bx+si],al
0001D919  0000              add [bx+si],al
0001D91B  0000              add [bx+si],al
0001D91D  0000              add [bx+si],al
0001D91F  0000              add [bx+si],al
0001D921  0000              add [bx+si],al
0001D923  0000              add [bx+si],al
0001D925  0000              add [bx+si],al
0001D927  0000              add [bx+si],al
0001D929  0000              add [bx+si],al
0001D92B  0000              add [bx+si],al
0001D92D  0000              add [bx+si],al
0001D92F  0000              add [bx+si],al
0001D931  0000              add [bx+si],al
0001D933  0000              add [bx+si],al
0001D935  0000              add [bx+si],al
0001D937  0000              add [bx+si],al
0001D939  0000              add [bx+si],al
0001D93B  0000              add [bx+si],al
0001D93D  0000              add [bx+si],al
0001D93F  0000              add [bx+si],al
0001D941  0000              add [bx+si],al
0001D943  0000              add [bx+si],al
0001D945  0000              add [bx+si],al
0001D947  0000              add [bx+si],al
0001D949  0000              add [bx+si],al
0001D94B  0000              add [bx+si],al
0001D94D  0000              add [bx+si],al
0001D94F  0000              add [bx+si],al
0001D951  0000              add [bx+si],al
0001D953  0000              add [bx+si],al
0001D955  0000              add [bx+si],al
0001D957  0000              add [bx+si],al
0001D959  0000              add [bx+si],al
0001D95B  0000              add [bx+si],al
0001D95D  0000              add [bx+si],al
0001D95F  0000              add [bx+si],al
0001D961  0000              add [bx+si],al
0001D963  0000              add [bx+si],al
0001D965  0000              add [bx+si],al
0001D967  0000              add [bx+si],al
0001D969  0000              add [bx+si],al
0001D96B  0000              add [bx+si],al
0001D96D  0000              add [bx+si],al
0001D96F  0000              add [bx+si],al
0001D971  0000              add [bx+si],al
0001D973  0000              add [bx+si],al
0001D975  0000              add [bx+si],al
0001D977  0000              add [bx+si],al
0001D979  0000              add [bx+si],al
0001D97B  0000              add [bx+si],al
0001D97D  0000              add [bx+si],al
0001D97F  0000              add [bx+si],al
0001D981  0000              add [bx+si],al
0001D983  0000              add [bx+si],al
0001D985  0000              add [bx+si],al
0001D987  0000              add [bx+si],al
0001D989  0000              add [bx+si],al
0001D98B  0000              add [bx+si],al
0001D98D  0000              add [bx+si],al
0001D98F  0000              add [bx+si],al
0001D991  0000              add [bx+si],al
0001D993  0000              add [bx+si],al
0001D995  0000              add [bx+si],al
0001D997  0000              add [bx+si],al
0001D999  0000              add [bx+si],al
0001D99B  0000              add [bx+si],al
0001D99D  0000              add [bx+si],al
0001D99F  0000              add [bx+si],al
0001D9A1  0000              add [bx+si],al
0001D9A3  0000              add [bx+si],al
0001D9A5  0000              add [bx+si],al
0001D9A7  0000              add [bx+si],al
0001D9A9  0000              add [bx+si],al
0001D9AB  0000              add [bx+si],al
0001D9AD  0000              add [bx+si],al
0001D9AF  0000              add [bx+si],al
0001D9B1  0000              add [bx+si],al
0001D9B3  0000              add [bx+si],al
0001D9B5  0000              add [bx+si],al
0001D9B7  0000              add [bx+si],al
0001D9B9  0000              add [bx+si],al
0001D9BB  0000              add [bx+si],al
0001D9BD  0000              add [bx+si],al
0001D9BF  0000              add [bx+si],al
0001D9C1  0000              add [bx+si],al
0001D9C3  0000              add [bx+si],al
0001D9C5  0000              add [bx+si],al
0001D9C7  0000              add [bx+si],al
0001D9C9  0000              add [bx+si],al
0001D9CB  0000              add [bx+si],al
0001D9CD  0000              add [bx+si],al
0001D9CF  0000              add [bx+si],al
0001D9D1  0000              add [bx+si],al
0001D9D3  0000              add [bx+si],al
0001D9D5  0000              add [bx+si],al
0001D9D7  0000              add [bx+si],al
0001D9D9  0000              add [bx+si],al
0001D9DB  0000              add [bx+si],al
0001D9DD  0000              add [bx+si],al
0001D9DF  0000              add [bx+si],al
0001D9E1  0000              add [bx+si],al
0001D9E3  0000              add [bx+si],al
0001D9E5  0000              add [bx+si],al
0001D9E7  0000              add [bx+si],al
0001D9E9  0000              add [bx+si],al
0001D9EB  0000              add [bx+si],al
0001D9ED  0000              add [bx+si],al
0001D9EF  0000              add [bx+si],al
0001D9F1  0000              add [bx+si],al
0001D9F3  0000              add [bx+si],al
0001D9F5  0000              add [bx+si],al
0001D9F7  0000              add [bx+si],al
0001D9F9  0000              add [bx+si],al
0001D9FB  0000              add [bx+si],al
0001D9FD  0000              add [bx+si],al
0001D9FF  0000              add [bx+si],al
0001DA01  0000              add [bx+si],al
0001DA03  0000              add [bx+si],al
0001DA05  0000              add [bx+si],al
0001DA07  0000              add [bx+si],al
0001DA09  0000              add [bx+si],al
0001DA0B  0000              add [bx+si],al
0001DA0D  0000              add [bx+si],al
0001DA0F  0000              add [bx+si],al
0001DA11  0000              add [bx+si],al
0001DA13  0000              add [bx+si],al
0001DA15  0000              add [bx+si],al
0001DA17  0000              add [bx+si],al
0001DA19  0000              add [bx+si],al
0001DA1B  0000              add [bx+si],al
0001DA1D  0000              add [bx+si],al
0001DA1F  0000              add [bx+si],al
0001DA21  0000              add [bx+si],al
0001DA23  0000              add [bx+si],al
0001DA25  0000              add [bx+si],al
0001DA27  0000              add [bx+si],al
0001DA29  0000              add [bx+si],al
0001DA2B  0000              add [bx+si],al
0001DA2D  0000              add [bx+si],al
0001DA2F  0000              add [bx+si],al
0001DA31  0000              add [bx+si],al
0001DA33  0000              add [bx+si],al
0001DA35  0000              add [bx+si],al
0001DA37  0000              add [bx+si],al
0001DA39  0000              add [bx+si],al
0001DA3B  0000              add [bx+si],al
0001DA3D  0000              add [bx+si],al
0001DA3F  0000              add [bx+si],al
0001DA41  0000              add [bx+si],al
0001DA43  0000              add [bx+si],al
0001DA45  0000              add [bx+si],al
0001DA47  0000              add [bx+si],al
0001DA49  0000              add [bx+si],al
0001DA4B  0000              add [bx+si],al
0001DA4D  0000              add [bx+si],al
0001DA4F  0000              add [bx+si],al
0001DA51  0000              add [bx+si],al
0001DA53  0000              add [bx+si],al
0001DA55  0000              add [bx+si],al
0001DA57  0000              add [bx+si],al
0001DA59  0000              add [bx+si],al
0001DA5B  0000              add [bx+si],al
0001DA5D  0000              add [bx+si],al
0001DA5F  0000              add [bx+si],al
0001DA61  0000              add [bx+si],al
0001DA63  0000              add [bx+si],al
0001DA65  0000              add [bx+si],al
0001DA67  0000              add [bx+si],al
0001DA69  0000              add [bx+si],al
0001DA6B  0000              add [bx+si],al
0001DA6D  0000              add [bx+si],al
0001DA6F  0000              add [bx+si],al
0001DA71  0000              add [bx+si],al
0001DA73  0000              add [bx+si],al
0001DA75  0000              add [bx+si],al
0001DA77  0000              add [bx+si],al
0001DA79  0000              add [bx+si],al
0001DA7B  0000              add [bx+si],al
0001DA7D  0000              add [bx+si],al
0001DA7F  0000              add [bx+si],al
0001DA81  0000              add [bx+si],al
0001DA83  0000              add [bx+si],al
0001DA85  0000              add [bx+si],al
0001DA87  0000              add [bx+si],al
0001DA89  0000              add [bx+si],al
0001DA8B  00F4              add ah,dh
0001DA8D  001C              add [si],bl
0001DA8F  00F0              add al,dh
0001DA91  0000              add [bx+si],al
0001DA93  0000              add [bx+si],al
0001DA95  0000              add [bx+si],al
0001DA97  00B00000          add [bx+si+0x0],dh
0001DA9B  0000              add [bx+si],al
0001DA9D  0000              add [bx+si],al
0001DA9F  0000              add [bx+si],al
0001DAA1  0000              add [bx+si],al
0001DAA3  0000              add [bx+si],al
0001DAA5  00B00000          add [bx+si+0x0],dh
0001DAA9  0019              add [bx+di],bl
0001DAAB  00960000          add [bp+0x0],dl
0001DAAF  0000              add [bx+si],al
0001DAB1  0000              add [bx+si],al
0001DAB3  0000              add [bx+si],al
0001DAB5  0000              add [bx+si],al
0001DAB7  0000              add [bx+si],al
0001DAB9  0000              add [bx+si],al
0001DABB  0000              add [bx+si],al
0001DABD  0000              add [bx+si],al
0001DABF  0000              add [bx+si],al
0001DAC1  0000              add [bx+si],al
0001DAC3  0000              add [bx+si],al
0001DAC5  0000              add [bx+si],al
0001DAC7  0000              add [bx+si],al
0001DAC9  0000              add [bx+si],al
0001DACB  0000              add [bx+si],al
0001DACD  0000              add [bx+si],al
0001DACF  0000              add [bx+si],al
0001DAD1  0000              add [bx+si],al
0001DAD3  0000              add [bx+si],al
0001DAD5  0000              add [bx+si],al
0001DAD7  0000              add [bx+si],al
0001DAD9  0000              add [bx+si],al
0001DADB  0000              add [bx+si],al
0001DADD  00FF              add bh,bh
0001DADF  1900              sbb [bx+si],ax
0001DAE1  A5                movsw
0001DAE2  0000              add [bx+si],al
0001DAE4  0000              add [bx+si],al
0001DAE6  0000              add [bx+si],al
0001DAE8  0000              add [bx+si],al
0001DAEA  0000              add [bx+si],al
0001DAEC  0000              add [bx+si],al
0001DAEE  0000              add [bx+si],al
0001DAF0  0000              add [bx+si],al
0001DAF2  0000              add [bx+si],al
0001DAF4  0000              add [bx+si],al
0001DAF6  0000              add [bx+si],al
0001DAF8  0000              add [bx+si],al
0001DAFA  0000              add [bx+si],al
0001DAFC  0000              add [bx+si],al
0001DAFE  0000              add [bx+si],al
0001DB00  0000              add [bx+si],al
0001DB02  0000              add [bx+si],al
0001DB04  0000              add [bx+si],al
0001DB06  0000              add [bx+si],al
0001DB08  0000              add [bx+si],al
0001DB0A  0000              add [bx+si],al
0001DB0C  0000              add [bx+si],al
0001DB0E  0000              add [bx+si],al
0001DB10  0000              add [bx+si],al
0001DB12  0002              add [bp+si],al
0001DB14  07                pop es
0001DB15  07                pop es
0001DB16  2B20              sub sp,[bx+si]
0001DB18  54                push sp
0001DB19  49                dec cx
0001DB1A  4D                dec bp
0001DB1B  45                inc bp
0001DB1C  204241            and [bp+si+0x41],al
0001DB1F  4E                dec si
0001DB20  44                inc sp
0001DB21  49                dec cx
0001DB22  54                push sp
0001DB23  202B              and [bp+di],ch
0001DB25  2031              and [bx+di],dh
0001DB27  2E3101            xor [cs:bx+di],ax
0001DB2A  0002              add [bp+si],al
0001DB2C  06                push es
0001DB2D  07                pop es
0001DB2E  3137              xor [bx],si
0001DB30  353433            xor ax,0x3334
0001DB33  204752            and [bx+0x52],al
0001DB36  45                inc bp
0001DB37  59                pop cx
0001DB38  204D4F            and [di+0x4f],cl
0001DB3B  55                push bp
0001DB3C  53                push bx
0001DB3D  45                inc bp
0001DB3E  52                push dx
0001DB3F  2020              and [bx+si],ah
0001DB41  0102              add [bp+si],ax
0001DB43  050620            add ax,0x2006
0001DB46  3937              cmp [bx],si
0001DB48  3237              xor dh,[bx]
0001DB4A  205448            and [si+0x48],dl
0001DB4D  45                inc bp
0001DB4E  20444F            and [si+0x4f],al
0001DB51  43                inc bx
0001DB52  54                push sp
0001DB53  4F                dec di
0001DB54  52                push dx
0001DB55  2020              and [bx+si],ah
0001DB57  2001              and [bx+di],al
0001DB59  0204              add al,[si]
0001DB5B  052032            add ax,0x3220
0001DB5E  3031              xor [bx+di],dh
0001DB60  3020              xor [bx+si],ah
0001DB62  55                push bp
0001DB63  4E                dec si
0001DB64  43                inc bx
0001DB65  4C                dec sp
0001DB66  45                inc bp
0001DB67  204841            and [bx+si+0x41],cl
0001DB6A  4C                dec sp
0001DB6B  2020              and [bx+si],ah
0001DB6D  2020              and [bx+si],ah
0001DB6F  0102              add [bp+si],ax
0001DB71  0304              add ax,[si]
0001DB73  2031              and [bx+di],dh
0001DB75  3030              xor [bx+si],dh
0001DB77  37                aaa
0001DB78  204D52            and [di+0x52],cl
0001DB7B  2E20424F          and [cs:bp+si+0x4f],al
0001DB7F  4E                dec si
0001DB80  44                inc sp
0001DB81  2020              and [bx+si],ah
0001DB83  3E2020            and [ds:bx+si],ah
0001DB86  0102              add [bp+si],ax
0001DB88  0203              add al,[bp+di]
0001DB8A  2020              and [bx+si],ah
0001DB8C  2031              and [bx+di],dh
0001DB8E  3320              xor sp,[bx+si]
0001DB90  4A                dec dx
0001DB91  41                inc cx
0001DB92  53                push bx
0001DB93  4F                dec di
0001DB94  4E                dec si
0001DB95  2020              and [bx+si],ah
0001DB97  2020              and [bx+si],ah
0001DB99  2020              and [bx+si],ah
0001DB9B  2020              and [bx+si],ah
0001DB9D  008744FF          add [bx-0xbc],al
0001DBA1  25DA07            and ax,0x7da
0001DBA4  EF                out dx,ax
0001DBA5  030D              add cx,[di]
0001DBA7  0000              add [bx+si],al
0001DBA9  0000              add [bx+si],al
0001DBAB  0000              add [bx+si],al
0001DBAD  0000              add [bx+si],al
0001DBAF  0000              add [bx+si],al
0001DBB1  0000              add [bx+si],al
0001DBB3  0000              add [bx+si],al
0001DBB5  0000              add [bx+si],al
0001DBB7  0000              add [bx+si],al
0001DBB9  0000              add [bx+si],al
0001DBBB  0000              add [bx+si],al
0001DBBD  0000              add [bx+si],al
0001DBBF  0000              add [bx+si],al
0001DBC1  0000              add [bx+si],al
0001DBC3  0000              add [bx+si],al
0001DBC5  0000              add [bx+si],al
0001DBC7  0000              add [bx+si],al
0001DBC9  0000              add [bx+si],al
0001DBCB  0000              add [bx+si],al
0001DBCD  0000              add [bx+si],al
0001DBCF  0000              add [bx+si],al
0001DBD1  0000              add [bx+si],al
0001DBD3  0000              add [bx+si],al
0001DBD5  0000              add [bx+si],al
0001DBD7  0000              add [bx+si],al
0001DBD9  0000              add [bx+si],al
0001DBDB  0000              add [bx+si],al
0001DBDD  0000              add [bx+si],al
0001DBDF  0000              add [bx+si],al
0001DBE1  0000              add [bx+si],al
0001DBE3  0000              add [bx+si],al
0001DBE5  0000              add [bx+si],al
0001DBE7  0000              add [bx+si],al
0001DBE9  0000              add [bx+si],al
0001DBEB  0000              add [bx+si],al
0001DBED  0000              add [bx+si],al
0001DBEF  0000              add [bx+si],al
0001DBF1  0000              add [bx+si],al
0001DBF3  0000              add [bx+si],al
0001DBF5  0000              add [bx+si],al
0001DBF7  0000              add [bx+si],al
0001DBF9  0000              add [bx+si],al
0001DBFB  0000              add [bx+si],al
0001DBFD  0000              add [bx+si],al
0001DBFF  0000              add [bx+si],al
0001DC01  0000              add [bx+si],al
0001DC03  0000              add [bx+si],al
0001DC05  0000              add [bx+si],al
0001DC07  0000              add [bx+si],al
0001DC09  0000              add [bx+si],al
0001DC0B  0000              add [bx+si],al
0001DC0D  0000              add [bx+si],al
0001DC0F  0000              add [bx+si],al
0001DC11  0000              add [bx+si],al
0001DC13  0000              add [bx+si],al
0001DC15  0000              add [bx+si],al
0001DC17  0000              add [bx+si],al
0001DC19  0000              add [bx+si],al
0001DC1B  0000              add [bx+si],al
0001DC1D  0000              add [bx+si],al
0001DC1F  0000              add [bx+si],al
0001DC21  0000              add [bx+si],al
0001DC23  0000              add [bx+si],al
0001DC25  0000              add [bx+si],al
0001DC27  0000              add [bx+si],al
0001DC29  0000              add [bx+si],al
0001DC2B  0000              add [bx+si],al
0001DC2D  0000              add [bx+si],al
0001DC2F  0000              add [bx+si],al
0001DC31  0000              add [bx+si],al
0001DC33  0000              add [bx+si],al
0001DC35  0000              add [bx+si],al
0001DC37  0000              add [bx+si],al
0001DC39  0000              add [bx+si],al
0001DC3B  0000              add [bx+si],al
0001DC3D  0000              add [bx+si],al
0001DC3F  0000              add [bx+si],al
0001DC41  0000              add [bx+si],al
0001DC43  0000              add [bx+si],al
0001DC45  0000              add [bx+si],al
0001DC47  0000              add [bx+si],al
0001DC49  0000              add [bx+si],al
0001DC4B  0000              add [bx+si],al
0001DC4D  0000              add [bx+si],al
0001DC4F  0000              add [bx+si],al
0001DC51  0000              add [bx+si],al
0001DC53  0000              add [bx+si],al
0001DC55  0000              add [bx+si],al
0001DC57  0000              add [bx+si],al
0001DC59  0000              add [bx+si],al
0001DC5B  0000              add [bx+si],al
0001DC5D  0000              add [bx+si],al
0001DC5F  0000              add [bx+si],al
0001DC61  0000              add [bx+si],al
0001DC63  0000              add [bx+si],al
0001DC65  0000              add [bx+si],al
0001DC67  0000              add [bx+si],al
0001DC69  0000              add [bx+si],al
0001DC6B  0000              add [bx+si],al
0001DC6D  0000              add [bx+si],al
0001DC6F  0000              add [bx+si],al
0001DC71  0000              add [bx+si],al
0001DC73  0000              add [bx+si],al
0001DC75  0000              add [bx+si],al
0001DC77  0000              add [bx+si],al
0001DC79  0000              add [bx+si],al
0001DC7B  0000              add [bx+si],al
0001DC7D  0000              add [bx+si],al
0001DC7F  0000              add [bx+si],al
0001DC81  0000              add [bx+si],al
0001DC83  0000              add [bx+si],al
0001DC85  0000              add [bx+si],al
0001DC87  0000              add [bx+si],al
0001DC89  0000              add [bx+si],al
0001DC8B  0000              add [bx+si],al
0001DC8D  0000              add [bx+si],al
0001DC8F  0000              add [bx+si],al
0001DC91  0000              add [bx+si],al
0001DC93  0000              add [bx+si],al
0001DC95  0000              add [bx+si],al
0001DC97  0000              add [bx+si],al
0001DC99  0000              add [bx+si],al
0001DC9B  0000              add [bx+si],al
0001DC9D  0000              add [bx+si],al
0001DC9F  0000              add [bx+si],al
0001DCA1  0000              add [bx+si],al
0001DCA3  0000              add [bx+si],al
0001DCA5  0000              add [bx+si],al
0001DCA7  0000              add [bx+si],al
0001DCA9  0000              add [bx+si],al
0001DCAB  0000              add [bx+si],al
0001DCAD  0000              add [bx+si],al
0001DCAF  0000              add [bx+si],al
0001DCB1  0000              add [bx+si],al
0001DCB3  0000              add [bx+si],al
0001DCB5  0000              add [bx+si],al
0001DCB7  0000              add [bx+si],al
0001DCB9  0000              add [bx+si],al
0001DCBB  0000              add [bx+si],al
0001DCBD  0000              add [bx+si],al
0001DCBF  0000              add [bx+si],al
0001DCC1  0000              add [bx+si],al
0001DCC3  0000              add [bx+si],al
0001DCC5  0000              add [bx+si],al
0001DCC7  0000              add [bx+si],al
0001DCC9  0000              add [bx+si],al
0001DCCB  0000              add [bx+si],al
0001DCCD  0000              add [bx+si],al
0001DCCF  0000              add [bx+si],al
0001DCD1  0000              add [bx+si],al
0001DCD3  0000              add [bx+si],al
0001DCD5  0000              add [bx+si],al
0001DCD7  0000              add [bx+si],al
0001DCD9  0000              add [bx+si],al
0001DCDB  0000              add [bx+si],al
0001DCDD  0000              add [bx+si],al
0001DCDF  0000              add [bx+si],al
0001DCE1  0000              add [bx+si],al
0001DCE3  0000              add [bx+si],al
0001DCE5  0000              add [bx+si],al
0001DCE7  0000              add [bx+si],al
0001DCE9  0000              add [bx+si],al
0001DCEB  0000              add [bx+si],al
0001DCED  0000              add [bx+si],al
0001DCEF  0000              add [bx+si],al
0001DCF1  0000              add [bx+si],al
0001DCF3  0000              add [bx+si],al
0001DCF5  0000              add [bx+si],al
0001DCF7  0000              add [bx+si],al
0001DCF9  0000              add [bx+si],al
0001DCFB  0000              add [bx+si],al
0001DCFD  0000              add [bx+si],al
0001DCFF  0000              add [bx+si],al
0001DD01  0000              add [bx+si],al
0001DD03  0000              add [bx+si],al
0001DD05  0000              add [bx+si],al
0001DD07  0000              add [bx+si],al
0001DD09  0000              add [bx+si],al
0001DD0B  0000              add [bx+si],al
0001DD0D  0000              add [bx+si],al
0001DD0F  0000              add [bx+si],al
0001DD11  0000              add [bx+si],al
0001DD13  0000              add [bx+si],al
0001DD15  0000              add [bx+si],al
0001DD17  0000              add [bx+si],al
0001DD19  0000              add [bx+si],al
0001DD1B  0000              add [bx+si],al
0001DD1D  0000              add [bx+si],al
0001DD1F  0000              add [bx+si],al
0001DD21  0000              add [bx+si],al
0001DD23  0000              add [bx+si],al
0001DD25  0000              add [bx+si],al
0001DD27  0000              add [bx+si],al
0001DD29  0000              add [bx+si],al
0001DD2B  0000              add [bx+si],al
0001DD2D  0000              add [bx+si],al
0001DD2F  0000              add [bx+si],al
0001DD31  0000              add [bx+si],al
0001DD33  0000              add [bx+si],al
0001DD35  0000              add [bx+si],al
0001DD37  0000              add [bx+si],al
0001DD39  0000              add [bx+si],al
0001DD3B  0000              add [bx+si],al
0001DD3D  0000              add [bx+si],al
0001DD3F  0000              add [bx+si],al
0001DD41  0000              add [bx+si],al
0001DD43  0000              add [bx+si],al
0001DD45  0000              add [bx+si],al
0001DD47  0000              add [bx+si],al
0001DD49  0000              add [bx+si],al
0001DD4B  0000              add [bx+si],al
0001DD4D  0000              add [bx+si],al
0001DD4F  0000              add [bx+si],al
0001DD51  0000              add [bx+si],al
0001DD53  0000              add [bx+si],al
0001DD55  0000              add [bx+si],al
0001DD57  0000              add [bx+si],al
0001DD59  0000              add [bx+si],al
0001DD5B  0000              add [bx+si],al
0001DD5D  0000              add [bx+si],al
0001DD5F  0000              add [bx+si],al
0001DD61  0000              add [bx+si],al
0001DD63  0000              add [bx+si],al
0001DD65  0000              add [bx+si],al
0001DD67  0000              add [bx+si],al
0001DD69  0000              add [bx+si],al
0001DD6B  0000              add [bx+si],al
0001DD6D  0000              add [bx+si],al
0001DD6F  0000              add [bx+si],al
0001DD71  0000              add [bx+si],al
0001DD73  0000              add [bx+si],al
0001DD75  0000              add [bx+si],al
0001DD77  0000              add [bx+si],al
0001DD79  0000              add [bx+si],al
0001DD7B  0000              add [bx+si],al
0001DD7D  0000              add [bx+si],al
0001DD7F  0000              add [bx+si],al
0001DD81  0000              add [bx+si],al
0001DD83  0000              add [bx+si],al
0001DD85  0000              add [bx+si],al
0001DD87  0000              add [bx+si],al
0001DD89  0000              add [bx+si],al
0001DD8B  0000              add [bx+si],al
0001DD8D  0000              add [bx+si],al
0001DD8F  0000              add [bx+si],al
0001DD91  0000              add [bx+si],al
0001DD93  0000              add [bx+si],al
0001DD95  0000              add [bx+si],al
0001DD97  0000              add [bx+si],al
0001DD99  0000              add [bx+si],al
0001DD9B  0000              add [bx+si],al
0001DD9D  0000              add [bx+si],al
0001DD9F  0000              add [bx+si],al
0001DDA1  0000              add [bx+si],al
0001DDA3  0000              add [bx+si],al
0001DDA5  0000              add [bx+si],al
0001DDA7  0000              add [bx+si],al
0001DDA9  0000              add [bx+si],al
0001DDAB  0000              add [bx+si],al
0001DDAD  0000              add [bx+si],al
0001DDAF  0000              add [bx+si],al
0001DDB1  0000              add [bx+si],al
0001DDB3  0000              add [bx+si],al
0001DDB5  0000              add [bx+si],al
0001DDB7  0000              add [bx+si],al
0001DDB9  0000              add [bx+si],al
0001DDBB  0000              add [bx+si],al
0001DDBD  0000              add [bx+si],al
0001DDBF  0000              add [bx+si],al
0001DDC1  0000              add [bx+si],al
0001DDC3  0000              add [bx+si],al
0001DDC5  0000              add [bx+si],al
0001DDC7  0000              add [bx+si],al
0001DDC9  0000              add [bx+si],al
0001DDCB  0000              add [bx+si],al
0001DDCD  0000              add [bx+si],al
0001DDCF  0000              add [bx+si],al
0001DDD1  0000              add [bx+si],al
0001DDD3  0000              add [bx+si],al
0001DDD5  004355            add [bp+di+0x55],al
0001DDD8  42                inc dx
0001DDD9  49                dec cx
0001DDDA  54                push sp
0001DDDB  53                push bx
0001DDDC  3A20              cmp ah,[bx+si]
0001DDDE  0100              add [bx+si],ax
0001DDE0  53                push bx
0001DDE1  50                push ax
0001DDE2  41                inc cx
0001DDE3  43                inc bx
0001DDE4  45                inc bp
0001DDE5  42                inc dx
0001DDE6  41                inc cx
0001DDE7  52                push dx
0001DDE8  20544F            and [si+0x4f],dl
0001DDEB  205245            and [bp+si+0x45],dl
0001DDEE  53                push bx
0001DDEF  55                push bp
0001DDF0  4D                dec bp
0001DDF1  45                inc bp
0001DDF2  2E0020            add [cs:bx+si],ah
0001DDF5  2020              and [bx+si],ah
0001DDF7  2020              and [bx+si],ah
0001DDF9  2020              and [bx+si],ah
0001DDFB  2020              and [bx+si],ah
0001DDFD  2020              and [bx+si],ah
0001DDFF  2020              and [bx+si],ah
0001DE01  2020              and [bx+si],ah
0001DE03  2020              and [bx+si],ah
0001DE05  2020              and [bx+si],ah
0001DE07  0028              add [bx+si],ch
0001DE09  314129            xor [bx+di+0x29],ax
0001DE0C  0002              add [bp+si],al
0001DE0E  07                pop es
0001DE0F  07                pop es
0001DE10  59                pop cx
0001DE11  4F                dec di
0001DE12  55                push bp
0001DE13  27                daa
0001DE14  52                push dx
0001DE15  45                inc bp
0001DE16  204120            and [bx+di+0x20],al
0001DE19  53                push bx
0001DE1A  48                dec ax
0001DE1B  41                inc cx
0001DE1C  44                inc sp
0001DE1D  4F                dec di
0001DE1E  57                push di
0001DE1F  0100              add [bx+si],ax
0001DE21  47                inc di
0001DE22  45                inc bp
0001DE23  54                push sp
0001DE24  2000              and [bx+si],al
0001DE26  45                inc bp
0001DE27  4E                dec si
0001DE28  44                inc sp
0001DE29  204F46            and [bx+0x46],cl
0001DE2C  204144            and [bx+di+0x44],al
0001DE2F  56                push si
0001DE30  45                inc bp
0001DE31  4E                dec si
0001DE32  54                push sp
0001DE33  55                push bp
0001DE34  52                push dx
0001DE35  45                inc bp
0001DE36  2120              and [bx+si],sp
0001DE38  2000              and [bx+si],al
0001DE3A  0207              add al,[bx]
0001DE3C  035445            add dx,[si+0x45]
0001DE3F  43                inc bx
0001DE40  48                dec ax
0001DE41  4E                dec si
0001DE42  4F                dec di
0001DE43  2D4241            sub ax,0x4142
0001DE46  4E                dec si
0001DE47  44                inc sp
0001DE48  49                dec cx
0001DE49  54                push sp
0001DE4A  20414C            and [bx+di+0x4c],al
0001DE4D  45                inc bp
0001DE4E  52                push dx
0001DE4F  54                push sp
0001DE50  00504C            add [bx+si+0x4c],dl
0001DE53  41                inc cx
0001DE54  59                pop cx
0001DE55  45                inc bp
0001DE56  52                push dx
0001DE57  204F4E            and [bx+0x4e],cl
0001DE5A  45                inc bp
0001DE5B  3A20              cmp ah,[bx+si]
0001DE5D  4E                dec si
0001DE5E  41                inc cx
0001DE5F  4D                dec bp
0001DE60  45                inc bp
0001DE61  3F                aas
0001DE62  3F                aas
0001DE63  3F                aas
0001DE64  00504C            add [bx+si+0x4c],dl
0001DE67  41                inc cx
0001DE68  59                pop cx
0001DE69  45                inc bp
0001DE6A  52                push dx
0001DE6B  205457            and [si+0x57],dl
0001DE6E  4F                dec di
0001DE6F  3A20              cmp ah,[bx+si]
0001DE71  4E                dec si
0001DE72  41                inc cx
0001DE73  4D                dec bp
0001DE74  45                inc bp
0001DE75  3F                aas
0001DE76  3F                aas
0001DE77  3F                aas
0001DE78  004849            add [bx+si+0x49],cl
0001DE7B  54                push sp
0001DE7C  2E71CF            cs jno 0xde4e
0001DE7F  72C1              jc 0xde42
0001DE81  8E99AD61          mov ds,[bx+di+0x61ad]
0001DE85  00E5              add ch,ah
0001DE87  0001              add [bx+di],al
0001DE89  0102              add [bp+si],ax
0001DE8B  0202              add al,[bp+si]
0001DE8D  0303              add ax,[bp+di]
0001DE8F  0000              add [bx+si],al
0001DE91  0102              add [bp+si],ax
0001DE93  0203              add al,[bp+di]
0001DE95  0303              add ax,[bp+di]
0001DE97  0000              add [bx+si],al
0001DE99  0101              add [bx+di],ax
0001DE9B  0203              add al,[bp+di]
0001DE9D  0300              add ax,[bx+si]
0001DE9F  0001              add [bx+di],al
0001DEA1  0101              add [bx+di],ax
0001DEA3  0202              add al,[bp+si]
0001DEA5  0300              add ax,[bx+si]
0001DEA7  0001              add [bx+di],al
0001DEA9  0001              add [bx+di],al
0001DEAB  0809              or [bx+di],cl
0001DEAD  0A0B              or cl,[bp+di]
0001DEAF  0203              add al,[bp+di]
0001DEB1  0203              add al,[bp+di]
0001DEB3  0405              add al,0x5
0001DEB5  06                push es
0001DEB6  07                pop es
0001DEB7  0000              add [bx+si],al
0001DEB9  0001              add [bx+di],al
0001DEBB  0000              add [bx+si],al
0001DEBD  0200              add al,[bx+si]
0001DEBF  0000              add [bx+si],al
0001DEC1  0002              add [bp+si],al
0001DEC3  0201              add al,[bx+di]
0001DEC5  0102              add [bp+si],ax
0001DEC7  0303              add ax,[bp+di]
0001DEC9  0305              add ax,[di]
0001DECB  0000              add [bx+si],al
0001DECD  0303              add ax,[bp+di]
0001DECF  050504            add ax,0x405
0001DED2  0303              add ax,[bp+di]
0001DED4  06                push es
0001DED5  07                pop es
0001DED6  07                pop es
0001DED7  0C0C              or al,0xc
0001DED9  0C0D              or al,0xd
0001DEDB  0C0D              or al,0xd
0001DEDD  0E                push cs
0001DEDE  0E                push cs
0001DEDF  0E                push cs
0001DEE0  0E                push cs
0001DEE1  0E                push cs
0001DEE2  0E                push cs
0001DEE3  0C0D              or al,0xd
0001DEE5  0C0D              or al,0xd
0001DEE7  0C0D              or al,0xd
0001DEE9  0E                push cs
0001DEEA  0F0E              femms
0001DEEC  0F0E              femms
0001DEEE  0F                db 0x0f
0001DEEF  0F                db 0x0f
0001DEF0  0F0F0F0C          pi2fw mm1,[bx]
0001DEF4  0C0C              or al,0xc
0001DEF6  0CFF              or al,0xff
0001DEF8  FF                db 0xff
0001DEF9  FFAADAAA          jmp far [bp+si-0x5526]
0001DEFD  FF                db 0xff
0001DEFE  FF                db 0xff
0001DEFF  DA                db 0xda
0001DF00  FF                db 0xff
0001DF01  FF00              inc word [bx+si]
0001DF03  6E                outsb
0001DF04  7C00              jl 0xdf06
0001DF06  0000              add [bx+si],al
0001DF08  0000              add [bx+si],al
0001DF0A  0000              add [bx+si],al
0001DF0C  0000              add [bx+si],al
0001DF0E  0000              add [bx+si],al
0001DF10  0000              add [bx+si],al
0001DF12  0001              add [bx+di],al
0001DF14  0000              add [bx+si],al
0001DF16  0000              add [bx+si],al
0001DF18  0000              add [bx+si],al
0001DF1A  0000              add [bx+si],al
0001DF1C  0000              add [bx+si],al
0001DF1E  0000              add [bx+si],al
0001DF20  0000              add [bx+si],al
0001DF22  0000              add [bx+si],al
0001DF24  0000              add [bx+si],al
0001DF26  0000              add [bx+si],al
0001DF28  0000              add [bx+si],al
0001DF2A  0000              add [bx+si],al
0001DF2C  0000              add [bx+si],al
0001DF2E  0000              add [bx+si],al
0001DF30  0000              add [bx+si],al
0001DF32  0000              add [bx+si],al
0001DF34  0000              add [bx+si],al
0001DF36  0000              add [bx+si],al
0001DF38  0100              add [bx+si],ax
0001DF3A  0000              add [bx+si],al
0001DF3C  0100              add [bx+si],ax
0001DF3E  0000              add [bx+si],al
0001DF40  00FF              add bh,bh
0001DF42  FF00              inc word [bx+si]
0001DF44  0000              add [bx+si],al
0001DF46  0000              add [bx+si],al
0001DF48  0000              add [bx+si],al
0001DF4A  0000              add [bx+si],al
0001DF4C  0000              add [bx+si],al
0001DF4E  0000              add [bx+si],al
0001DF50  0000              add [bx+si],al
0001DF52  0000              add [bx+si],al
0001DF54  0000              add [bx+si],al
0001DF56  0000              add [bx+si],al
0001DF58  0000              add [bx+si],al
0001DF5A  0000              add [bx+si],al
0001DF5C  0000              add [bx+si],al
0001DF5E  0000              add [bx+si],al
0001DF60  0000              add [bx+si],al
0001DF62  0000              add [bx+si],al
0001DF64  0000              add [bx+si],al
0001DF66  0000              add [bx+si],al
0001DF68  0000              add [bx+si],al
0001DF6A  0000              add [bx+si],al
0001DF6C  0000              add [bx+si],al
0001DF6E  0000              add [bx+si],al
0001DF70  0000              add [bx+si],al
0001DF72  0000              add [bx+si],al
0001DF74  0000              add [bx+si],al
0001DF76  0000              add [bx+si],al
0001DF78  0000              add [bx+si],al
0001DF7A  0000              add [bx+si],al
0001DF7C  0000              add [bx+si],al
0001DF7E  0000              add [bx+si],al
0001DF80  0000              add [bx+si],al
0001DF82  0000              add [bx+si],al
0001DF84  0000              add [bx+si],al
0001DF86  0000              add [bx+si],al
0001DF88  0000              add [bx+si],al
0001DF8A  0000              add [bx+si],al
0001DF8C  006251            add [bp+si+0x51],ah
0001DF8F  8E5E5B            mov ds,[bp+0x5b]
0001DF92  8E6668            mov fs,[bp+0x68]
0001DF95  8E686C            mov gs,[bx+si+0x6c]
0001DF98  8E7179            mov segr6,[bx+di+0x79]
0001DF9B  8E00              mov es,[bx+si]
0001DF9D  4C                dec sp
0001DF9E  4F                dec di
0001DF9F  56                push si
0001DFA0  45                inc bp
0001DFA1  4B                dec bx
0001DFA2  685349            push word 0x4953
0001DFA5  D2811987          rol byte [bx+di-0x78e7],cl
0001DFA9  0200              add al,[bx+si]
0001DFAB  0D6301            or ax,0x163
0001DFAE  006400            add [si+0x0],ah
0001DFB1  016501            add [di+0x1],sp
0001DFB4  0100              add [bx+si],ax
0001DFB6  5F                pop di
0001DFB7  0100              add [bx+si],ax
0001DFB9  60                pusha
0001DFBA  0200              add al,[bx+si]
0001DFBC  61                popa
0001DFBD  0001              add [bx+di],al
0001DFBF  61                popa
0001DFC0  0201              add al,[bx+di]
0001DFC2  006700            add [bx+0x0],ah
0001DFC5  0100              add [bx+si],ax
0001DFC7  6901006A          imul ax,[bx+di],word 0x6a00
0001DFCB  0200              add al,[bx+si]
0001DFCD  6B0001            imul ax,[bx+si],byte +0x1
0001DFD0  6B0201            imul ax,[bp+si],byte +0x1
0001DFD3  006901            add [bx+di+0x1],ch
0001DFD6  006902            add [bx+di+0x2],ch
0001DFD9  006A03            add [bp+si+0x3],ch
0001DFDC  006B00            add [bp+di+0x0],ch
0001DFDF  016B03            add [bp+di+0x3],bp
0001DFE2  0100              add [bx+si],ax
0001DFE4  2020              and [bx+si],ah
0001DFE6  2020              and [bx+si],ah
0001DFE8  2020              and [bx+si],ah
0001DFEA  2020              and [bx+si],ah
0001DFEC  2020              and [bx+si],ah
0001DFEE  2020              and [bx+si],ah
0001DFF0  2020              and [bx+si],ah
0001DFF2  2020              and [bx+si],ah
0001DFF4  2020              and [bx+si],ah
0001DFF6  2020              and [bx+si],ah
0001DFF8  2020              and [bx+si],ah
0001DFFA  2020              and [bx+si],ah
0001DFFC  2020              and [bx+si],ah
0001DFFE  2001              and [bx+di],al
0001E000  2020              and [bx+si],ah
0001E002  2020              and [bx+si],ah
0001E004  2020              and [bx+si],ah
0001E006  2020              and [bx+si],ah
0001E008  2020              and [bx+si],ah
0001E00A  2020              and [bx+si],ah
0001E00C  2020              and [bx+si],ah
0001E00E  2020              and [bx+si],ah
0001E010  2020              and [bx+si],ah
0001E012  2020              and [bx+si],ah
0001E014  2020              and [bx+si],ah
0001E016  2020              and [bx+si],ah
0001E018  2020              and [bx+si],ah
0001E01A  2000              and [bx+si],al
0001E01C  8F                db 0x8f
0001E01D  A13EA2            mov ax,[0xa23e]
0001E020  03A2C9A1          add sp,[bp+si-0x5e37]
0001E024  6790              xchg ax,ax
0001E026  689073            push word 0x7390
0001E029  90                nop
0001E02A  7E90              jng 0xdfbc
0001E02C  89909490          mov [bx+si-0x6f6c],dx
0001E030  BC90B6            mov sp,0xb690
0001E033  90                nop
0001E034  AA                stosb
0001E035  90                nop
0001E036  FA                cli
0001E037  8CC8              mov ax,cs
0001E039  8ED8              mov ds,ax
0001E03B  8EC0              mov es,ax
0001E03D  8ED0              mov ss,ax
0001E03F  BC3089            mov sp,0x8930
0001E042  FB                sti
0001E043  E80C1D            call 0xfd52
0001E046  E8DA05            call 0xe623
0001E049  72FB              jc 0xe046
0001E04B  E8F90C            call 0xed47
0001E04E  E8FF00            call 0xe150
0001E051  E8A016            call 0xf6f4
0001E054  E82518            call 0xf87c
0001E057  E82B1D            call 0xfd85
0001E05A  E81B17            call 0xf778
0001E05D  E89A09            call 0xe9fa
0001E060  BC3089            mov sp,0x8930
0001E063  E8EF0C            call 0xed55
0001E066  BB1C8F            mov bx,0x8f1c
0001E069  833F00            cmp word [bx],byte +0x0
0001E06C  74F8              jz 0xe066
0001E06E  53                push bx
0001E06F  FF17              call [bx]
0001E071  5B                pop bx
0001E072  83C302            add bx,byte +0x2
0001E075  EBF2              jmp short 0xe069
0001E077  D7                xlatb
0001E078  96                xchg ax,si
0001E079  96                xchg ax,si
0001E07A  9E                sahf
0001E07B  46                inc si
0001E07C  A14A8F            mov ax,[0x8f4a]
0001E07F  49                dec cx
0001E080  A0A18F            mov al,[0x8fa1]
0001E083  FA                cli
0001E084  9BFA              wait cli
0001E086  9B3D9FBC          wait cmp ax,0xbc9f
0001E08A  9F                lahf
0001E08B  8792FE95          xchg [bp+si-0x6a02],dx
0001E08F  F290              repne nop
0001E091  62965D96          bound dx,[bp-0x69a3]
0001E095  7B92              jpo 0xe029
0001E097  6E                outsb
0001E098  97                xchg ax,di
0001E099  0AADE4A0          or ch,[di-0x5f1c]
0001E09D  D000              rol byte [bx+si],1
0001E09F  84A6D000          test [bp+0xd0],ah
0001E0A3  0000              add [bx+si],al
0001E0A5  BE4E89            mov si,0x894e
0001E0A8  E80300            call 0xe0ae
0001E0AB  BE8389            mov si,0x8983
0001E0AE  F604FF            test byte [si],0xff
0001E0B1  7901              jns 0xe0b4
0001E0B3  C3                ret
0001E0B4  8B7C2F            mov di,[si+0x2f]
0001E0B7  BA3001            mov dx,0x130
0001E0BA  BB3089            mov bx,0x8930
0001E0BD  807C2E00          cmp byte [si+0x2e],0x0
0001E0C1  7528              jnz 0xe0eb
0001E0C3  803C00            cmp byte [si],0x0
0001E0C6  7507              jnz 0xe0cf
0001E0C8  833EF48D00        cmp word [0x8df4],byte +0x0
0001E0CD  750B              jnz 0xe0da
0001E0CF  C6443103          mov byte [si+0x31],0x3
0001E0D3  8B36D18D          mov si,[0x8dd1]
0001E0D7  E9281D            jmp 0xfe02
0001E0DA  807C3101          cmp byte [si+0x31],0x1
0001E0DE  7501              jnz 0xe0e1
0001E0E0  C3                ret
0001E0E1  C6443101          mov byte [si+0x31],0x1
0001E0E5  BEF00A            mov si,0xaf0
0001E0E8  E9171D            jmp 0xfe02
0001E0EB  807C3102          cmp byte [si+0x31],0x2
0001E0EF  7501              jnz 0xe0f2
0001E0F1  C3                ret
0001E0F2  C6443102          mov byte [si+0x31],0x2
0001E0F6  BE300A            mov si,0xa30
0001E0F9  E9061D            jmp 0xfe02
0001E0FC  803E4E8900        cmp byte [0x894e],0x0
0001E101  7501              jnz 0xe104
0001E103  C3                ret
0001E104  803E838900        cmp byte [0x8983],0x0
0001E109  7501              jnz 0xe10c
0001E10B  C3                ret
0001E10C  FE06D38D          inc byte [0x8dd3]
0001E110  803ED38D05        cmp byte [0x8dd3],0x5
0001E115  7301              jnc 0xe118
0001E117  C3                ret
0001E118  BA0100            mov dx,0x1
0001E11B  B93F00            mov cx,0x3f
0001E11E  52                push dx
0001E11F  51                push cx
0001E120  E8ECF2            call 0xd40f
0001E123  A1C18D            mov ax,[0x8dc1]
0001E126  8B1EC38D          mov bx,[0x8dc3]
0001E12A  BECB8C            mov si,0x8ccb
0001E12D  E822F3            call 0xd452
0001E130  B9EE02            mov cx,0x2ee
0001E133  E2FE              loop 0xe133
0001E135  59                pop cx
0001E136  5A                pop dx
0001E137  81C20101          add dx,0x101
0001E13B  81E20707          and dx,0x707
0001E13F  E2DD              loop 0xe11e
0001E141  BE4E89            mov si,0x894e
0001E144  E81F0A            call 0xeb66
0001E147  BE8389            mov si,0x8983
0001E14A  E8190A            call 0xeb66
0001E14D  E9FEFE            jmp 0xe04e
0001E150  C706A88D6E7C      mov word [0x8da8],0x7c6e
0001E156  C606DD8D17        mov byte [0x8ddd],0x17
0001E15B  C7065989500B      mov word [0x8959],0xb50
0001E161  C606798903        mov byte [0x8979],0x3
0001E166  C606D98D00        mov byte [0x8dd9],0x0
0001E16B  C606A68DFF        mov byte [0x8da6],0xff
0001E170  C606A78D00        mov byte [0x8da7],0x0
0001E175  C3                ret
0001E176  C706007C0000      mov word [0x7c00],0x0
0001E17C  C606FE7B50        mov byte [0x7bfe],0x50
0001E181  C606FF7B50        mov byte [0x7bff],0x50
0001E186  8A1EA68D          mov bl,[0x8da6]
0001E18A  80FB04            cmp bl,0x4
0001E18D  7708              ja 0xe197
0001E18F  FE0EA78D          dec byte [0x8da7]
0001E193  7402              jz 0xe197
0001E195  EB0F              jmp short 0xe1a6
0001E197  8B36A88D          mov si,[0x8da8]
0001E19B  8A1C              mov bl,[si]
0001E19D  881EA68D          mov [0x8da6],bl
0001E1A1  46                inc si
0001E1A2  8936A88D          mov [0x8da8],si
0001E1A6  32FF              xor bh,bh
0001E1A8  D1E3              shl bx,1
0001E1AA  83FB08            cmp bx,byte +0x8
0001E1AD  770F              ja 0xe1be
0001E1AF  F606A78DFF        test byte [0x8da7],0xff
0001E1B4  7508              jnz 0xe1be
0001E1B6  AC                lodsb
0001E1B7  A2A78D            mov [0x8da7],al
0001E1BA  8936A88D          mov [0x8da8],si
0001E1BE  FFA7C98E          jmp [bx-0x7137]
0001E1C2  C3                ret
0001E1C3  C606FE7B50        mov byte [0x7bfe],0x50
0001E1C8  C606FF7B00        mov byte [0x7bff],0x0
0001E1CD  C3                ret
0001E1CE  C606FE7B96        mov byte [0x7bfe],0x96
0001E1D3  C606FF7B50        mov byte [0x7bff],0x50
0001E1D8  C3                ret
0001E1D9  C606FE7B50        mov byte [0x7bfe],0x50
0001E1DE  C606FF7B96        mov byte [0x7bff],0x96
0001E1E3  C3                ret
0001E1E4  C606FE7B00        mov byte [0x7bfe],0x0
0001E1E9  C606FF7B50        mov byte [0x7bff],0x50
0001E1EE  C3                ret
0001E1EF  56                push si
0001E1F0  BA0607            mov dx,0x706
0001E1F3  E819F2            call 0xd40f
0001E1F6  5E                pop si
0001E1F7  B80900            mov ax,0x9
0001E1FA  BB0800            mov bx,0x8
0001E1FD  E852F2            call 0xd452
0001E200  8936A88D          mov [0x8da8],si
0001E204  C3                ret
0001E205  B80900            mov ax,0x9
0001E208  BB0800            mov bx,0x8
0001E20B  BE898E            mov si,0x8e89
0001E20E  E941F2            jmp 0xd452
0001E211  C606007C01        mov byte [0x7c00],0x1
0001E216  C3                ret
0001E217  8936A88D          mov [0x8da8],si
0001E21B  8306A88D04        add word [0x8da8],byte +0x4
0001E220  8BFE              mov di,si
0001E222  E8B400            call 0xe2d9
0001E225  E89E00            call 0xe2c6
0001E228  87F7              xchg di,si
0001E22A  AD                lodsw
0001E22B  8905              mov [di],ax
0001E22D  D0E0              shl al,1
0001E22F  D0E4              shl ah,1
0001E231  894504            mov [di+0x4],ax
0001E234  AD                lodsw
0001E235  884508            mov [di+0x8],al
0001E238  886509            mov [di+0x9],ah
0001E23B  87FE              xchg si,di
0001E23D  E87001            call 0xe3b0
0001E240  803EDD8D18        cmp byte [0x8ddd],0x18
0001E245  7401              jz 0xe248
0001E247  C3                ret
0001E248  C6440AFF          mov byte [si+0xa],0xff
0001E24C  C3                ret
0001E24D  BB3689            mov bx,0x8936
0001E250  BDE960            mov bp,0x60e9
0001E253  A00A8E            mov al,[0x8e0a]
0001E256  FEC0              inc al
0001E258  2403              and al,0x3
0001E25A  A20A8E            mov [0x8e0a],al
0001E25D  B4C0              mov ah,0xc0
0001E25F  F6E4              mul ah
0001E261  BE4E3A            mov si,0x3a4e
0001E264  03F0              add si,ax
0001E266  8B0EF88D          mov cx,[0x8df8]
0001E26A  56                push si
0001E26B  E81C00            call 0xe28a
0001E26E  5E                pop si
0001E26F  81C60003          add si,0x300
0001E273  8936D18D          mov [0x8dd1],si
0001E277  B90100            mov cx,0x1
0001E27A  BD068E            mov bp,0x8e06
0001E27D  803EDD8D01        cmp byte [0x8ddd],0x1
0001E282  7506              jnz 0xe28a
0001E284  B91500            mov cx,0x15
0001E287  BD9460            mov bp,0x6094
0001E28A  8B16048E          mov dx,[0x8e04]
0001E28E  51                push cx
0001E28F  32E4              xor ah,ah
0001E291  8A4600            mov al,[bp+0x0]
0001E294  45                inc bp
0001E295  8BF8              mov di,ax
0001E297  D1E7              shl di,1
0001E299  D1E7              shl di,1
0001E29B  D1E7              shl di,1
0001E29D  D1E7              shl di,1
0001E29F  8A4600            mov al,[bp+0x0]
0001E2A2  45                inc bp
0001E2A3  0AC0              or al,al
0001E2A5  781B              js 0xe2c2
0001E2A7  F626018E          mul byte [0x8e01]
0001E2AB  D1E0              shl ax,1
0001E2AD  D1E0              shl ax,1
0001E2AF  D1E0              shl ax,1
0001E2B1  D1E0              shl ax,1
0001E2B3  D1E0              shl ax,1
0001E2B5  D1E0              shl ax,1
0001E2B7  03F8              add di,ax
0001E2B9  8BC6              mov ax,si
0001E2BB  55                push bp
0001E2BC  E8431B            call 0xfe02
0001E2BF  5D                pop bp
0001E2C0  8BF0              mov si,ax
0001E2C2  59                pop cx
0001E2C3  E2C9              loop 0xe28e
0001E2C5  C3                ret
0001E2C6  57                push di
0001E2C7  8BFE              mov di,si
0001E2C9  B91100            mov cx,0x11
0001E2CC  B000              mov al,0x0
0001E2CE  F3AA              rep stosb
0001E2D0  C684F800FF        mov byte [si+0xf8],0xff
0001E2D5  FE0C              dec byte [si]
0001E2D7  5F                pop di
0001E2D8  C3                ret
0001E2D9  BE6F8A            mov si,0x8a6f
0001E2DC  B90A00            mov cx,0xa
0001E2DF  803CFF            cmp byte [si],0xff
0001E2E2  7406              jz 0xe2ea
0001E2E4  83C611            add si,byte +0x11
0001E2E7  E2F6              loop 0xe2df
0001E2E9  58                pop ax
0001E2EA  C3                ret
0001E2EB  BA0604            mov dx,0x406
0001E2EE  81FE4E89          cmp si,0x894e
0001E2F2  7503              jnz 0xe2f7
0001E2F4  BA0703            mov dx,0x307
0001E2F7  BD2B8C            mov bp,0x8c2b
0001E2FA  B90800            mov cx,0x8
0001E2FD  F64600FF          test byte [bp+0x0],0xff
0001E301  7406              jz 0xe309
0001E303  83C50A            add bp,byte +0xa
0001E306  E2F5              loop 0xe2fd
0001E308  C3                ret
0001E309  895605            mov [bp+0x5],dx
0001E30C  C646001F          mov byte [bp+0x0],0x1f
0001E310  B20A              mov dl,0xa
0001E312  F6F2              div dl
0001E314  0D3030            or ax,0x3030
0001E317  894607            mov [bp+0x7],ax
0001E31A  8B441B            mov ax,[si+0x1b]
0001E31D  8ADC              mov bl,ah
0001E31F  32E4              xor ah,ah
0001E321  32FF              xor bh,bh
0001E323  B103              mov cl,0x3
0001E325  D3E0              shl ax,cl
0001E327  FEC1              inc cl
0001E329  D3E3              shl bx,cl
0001E32B  40                inc ax
0001E32C  83C302            add bx,byte +0x2
0001E32F  894601            mov [bp+0x1],ax
0001E332  895E03            mov [bp+0x3],bx
0001E335  C3                ret
0001E336  8B1EFA8D          mov bx,[0x8dfa]
0001E33A  D1E3              shl bx,1
0001E33C  8B87E960          mov ax,[bx+0x60e9]
0001E340  D1EB              shr bx,1
0001E342  43                inc bx
0001E343  3B1EF88D          cmp bx,[0x8df8]
0001E347  7202              jc 0xe34b
0001E349  33DB              xor bx,bx
0001E34B  891EFA8D          mov [0x8dfa],bx
0001E34F  C3                ret
0001E350  E886FF            call 0xe2d9
0001E353  E870FF            call 0xe2c6
0001E356  E8DDFF            call 0xe336
0001E359  8904              mov [si],ax
0001E35B  D0E0              shl al,1
0001E35D  D0E4              shl ah,1
0001E35F  894404            mov [si+0x4],ax
0001E362  E84EF2            call 0xd5b3
0001E365  80E503            and ch,0x3
0001E368  886C07            mov [si+0x7],ch
0001E36B  886C09            mov [si+0x9],ch
0001E36E  B84501            mov ax,0x145
0001E371  803EDE8D00        cmp byte [0x8dde],0x0
0001E376  7503              jnz 0xe37b
0001E378  B85802            mov ax,0x258
0001E37B  803EDE8D0D        cmp byte [0x8dde],0xd
0001E380  7203              jc 0xe385
0001E382  B81400            mov ax,0x14
0001E385  3906CF8D          cmp [0x8dcf],ax
0001E389  770A              ja 0xe395
0001E38B  F6C670            test dh,0x70
0001E38E  7516              jnz 0xe3a6
0001E390  80E607            and dh,0x7
0001E393  7504              jnz 0xe399
0001E395  B609              mov dh,0x9
0001E397  EB14              jmp short 0xe3ad
0001E399  FECE              dec dh
0001E39B  80FE06            cmp dh,0x6
0001E39E  7406              jz 0xe3a6
0001E3A0  80C603            add dh,0x3
0001E3A3  EB08              jmp short 0xe3ad
0001E3A5  90                nop
0001E3A6  80E601            and dh,0x1
0001E3A9  0236FF8D          add dh,[0x8dff]
0001E3AD  887408            mov [si+0x8],dh
0001E3B0  8A4408            mov al,[si+0x8]
0001E3B3  8AE0              mov ah,al
0001E3B5  BB9C8D            mov bx,0x8d9c
0001E3B8  D7                xlatb
0001E3B9  80E107            and cl,0x7
0001E3BC  D2C0              rol al,cl
0001E3BE  803EDE8D06        cmp byte [0x8dde],0x6
0001E3C3  7202              jc 0xe3c7
0001E3C5  B0FF              mov al,0xff
0001E3C7  88440A            mov [si+0xa],al
0001E3CA  8AC4              mov al,ah
0001E3CC  BB443A            mov bx,0x3a44
0001E3CF  D7                xlatb
0001E3D0  884406            mov [si+0x6],al
0001E3D3  E92C0D            jmp 0xf102
0001E3D6  BE4D8A            mov si,0x8a4d
0001E3D9  BF3B8B            mov di,0x8b3b
0001E3DC  B97800            mov cx,0x78
0001E3DF  F3A5              rep movsw
0001E3E1  C3                ret
0001E3E2  BE4D8A            mov si,0x8a4d
0001E3E5  BD0E00            mov bp,0xe
0001E3E8  8A6408            mov ah,[si+0x8]
0001E3EB  80FC03            cmp ah,0x3
0001E3EE  720A              jc 0xe3fa
0001E3F0  8A5C0E            mov bl,[si+0xe]
0001E3F3  FEC3              inc bl
0001E3F5  7403              jz 0xe3fa
0001E3F7  885C0E            mov [si+0xe],bl
0001E3FA  803CFF            cmp byte [si],0xff
0001E3FD  7503              jnz 0xe402
0001E3FF  E98701            jmp 0xe589
0001E402  A0D48D            mov al,[0x8dd4]
0001E405  22440A            and al,[si+0xa]
0001E408  7503              jnz 0xe40d
0001E40A  E97C01            jmp 0xe589
0001E40D  80FC03            cmp ah,0x3
0001E410  7209              jc 0xe41b
0001E412  807C0E08          cmp byte [si+0xe],0x8
0001E416  7703              ja 0xe41b
0001E418  E94301            jmp 0xe55e
0001E41B  C606D68D00        mov byte [0x8dd6],0x0
0001E420  8B4402            mov ax,[si+0x2]
0001E423  0BC0              or ax,ax
0001E425  755F              jnz 0xe486
0001E427  E889F1            call 0xd5b3
0001E42A  807C0803          cmp byte [si+0x8],0x3
0001E42E  7256              jc 0xe486
0001E430  F6C610            test dh,0x10
0001E433  7551              jnz 0xe486
0001E435  FE06D68D          inc byte [0x8dd6]
0001E439  8A5C23            mov bl,[si+0x23]
0001E43C  A0CF8D            mov al,[0x8dcf]
0001E43F  A810              test al,0x10
0001E441  743B              jz 0xe47e
0001E443  BF8389            mov di,0x8983
0001E446  F6068389FF        test byte [0x8983],0xff
0001E44B  7804              js 0xe451
0001E44D  A820              test al,0x20
0001E44F  7403              jz 0xe454
0001E451  BF4E89            mov di,0x894e
0001E454  B401              mov ah,0x1
0001E456  8A451D            mov al,[di+0x1d]
0001E459  2A4404            sub al,[si+0x4]
0001E45C  7904              jns 0xe462
0001E45E  F6D8              neg al
0001E460  B403              mov ah,0x3
0001E462  3C02              cmp al,0x2
0001E464  730C              jnc 0xe472
0001E466  32E4              xor ah,ah
0001E468  8A451E            mov al,[di+0x1e]
0001E46B  2A4405            sub al,[si+0x5]
0001E46E  7802              js 0xe472
0001E470  B402              mov ah,0x2
0001E472  886409            mov [si+0x9],ah
0001E475  53                push bx
0001E476  56                push si
0001E477  E81901            call 0xe593
0001E47A  5E                pop si
0001E47B  5B                pop bx
0001E47C  EB08              jmp short 0xe486
0001E47E  D0EA              shr dl,1
0001E480  80E203            and dl,0x3
0001E483  885409            mov [si+0x9],dl
0001E486  807C0803          cmp byte [si+0x8],0x3
0001E48A  720A              jc 0xe496
0001E48C  A0D58D            mov al,[0x8dd5]
0001E48F  0AC0              or al,al
0001E491  7403              jz 0xe496
0001E493  E9C800            jmp 0xe55e
0001E496  8A4409            mov al,[si+0x9]
0001E499  FEC8              dec al
0001E49B  7812              js 0xe4af
0001E49D  FEC8              dec al
0001E49F  785B              js 0xe4fc
0001E4A1  FEC8              dec al
0001E4A3  7831              js 0xe4d6
0001E4A5  FEC8              dec al
0001E4A7  7903              jns 0xe4ac
0001E4A9  E98A00            jmp 0xe536
0001E4AC  E9AF00            jmp 0xe55e
0001E4AF  F64403FF          test byte [si+0x3],0xff
0001E4B3  7518              jnz 0xe4cd
0001E4B5  F64401FF          test byte [si+0x1],0xff
0001E4B9  7503              jnz 0xe4be
0001E4BB  E9A000            jmp 0xe55e
0001E4BE  A0018E            mov al,[0x8e01]
0001E4C1  F6D8              neg al
0001E4C3  E81501            call 0xe5db
0001E4C6  C6440302          mov byte [si+0x3],0x2
0001E4CA  FE4C01            dec byte [si+0x1]
0001E4CD  FE4C05            dec byte [si+0x5]
0001E4D0  FE4C03            dec byte [si+0x3]
0001E4D3  E98800            jmp 0xe55e
0001E4D6  F64403FF          test byte [si+0x3],0xff
0001E4DA  7510              jnz 0xe4ec
0001E4DC  8A4401            mov al,[si+0x1]
0001E4DF  40                inc ax
0001E4E0  3A06008E          cmp al,[0x8e00]
0001E4E4  7478              jz 0xe55e
0001E4E6  A0018E            mov al,[0x8e01]
0001E4E9  E8EF00            call 0xe5db
0001E4EC  FE4405            inc byte [si+0x5]
0001E4EF  8A4403            mov al,[si+0x3]
0001E4F2  3401              xor al,0x1
0001E4F4  884403            mov [si+0x3],al
0001E4F7  004401            add [si+0x1],al
0001E4FA  EB62              jmp short 0xe55e
0001E4FC  F64402FF          test byte [si+0x2],0xff
0001E500  750E              jnz 0xe510
0001E502  8A04              mov al,[si]
0001E504  40                inc ax
0001E505  3A06018E          cmp al,[0x8e01]
0001E509  7453              jz 0xe55e
0001E50B  B001              mov al,0x1
0001E50D  E8CB00            call 0xe5db
0001E510  FE4404            inc byte [si+0x4]
0001E513  8A4402            mov al,[si+0x2]
0001E516  3401              xor al,0x1
0001E518  884402            mov [si+0x2],al
0001E51B  0004              add [si],al
0001E51D  8A6406            mov ah,[si+0x6]
0001E520  F6C404            test ah,0x4
0001E523  7439              jz 0xe55e
0001E525  C7440F8001        mov word [si+0xf],0x180
0001E52A  F6C402            test ah,0x2
0001E52D  742F              jz 0xe55e
0001E52F  C7440F0003        mov word [si+0xf],0x300
0001E534  EB28              jmp short 0xe55e
0001E536  F64402FF          test byte [si+0x2],0xff
0001E53A  7511              jnz 0xe54d
0001E53C  F64404FF          test byte [si+0x4],0xff
0001E540  741C              jz 0xe55e
0001E542  B0FF              mov al,0xff
0001E544  E89400            call 0xe5db
0001E547  FE0C              dec byte [si]
0001E549  C6440202          mov byte [si+0x2],0x2
0001E54D  FE4C04            dec byte [si+0x4]
0001E550  FE4C02            dec byte [si+0x2]
0001E553  F6440604          test byte [si+0x6],0x4
0001E557  7405              jz 0xe55e
0001E559  C7440F0000        mov word [si+0xf],0x0
0001E55E  807C0801          cmp byte [si+0x8],0x1
0001E562  7410              jz 0xe574
0001E564  807C0802          cmp byte [si+0x8],0x2
0001E568  7714              ja 0xe57e
0001E56A  F74402FFFF        test word [si+0x2],0xffff
0001E56F  7403              jz 0xe574
0001E571  E922FF            jmp 0xe496
0001E574  FE4C0E            dec byte [si+0xe]
0001E577  7505              jnz 0xe57e
0001E579  E84AFD            call 0xe2c6
0001E57C  EB0B              jmp short 0xe589
0001E57E  FE4407            inc byte [si+0x7]
0001E581  8A4406            mov al,[si+0x6]
0001E584  2403              and al,0x3
0001E586  204407            and [si+0x7],al
0001E589  83C611            add si,byte +0x11
0001E58C  4D                dec bp
0001E58D  7403              jz 0xe592
0001E58F  E956FE            jmp 0xe3e8
0001E592  C3                ret
0001E593  807C0809          cmp byte [si+0x8],0x9
0001E597  7401              jz 0xe59a
0001E599  C3                ret
0001E59A  F74402FFFF        test word [si+0x2],0xffff
0001E59F  7401              jz 0xe5a2
0001E5A1  C3                ret
0001E5A2  87F7              xchg di,si
0001E5A4  E832FD            call 0xe2d9
0001E5A7  E81CFD            call 0xe2c6
0001E5AA  8A4509            mov al,[di+0x9]
0001E5AD  884409            mov [si+0x9],al
0001E5B0  C6440603          mov byte [si+0x6],0x3
0001E5B4  8B05              mov ax,[di]
0001E5B6  8904              mov [si],ax
0001E5B8  8B4504            mov ax,[di+0x4]
0001E5BB  894404            mov [si+0x4],ax
0001E5BE  C6440E10          mov byte [si+0xe],0x10
0001E5C2  C6440802          mov byte [si+0x8],0x2
0001E5C6  B80600            mov ax,0x6
0001E5C9  E8316C            call 0x51fd
0001E5CC  56                push si
0001E5CD  53                push bx
0001E5CE  55                push bp
0001E5CF  BB428E            mov bx,0x8e42
0001E5D2  E80917            call 0xfcde
0001E5D5  5D                pop bp
0001E5D6  5B                pop bx
0001E5D7  5E                pop si
0001E5D8  E9D5FD            jmp 0xe3b0
0001E5DB  98                cbw
0001E5DC  8BF8              mov di,ax
0001E5DE  037C0B            add di,[si+0xb]
0001E5E1  8A05              mov al,[di]
0001E5E3  3C78              cmp al,0x78
0001E5E5  7421              jz 0xe608
0001E5E7  807C0EFF          cmp byte [si+0xe],0xff
0001E5EB  7408              jz 0xe5f5
0001E5ED  3C40              cmp al,0x40
0001E5EF  7404              jz 0xe5f5
0001E5F1  3C72              cmp al,0x72
0001E5F3  7504              jnz 0xe5f9
0001E5F5  897C0B            mov [si+0xb],di
0001E5F8  C3                ret
0001E5F9  3C50              cmp al,0x50
0001E5FB  720B              jc 0xe608
0001E5FD  3C53              cmp al,0x53
0001E5FF  7707              ja 0xe608
0001E601  2C50              sub al,0x50
0001E603  3A4409            cmp al,[si+0x9]
0001E606  75ED              jnz 0xe5f5
0001E608  58                pop ax
0001E609  F606D68DFF        test byte [0x8dd6],0xff
0001E60E  740A              jz 0xe61a
0001E610  FE0ED68D          dec byte [0x8dd6]
0001E614  885C09            mov [si+0x9],bl
0001E617  E96CFE            jmp 0xe486
0001E61A  80E503            and ch,0x3
0001E61D  886C09            mov [si+0x9],ch
0001E620  E93BFF            jmp 0xe55e
0001E623  B202              mov dl,0x2
0001E625  B90300            mov cx,0x3
0001E628  80F203            xor dl,0x3
0001E62B  51                push cx
0001E62C  52                push dx
0001E62D  E81B00            call 0xe64b
0001E630  5A                pop dx
0001E631  59                pop cx
0001E632  7304              jnc 0xe638
0001E634  E2F5              loop 0xe62b
0001E636  EBED              jmp short 0xe625
0001E638  BB4D8A            mov bx,0x8a4d
0001E63B  BA0800            mov dx,0x8
0001E63E  33C0              xor ax,ax
0001E640  B90100            mov cx,0x1
0001E643  E8CB71            call 0x5811
0001E646  0AC0              or al,al
0001E648  74EE              jz 0xe638
0001E64A  C3                ret
0001E64B  32C0              xor al,al
0001E64D  E61C              out 0x1c,al
0001E64F  B004              mov al,0x4
0001E651  E61E              out 0x1e,al
0001E653  B9041A            mov cx,0x1a04
0001E656  E2FE              loop 0xe656
0001E658  B008              mov al,0x8
0001E65A  E608              out 0x8,al
0001E65C  D40A              aam
0001E65E  D40A              aam
0001E660  D40A              aam
0001E662  E408              in al,0x8
0001E664  A801              test al,0x1
0001E666  75FA              jnz 0xe662
0001E668  A880              test al,0x80
0001E66A  740A              jz 0xe676
0001E66C  B008              mov al,0x8
0001E66E  E608              out 0x8,al
0001E670  D40A              aam
0001E672  D40A              aam
0001E674  EBEC              jmp short 0xe662
0001E676  FA                cli
0001E677  FC                cld
0001E678  B9511B            mov cx,0x1b51
0001E67B  E2FE              loop 0xe67b
0001E67D  8AC2              mov al,dl
0001E67F  E60E              out 0xe,al
0001E681  B018              mov al,0x18
0001E683  E608              out 0x8,al
0001E685  D40A              aam
0001E687  D40A              aam
0001E689  D40A              aam
0001E68B  D40A              aam
0001E68D  D40A              aam
0001E68F  E408              in al,0x8
0001E691  A801              test al,0x1
0001E693  75FA              jnz 0xe68f
0001E695  A880              test al,0x80
0001E697  7402              jz 0xe69b
0001E699  EBDD              jmp short 0xe678
0001E69B  B9511B            mov cx,0x1b51
0001E69E  E2FE              loop 0xe69e
0001E6A0  BA0800            mov dx,0x8
0001E6A3  BF4D8A            mov di,0x8a4d
0001E6A6  B7FC              mov bh,0xfc
0001E6A8  B302              mov bl,0x2
0001E6AA  B90002            mov cx,0x200
0001E6AD  B0E4              mov al,0xe4
0001E6AF  EE                out dx,al
0001E6B0  D40A              aam
0001E6B2  D40A              aam
0001E6B4  EC                in al,dx
0001E6B5  A801              test al,0x1
0001E6B7  74FB              jz 0xe6b4
0001E6B9  84C7              test bh,al
0001E6BB  753A              jnz 0xe6f7
0001E6BD  EC                in al,dx
0001E6BE  84C3              test bl,al
0001E6C0  7407              jz 0xe6c9
0001E6C2  E40E              in al,0xe
0001E6C4  AA                stosb
0001E6C5  E2F6              loop 0xe6bd
0001E6C7  EB2E              jmp short 0xe6f7
0001E6C9  EC                in al,dx
0001E6CA  84C3              test bl,al
0001E6CC  7407              jz 0xe6d5
0001E6CE  E40E              in al,0xe
0001E6D0  AA                stosb
0001E6D1  E2EA              loop 0xe6bd
0001E6D3  EB22              jmp short 0xe6f7
0001E6D5  EC                in al,dx
0001E6D6  84C3              test bl,al
0001E6D8  7407              jz 0xe6e1
0001E6DA  E40E              in al,0xe
0001E6DC  AA                stosb
0001E6DD  E2DE              loop 0xe6bd
0001E6DF  EB16              jmp short 0xe6f7
0001E6E1  EC                in al,dx
0001E6E2  84C3              test bl,al
0001E6E4  7407              jz 0xe6ed
0001E6E6  E40E              in al,0xe
0001E6E8  AA                stosb
0001E6E9  E2D2              loop 0xe6bd
0001E6EB  EB0A              jmp short 0xe6f7
0001E6ED  EC                in al,dx
0001E6EE  84C3              test bl,al
0001E6F0  74C7              jz 0xe6b9
0001E6F2  E40E              in al,0xe
0001E6F4  AA                stosb
0001E6F5  E2C6              loop 0xe6bd
0001E6F7  EC                in al,dx
0001E6F8  FB                sti
0001E6F9  24F8              and al,0xf8
0001E6FB  7402              jz 0xe6ff
0001E6FD  F9                stc
0001E6FE  C3                ret
0001E6FF  BEE395            mov si,0x95e3
0001E702  E81C00            call 0xe721
0001E705  7301              jnc 0xe708
0001E707  C3                ret
0001E708  BEEA95            mov si,0x95ea
0001E70B  E81300            call 0xe721
0001E70E  7301              jnc 0xe711
0001E710  C3                ret
0001E711  BEF395            mov si,0x95f3
0001E714  E80A00            call 0xe721
0001E717  7301              jnc 0xe71a
0001E719  C3                ret
0001E71A  BEF995            mov si,0x95f9
0001E71D  E80100            call 0xe721
0001E720  C3                ret
0001E721  BB4D8A            mov bx,0x8a4d
0001E724  8BFB              mov di,bx
0001E726  8B0C              mov cx,[si]
0001E728  56                push si
0001E729  83C602            add si,byte +0x2
0001E72C  F3A6              repe cmpsb
0001E72E  5E                pop si
0001E72F  7409              jz 0xe73a
0001E731  43                inc bx
0001E732  81FB4D8E          cmp bx,0x8e4d
0001E736  7404              jz 0xe73c
0001E738  EBEA              jmp short 0xe724
0001E73A  F8                clc
0001E73B  C3                ret
0001E73C  F9                stc
0001E73D  C3                ret
0001E73E  050087            add ax,0x8700
0001E741  004300            add [bp+di+0x0],al
0001E744  0D0700            or ax,0x7
0001E747  55                push bp
0001E748  F755F6            not word [di-0xa]
0001E74B  55                push bp
0001E74C  F5                cmc
0001E74D  55                push bp
0001E74E  0400              add al,0x0
0001E750  2DEEFF            sub ax,0xffee
0001E753  4E                dec si
0001E754  0300              add ax,[bx+si]
0001E756  BC57FF            mov sp,0xff57
0001E759  FE06F77B          inc byte [0x7bf7]
0001E75D  A1048E            mov ax,[0x8e04]
0001E760  051000            add ax,0x10
0001E763  A3D17B            mov [0x7bd1],ax
0001E766  C706D37B3689      mov word [0x7bd3],0x8936
0001E76C  BE2B8C            mov si,0x8c2b
0001E76F  C706D78D0800      mov word [0x8dd7],0x8
0001E775  F604FF            test byte [si],0xff
0001E778  7424              jz 0xe79e
0001E77A  FE0C              dec byte [si]
0001E77C  740A              jz 0xe788
0001E77E  803C05            cmp byte [si],0x5
0001E781  7205              jc 0xe788
0001E783  803C1E            cmp byte [si],0x1e
0001E786  7516              jnz 0xe79e
0001E788  8B5405            mov dx,[si+0x5]
0001E78B  56                push si
0001E78C  E880EC            call 0xd40f
0001E78F  5E                pop si
0001E790  56                push si
0001E791  8B4401            mov ax,[si+0x1]
0001E794  8B5C03            mov bx,[si+0x3]
0001E797  8D7407            lea si,[si+0x7]
0001E79A  E8B5EC            call 0xd452
0001E79D  5E                pop si
0001E79E  83C60A            add si,byte +0xa
0001E7A1  FF0ED78D          dec word [0x8dd7]
0001E7A5  75CE              jnz 0xe775
0001E7A7  C706D17B4001      mov word [0x7bd1],0x140
0001E7AD  C706D37B3089      mov word [0x7bd3],0x8930
0001E7B3  FE0EF77B          dec byte [0x7bf7]
0001E7B7  C3                ret
0001E7B8  BB3B8B            mov bx,0x8b3b
0001E7BB  EB03              jmp short 0xe7c0
0001E7BD  BB4D8A            mov bx,0x8a4d
0001E7C0  C706D78D0E00      mov word [0x8dd7],0xe
0001E7C6  803FFF            cmp byte [bx],0xff
0001E7C9  745D              jz 0xe828
0001E7CB  A0D48D            mov al,[0x8dd4]
0001E7CE  22470A            and al,[bx+0xa]
0001E7D1  7455              jz 0xe828
0001E7D3  32F6              xor dh,dh
0001E7D5  8A5704            mov dl,[bx+0x4]
0001E7D8  8BFA              mov di,dx
0001E7DA  D1E7              shl di,1
0001E7DC  D1E7              shl di,1
0001E7DE  D1E7              shl di,1
0001E7E0  8A4705            mov al,[bx+0x5]
0001E7E3  F626018E          mul byte [0x8e01]
0001E7E7  D1E0              shl ax,1
0001E7E9  D1E0              shl ax,1
0001E7EB  D1E0              shl ax,1
0001E7ED  D1E0              shl ax,1
0001E7EF  D1E0              shl ax,1
0001E7F1  03F8              add di,ax
0001E7F3  8A5708            mov dl,[bx+0x8]
0001E7F6  8BF2              mov si,dx
0001E7F8  D1E6              shl si,1
0001E7FA  8BB4303A          mov si,[si+0x3a30]
0001E7FE  8A5707            mov dl,[bx+0x7]
0001E801  D1E2              shl dx,1
0001E803  D1E2              shl dx,1
0001E805  D1E2              shl dx,1
0001E807  D1E2              shl dx,1
0001E809  D1E2              shl dx,1
0001E80B  D1E2              shl dx,1
0001E80D  8BC2              mov ax,dx
0001E80F  D1E2              shl dx,1
0001E811  03F0              add si,ax
0001E813  03F2              add si,dx
0001E815  03770F            add si,[bx+0xf]
0001E818  53                push bx
0001E819  807F0809          cmp byte [bx+0x8],0x9
0001E81D  BB1200            mov bx,0x12
0001E820  7402              jz 0xe824
0001E822  33DB              xor bx,bx
0001E824  E86E05            call 0xed95
0001E827  5B                pop bx
0001E828  83C311            add bx,byte +0x11
0001E82B  FF0ED78D          dec word [0x8dd7]
0001E82F  7595              jnz 0xe7c6
0001E831  C3                ret
0001E832  E8F3ED            call 0xd628
0001E835  A1057C            mov ax,[0x7c05]
0001E838  3C53              cmp al,0x53
0001E83A  7404              jz 0xe840
0001E83C  3C73              cmp al,0x73
0001E83E  7505              jnz 0xe845
0001E840  8036B88D01        xor byte [0x8db8],0x1
0001E845  3C11              cmp al,0x11
0001E847  7503              jnz 0xe84c
0001E849  E902F8            jmp 0xe04e
0001E84C  803EDD8D16        cmp byte [0x8ddd],0x16
0001E851  7642              jna 0xe895
0001E853  80EC3B            sub ah,0x3b
0001E856  7901              jns 0xe859
0001E858  C3                ret
0001E859  3A26DA8D          cmp ah,[0x8dda]
0001E85D  7201              jc 0xe860
0001E85F  C3                ret
0001E860  C606798901        mov byte [0x8979],0x1
0001E865  C70659890000      mov word [0x8959],0x0
0001E86B  C606AE8900        mov byte [0x89ae],0x0
0001E870  C606D98D00        mov byte [0x8dd9],0x0
0001E875  C606DD8D01        mov byte [0x8ddd],0x1
0001E87A  0AE4              or ah,ah
0001E87C  7504              jnz 0xe882
0001E87E  FE0E7989          dec byte [0x8979]
0001E882  80FC02            cmp ah,0x2
0001E885  7605              jna 0xe88c
0001E887  C606AE8902        mov byte [0x89ae],0x2
0001E88C  7204              jc 0xe892
0001E88E  FE06D98D          inc byte [0x8dd9]
0001E892  E9BCF7            jmp 0xe051
0001E895  3C70              cmp al,0x70
0001E897  7405              jz 0xe89e
0001E899  3C50              cmp al,0x50
0001E89B  7401              jz 0xe89e
0001E89D  C3                ret
0001E89E  BA0307            mov dx,0x703
0001E8A1  E86BEB            call 0xd40f
0001E8A4  A1C18D            mov ax,[0x8dc1]
0001E8A7  8B1EC38D          mov bx,[0x8dc3]
0001E8AB  BE858C            mov si,0x8c85
0001E8AE  E8A1EB            call 0xd452
0001E8B1  E874ED            call 0xd628
0001E8B4  803E057C20        cmp byte [0x7c05],0x20
0001E8B9  75F6              jnz 0xe8b1
0001E8BB  A1C18D            mov ax,[0x8dc1]
0001E8BE  8B1EC38D          mov bx,[0x8dc3]
0001E8C2  BE998C            mov si,0x8c99
0001E8C5  E88AEB            call 0xd452
0001E8C8  C3                ret
0001E8C9  F606D58DFF        test byte [0x8dd5],0xff
0001E8CE  7404              jz 0xe8d4
0001E8D0  FE0ED58D          dec byte [0x8dd5]
0001E8D4  D006D48D          rol byte [0x8dd4],1
0001E8D8  FF06CF8D          inc word [0x8dcf]
0001E8DC  7506              jnz 0xe8e4
0001E8DE  812ECF8D0001      sub word [0x8dcf],0x100
0001E8E4  803EDD8D16        cmp byte [0x8ddd],0x16
0001E8E9  773F              ja 0xe92a
0001E8EB  B00F              mov al,0xf
0001E8ED  813ECF8D4501      cmp word [0x8dcf],0x145
0001E8F3  770C              ja 0xe901
0001E8F5  B007              mov al,0x7
0001E8F7  813ECF8D9600      cmp word [0x8dcf],0x96
0001E8FD  7202              jc 0xe901
0001E8FF  B003              mov al,0x3
0001E901  8406CF8D          test [0x8dcf],al
0001E905  7503              jnz 0xe90a
0001E907  E846FA            call 0xe350
0001E90A  B84501            mov ax,0x145
0001E90D  803EDE8D00        cmp byte [0x8dde],0x0
0001E912  7703              ja 0xe917
0001E914  B85802            mov ax,0x258
0001E917  3906CF8D          cmp [0x8dcf],ax
0001E91B  750D              jnz 0xe92a
0001E91D  A1C18D            mov ax,[0x8dc1]
0001E920  8B1EC38D          mov bx,[0x8dc3]
0001E924  BEDF8C            mov si,0x8cdf
0001E927  E828EB            call 0xd452
0001E92A  C3                ret
0001E92B  8BFB              mov di,bx
0001E92D  81E7F8FF          and di,0xfff8
0001E931  D1EF              shr di,1
0001E933  8AC8              mov cl,al
0001E935  80E103            and cl,0x3
0001E938  32ED              xor ch,ch
0001E93A  03F9              add di,cx
0001E93C  24FC              and al,0xfc
0001E93E  B450              mov ah,0x50
0001E940  F6E4              mul ah
0001E942  03F8              add di,ax
0001E944  8E063289          mov es,[0x8932]
0001E948  8E1E3489          mov ds,[0x8934]
0001E94C  C3                ret
0001E94D  E8DBFF            call 0xe92b
0001E950  8BCB              mov cx,bx
0001E952  81E10700          and cx,0x7
0001E956  740C              jz 0xe964
0001E958  B0FF              mov al,0xff
0001E95A  D2E8              shr al,cl
0001E95C  24CC              and al,0xcc
0001E95E  8805              mov [di],al
0001E960  AA                stosb
0001E961  83C703            add di,byte +0x3
0001E964  8BCA              mov cx,dx
0001E966  83C307            add bx,byte +0x7
0001E969  81E3F8FF          and bx,0xfff8
0001E96D  2BCB              sub cx,bx
0001E96F  41                inc cx
0001E970  D1E9              shr cx,1
0001E972  D1E9              shr cx,1
0001E974  D1E9              shr cx,1
0001E976  B0CC              mov al,0xcc
0001E978  8805              mov [di],al
0001E97A  AA                stosb
0001E97B  83C703            add di,byte +0x3
0001E97E  E2F8              loop 0xe978
0001E980  8BCA              mov cx,dx
0001E982  81E10700          and cx,0x7
0001E986  740C              jz 0xe994
0001E988  41                inc cx
0001E989  B0FF              mov al,0xff
0001E98B  D2E8              shr al,cl
0001E98D  F6D0              not al
0001E98F  24CC              and al,0xcc
0001E991  8805              mov [di],al
0001E993  AA                stosb
0001E994  8CC8              mov ax,cs
0001E996  8ED8              mov ds,ax
0001E998  8EC0              mov es,ax
0001E99A  C3                ret
0001E99B  50                push ax
0001E99C  E88CFF            call 0xe92b
0001E99F  B8CC33            mov ax,0x33cc
0001E9A2  B5C0              mov ch,0xc0
0001E9A4  8ACB              mov cl,bl
0001E9A6  80E107            and cl,0x7
0001E9A9  D2CD              ror ch,cl
0001E9AB  22C5              and al,ch
0001E9AD  22E5              and ah,ch
0001E9AF  5B                pop bx
0001E9B0  2AD3              sub dl,bl
0001E9B2  32F6              xor dh,dh
0001E9B4  42                inc dx
0001E9B5  8BCA              mov cx,dx
0001E9B7  0805              or [di],al
0001E9B9  260805            or [es:di],al
0001E9BC  47                inc di
0001E9BD  86C4              xchg ah,al
0001E9BF  F7C70300          test di,0x3
0001E9C3  7404              jz 0xe9c9
0001E9C5  E2F0              loop 0xe9b7
0001E9C7  EB06              jmp short 0xe9cf
0001E9C9  81C73C01          add di,0x13c
0001E9CD  E2E8              loop 0xe9b7
0001E9CF  8CC8              mov ax,cs
0001E9D1  8ED8              mov ds,ax
0001E9D3  8EC0              mov es,ax
0001E9D5  C3                ret
0001E9D6  F7C30300          test bx,0x3
0001E9DA  7407              jz 0xe9e3
0001E9DC  83C304            add bx,byte +0x4
0001E9DF  81E3FCFF          and bx,0xfffc
0001E9E3  8BCB              mov cx,bx
0001E9E5  83C302            add bx,byte +0x2
0001E9E8  50                push ax
0001E9E9  24FE              and al,0xfe
0001E9EB  8BD0              mov dx,ax
0001E9ED  D1E2              shl dx,1
0001E9EF  B050              mov al,0x50
0001E9F1  F6E1              mul cl
0001E9F3  03D0              add dx,ax
0001E9F5  83C218            add dx,byte +0x18
0001E9F8  58                pop ax
0001E9F9  C3                ret
0001E9FA  8B36FC8D          mov si,[0x8dfc]
0001E9FE  A1048E            mov ax,[0x8e04]
0001EA01  051000            add ax,0x10
0001EA04  A3D17B            mov [0x7bd1],ax
0001EA07  C706D37B3689      mov word [0x7bd3],0x8936
0001EA0D  E842EA            call 0xd452
0001EA10  C706D17B4001      mov word [0x7bd1],0x140
0001EA16  C706D37B3089      mov word [0x7bd3],0x8930
0001EA1C  56                push si
0001EA1D  E8D0EB            call 0xd5f0
0001EA20  8B36C58D          mov si,[0x8dc5]
0001EA24  803CFF            cmp byte [si],0xff
0001EA27  740C              jz 0xea35
0001EA29  AD                lodsw
0001EA2A  8BD8              mov bx,ax
0001EA2C  AD                lodsw
0001EA2D  8BD0              mov dx,ax
0001EA2F  AC                lodsb
0001EA30  E81AFF            call 0xe94d
0001EA33  EBEF              jmp short 0xea24
0001EA35  46                inc si
0001EA36  803CFF            cmp byte [si],0xff
0001EA39  7410              jz 0xea4b
0001EA3B  AC                lodsb
0001EA3C  8AC8              mov cl,al
0001EA3E  AC                lodsb
0001EA3F  8AD0              mov dl,al
0001EA41  AD                lodsw
0001EA42  8BD8              mov bx,ax
0001EA44  8AC1              mov al,cl
0001EA46  E852FF            call 0xe99b
0001EA49  EBEB              jmp short 0xea36
0001EA4B  BA0603            mov dx,0x306
0001EA4E  E8BEE9            call 0xd40f
0001EA51  A1B98D            mov ax,[0x8db9]
0001EA54  8ADC              mov bl,ah
0001EA56  0AE0              or ah,al
0001EA58  7424              jz 0xea7e
0001EA5A  32E4              xor ah,ah
0001EA5C  32FF              xor bh,bh
0001EA5E  BE7B8C            mov si,0x8c7b
0001EA61  E8EEE9            call 0xd452
0001EA64  BEB58C            mov si,0x8cb5
0001EA67  803E7489FF        cmp byte [0x8974],0xff
0001EA6C  7403              jz 0xea71
0001EA6E  BEC48C            mov si,0x8cc4
0001EA71  E8DEE9            call 0xd452
0001EA74  E85FFF            call 0xe9d6
0001EA77  89167D89          mov [0x897d],dx
0001EA7B  E8D4E9            call 0xd452
0001EA7E  BA0604            mov dx,0x406
0001EA81  E88BE9            call 0xd40f
0001EA84  A1BB8D            mov ax,[0x8dbb]
0001EA87  8ADC              mov bl,ah
0001EA89  0AE0              or ah,al
0001EA8B  7424              jz 0xeab1
0001EA8D  32E4              xor ah,ah
0001EA8F  32FF              xor bh,bh
0001EA91  BE7B8C            mov si,0x8c7b
0001EA94  E8BBE9            call 0xd452
0001EA97  BEB58C            mov si,0x8cb5
0001EA9A  803EA989FF        cmp byte [0x89a9],0xff
0001EA9F  7403              jz 0xeaa4
0001EAA1  BEC48C            mov si,0x8cc4
0001EAA4  E8ABE9            call 0xd452
0001EAA7  E82CFF            call 0xe9d6
0001EAAA  8916B289          mov [0x89b2],dx
0001EAAE  E8A1E9            call 0xd452
0001EAB1  FE0E5789          dec byte [0x8957]
0001EAB5  FF0E5189          dec word [0x8951]
0001EAB9  FE0E8C89          dec byte [0x898c]
0001EABD  FF0E8689          dec word [0x8986]
0001EAC1  FE067689          inc byte [0x8976]
0001EAC5  F606D98DFF        test byte [0x8dd9],0xff
0001EACA  7404              jz 0xead0
0001EACC  FE06AB89          inc byte [0x89ab]
0001EAD0  E89213            call 0xfe65
0001EAD3  BA0306            mov dx,0x603
0001EAD6  E836E9            call 0xd40f
0001EAD9  A1BD8D            mov ax,[0x8dbd]
0001EADC  8ADC              mov bl,ah
0001EADE  32E4              xor ah,ah
0001EAE0  32FF              xor bh,bh
0001EAE2  5E                pop si
0001EAE3  E86CE9            call 0xd452
0001EAE6  803EDD8D16        cmp byte [0x8ddd],0x16
0001EAEB  7732              ja 0xeb1f
0001EAED  050200            add ax,0x2
0001EAF0  53                push bx
0001EAF1  8A1EDD8D          mov bl,[0x8ddd]
0001EAF5  32FF              xor bh,bh
0001EAF7  8A977960          mov dl,[bx+0x6079]
0001EAFB  D0EA              shr dl,1
0001EAFD  D0EA              shr dl,1
0001EAFF  FEC2              inc dl
0001EB01  80CA30            or dl,0x30
0001EB04  8816AE8C          mov [0x8cae],dl
0001EB08  8A977960          mov dl,[bx+0x6079]
0001EB0C  80E203            and dl,0x3
0001EB0F  FEC2              inc dl
0001EB11  80CA40            or dl,0x40
0001EB14  8816AF8C          mov [0x8caf],dl
0001EB18  5B                pop bx
0001EB19  BEAD8C            mov si,0x8cad
0001EB1C  E833E9            call 0xd452
0001EB1F  E82F00            call 0xeb51
0001EB22  803EDD8D16        cmp byte [0x8ddd],0x16
0001EB27  7701              ja 0xeb2a
0001EB29  C3                ret
0001EB2A  B86600            mov ax,0x66
0001EB2D  BB5600            mov bx,0x56
0001EB30  8A0EDA8D          mov cl,[0x8dda]
0001EB34  32ED              xor ch,ch
0001EB36  80F904            cmp cl,0x4
0001EB39  740B              jz 0xeb46
0001EB3B  BB5C00            mov bx,0x5c
0001EB3E  80F903            cmp cl,0x3
0001EB41  7403              jz 0xeb46
0001EB43  BB6800            mov bx,0x68
0001EB46  BE077C            mov si,0x7c07
0001EB49  51                push cx
0001EB4A  E805E9            call 0xd452
0001EB4D  59                pop cx
0001EB4E  E2F9              loop 0xeb49
0001EB50  C3                ret
0001EB51  A1BF8D            mov ax,[0x8dbf]
0001EB54  8ADC              mov bl,ah
0001EB56  32E4              xor ah,ah
0001EB58  32FF              xor bh,bh
0001EB5A  BEB889            mov si,0x89b8
0001EB5D  E8F2E8            call 0xd452
0001EB60  83C304            add bx,byte +0x4
0001EB63  E9ECE8            jmp 0xd452
0001EB66  F604FF            test byte [si],0xff
0001EB69  7901              jns 0xeb6c
0001EB6B  C3                ret
0001EB6C  8B4403            mov ax,[si+0x3]
0001EB6F  BB438A            mov bx,0x8a43
0001EB72  8B16BF8D          mov dx,[0x8dbf]
0001EB76  81C20010          add dx,0x1000
0001EB7A  BFD389            mov di,0x89d3
0001EB7D  B90500            mov cx,0x5
0001EB80  3B07              cmp ax,[bx]
0001EB82  770C              ja 0xeb90
0001EB84  83C302            add bx,byte +0x2
0001EB87  83C717            add di,byte +0x17
0001EB8A  80C60C            add dh,0xc
0001EB8D  E2F1              loop 0xeb80
0001EB8F  C3                ret
0001EB90  8916C78D          mov [0x8dc7],dx
0001EB94  56                push si
0001EB95  57                push di
0001EB96  49                dec cx
0001EB97  BD4B8A            mov bp,0x8a4b
0001EB9A  7422              jz 0xebbe
0001EB9C  BF2F8A            mov di,0x8a2f
0001EB9F  BE188A            mov si,0x8a18
0001EBA2  51                push cx
0001EBA3  56                push si
0001EBA4  57                push di
0001EBA5  B91300            mov cx,0x13
0001EBA8  F3A4              rep movsb
0001EBAA  5F                pop di
0001EBAB  5E                pop si
0001EBAC  59                pop cx
0001EBAD  83EF17            sub di,byte +0x17
0001EBB0  83EE17            sub si,byte +0x17
0001EBB3  8B56FE            mov dx,[bp-0x2]
0001EBB6  895600            mov [bp+0x0],dx
0001EBB9  83ED02            sub bp,byte +0x2
0001EBBC  E2E4              loop 0xeba2
0001EBBE  894600            mov [bp+0x0],ax
0001EBC1  5F                pop di
0001EBC2  5E                pop si
0001EBC3  57                push di
0001EBC4  B91300            mov cx,0x13
0001EBC7  B020              mov al,0x20
0001EBC9  F3AA              rep stosb
0001EBCB  5F                pop di
0001EBCC  4F                dec di
0001EBCD  B90500            mov cx,0x5
0001EBD0  56                push si
0001EBD1  8D7404            lea si,[si+0x4]
0001EBD4  47                inc di
0001EBD5  46                inc si
0001EBD6  803C30            cmp byte [si],0x30
0001EBD9  E1F9              loope 0xebd4
0001EBDB  41                inc cx
0001EBDC  F3A4              rep movsb
0001EBDE  47                inc di
0001EBDF  893EC98D          mov [0x8dc9],di
0001EBE3  C706CB8D0000      mov word [0x8dcb],0x0
0001EBE9  E865FF            call 0xeb51
0001EBEC  5E                pop si
0001EBED  BA0406            mov dx,0x604
0001EBF0  81FE4E89          cmp si,0x894e
0001EBF4  BEF68C            mov si,0x8cf6
0001EBF7  7403              jz 0xebfc
0001EBF9  BE0A8D            mov si,0x8d0a
0001EBFC  81EA0101          sub dx,0x101
0001EC00  81E20707          and dx,0x707
0001EC04  52                push dx
0001EC05  56                push si
0001EC06  E806E8            call 0xd40f
0001EC09  A1C18D            mov ax,[0x8dc1]
0001EC0C  8B1EC38D          mov bx,[0x8dc3]
0001EC10  E83FE8            call 0xd452
0001EC13  E812EA            call 0xd628
0001EC16  A1057C            mov ax,[0x7c05]
0001EC19  0AE4              or ah,ah
0001EC1B  7428              jz 0xec45
0001EC1D  3C20              cmp al,0x20
0001EC1F  7224              jc 0xec45
0001EC21  3C7A              cmp al,0x7a
0001EC23  7720              ja 0xec45
0001EC25  3C61              cmp al,0x61
0001EC27  7202              jc 0xec2b
0001EC29  24DF              and al,0xdf
0001EC2B  3C5A              cmp al,0x5a
0001EC2D  7716              ja 0xec45
0001EC2F  8B1ECB8D          mov bx,[0x8dcb]
0001EC33  8B3EC98D          mov di,[0x8dc9]
0001EC37  8801              mov [bx+di],al
0001EC39  43                inc bx
0001EC3A  83FB0D            cmp bx,byte +0xd
0001EC3D  7439              jz 0xec78
0001EC3F  891ECB8D          mov [0x8dcb],bx
0001EC43  EB33              jmp short 0xec78
0001EC45  3C08              cmp al,0x8
0001EC47  751B              jnz 0xec64
0001EC49  FF0ECB8D          dec word [0x8dcb]
0001EC4D  7904              jns 0xec53
0001EC4F  FF06CB8D          inc word [0x8dcb]
0001EC53  8B1ECB8D          mov bx,[0x8dcb]
0001EC57  8B3EC98D          mov di,[0x8dc9]
0001EC5B  C60120            mov byte [bx+di],0x20
0001EC5E  C6450C20          mov byte [di+0xc],0x20
0001EC62  EB14              jmp short 0xec78
0001EC64  3C0D              cmp al,0xd
0001EC66  7506              jnz 0xec6e
0001EC68  83C404            add sp,byte +0x4
0001EC6B  EB2F              jmp short 0xec9c
0001EC6D  90                nop
0001EC6E  3D0053            cmp ax,0x5300
0001EC71  74D6              jz 0xec49
0001EC73  3D004B            cmp ax,0x4b00
0001EC76  74D1              jz 0xec49
0001EC78  A1C78D            mov ax,[0x8dc7]
0001EC7B  8ADC              mov bl,ah
0001EC7D  32E4              xor ah,ah
0001EC7F  32FF              xor bh,bh
0001EC81  8B36C98D          mov si,[0x8dc9]
0001EC85  83EE06            sub si,byte +0x6
0001EC88  FF7413            push word [si+0x13]
0001EC8B  C6441300          mov byte [si+0x13],0x0
0001EC8F  56                push si
0001EC90  E8BFE7            call 0xd452
0001EC93  5E                pop si
0001EC94  8F4413            pop word [si+0x13]
0001EC97  5E                pop si
0001EC98  5A                pop dx
0001EC99  E960FF            jmp 0xebfc
0001EC9C  33C0              xor ax,ax
0001EC9E  B90100            mov cx,0x1
0001ECA1  BA0700            mov dx,0x7
0001ECA4  BBD089            mov bx,0x89d0
0001ECA7  E9506C            jmp 0x58fa
0001ECAA  A0DB8D            mov al,[0x8ddb]
0001ECAD  B414              mov ah,0x14
0001ECAF  F6E4              mul ah
0001ECB1  8BF0              mov si,ax
0001ECB3  81C62A61          add si,0x612a
0001ECB7  AC                lodsb
0001ECB8  32E4              xor ah,ah
0001ECBA  A3B28D            mov [0x8db2],ax
0001ECBD  AC                lodsb
0001ECBE  A3B08D            mov [0x8db0],ax
0001ECC1  AD                lodsw
0001ECC2  A3AC8D            mov [0x8dac],ax
0001ECC5  AD                lodsw
0001ECC6  A3AE8D            mov [0x8dae],ax
0001ECC9  AD                lodsw
0001ECCA  A3B98D            mov [0x8db9],ax
0001ECCD  0416              add al,0x16
0001ECCF  A24F89            mov [0x894f],al
0001ECD2  88265089          mov [0x8950],ah
0001ECD6  AD                lodsw
0001ECD7  A3BB8D            mov [0x8dbb],ax
0001ECDA  0416              add al,0x16
0001ECDC  A28489            mov [0x8984],al
0001ECDF  88268589          mov [0x8985],ah
0001ECE3  AD                lodsw
0001ECE4  A3BD8D            mov [0x8dbd],ax
0001ECE7  AD                lodsw
0001ECE8  A3BF8D            mov [0x8dbf],ax
0001ECEB  AD                lodsw
0001ECEC  A38E89            mov [0x898e],ax
0001ECEF  AD                lodsw
0001ECF0  8ADC              mov bl,ah
0001ECF2  32FF              xor bh,bh
0001ECF4  32E4              xor ah,ah
0001ECF6  A3C18D            mov [0x8dc1],ax
0001ECF9  891EC38D          mov [0x8dc3],bx
0001ECFD  AD                lodsw
0001ECFE  A3C58D            mov [0x8dc5],ax
0001ED01  A1B28D            mov ax,[0x8db2]
0001ED04  D1E0              shl ax,1
0001ED06  8BD0              mov dx,ax
0001ED08  2D4001            sub ax,0x140
0001ED0B  F7D8              neg ax
0001ED0D  A3B48D            mov [0x8db4],ax
0001ED10  32E4              xor ah,ah
0001ED12  A0018E            mov al,[0x8e01]
0001ED15  D1E0              shl ax,1
0001ED17  D1E0              shl ax,1
0001ED19  D1E0              shl ax,1
0001ED1B  D1E0              shl ax,1
0001ED1D  2BC2              sub ax,dx
0001ED1F  A3B68D            mov [0x8db6],ax
0001ED22  32E4              xor ah,ah
0001ED24  A0018E            mov al,[0x8e01]
0001ED27  D1E0              shl ax,1
0001ED29  8B1EB28D          mov bx,[0x8db2]
0001ED2D  D1EB              shr bx,1
0001ED2F  D1EB              shr bx,1
0001ED31  2BC3              sub ax,bx
0001ED33  A2AA8D            mov [0x8daa],al
0001ED36  A0008E            mov al,[0x8e00]
0001ED39  D1E0              shl ax,1
0001ED3B  8B1EB08D          mov bx,[0x8db0]
0001ED3F  D1EB              shr bx,1
0001ED41  2BC3              sub ax,bx
0001ED43  A2AB8D            mov [0x8dab],al
0001ED46  C3                ret
0001ED47  BBD089            mov bx,0x89d0
0001ED4A  33C0              xor ax,ax
0001ED4C  B90100            mov cx,0x1
0001ED4F  BA0700            mov dx,0x7
0001ED52  E9BC6A            jmp 0x5811
0001ED55  BE4E89            mov si,0x894e
0001ED58  33DB              xor bx,bx
0001ED5A  F6064E89FF        test byte [0x894e],0xff
0001ED5F  7803              js 0xed64
0001ED61  E80E00            call 0xed72
0001ED64  BE8389            mov si,0x8983
0001ED67  F6068389FF        test byte [0x8983],0xff
0001ED6C  7901              jns 0xed6f
0001ED6E  C3                ret
0001ED6F  BB0600            mov bx,0x6
0001ED72  803C02            cmp byte [si],0x2
0001ED75  7203              jc 0xed7a
0001ED77  BB0C00            mov bx,0xc
0001ED7A  803C01            cmp byte [si],0x1
0001ED7D  7502              jnz 0xed81
0001ED7F  FE04              inc byte [si]
0001ED81  8B7C11            mov di,[si+0x11]
0001ED84  8B440F            mov ax,[si+0xf]
0001ED87  894411            mov [si+0x11],ax
0001ED8A  8B5415            mov dx,[si+0x15]
0001ED8D  8B4413            mov ax,[si+0x13]
0001ED90  894415            mov [si+0x15],ax
0001ED93  8BF2              mov si,dx
0001ED95  8B16048E          mov dx,[0x8e04]
0001ED99  B90200            mov cx,0x2
0001ED9C  03D1              add dx,cx
0001ED9E  8E873689          mov es,[bx-0x76ca]
0001EDA2  8BEF              mov bp,di
0001EDA4  AD                lodsw
0001EDA5  263105            xor [es:di],ax
0001EDA8  03F9              add di,cx
0001EDAA  AD                lodsw
0001EDAB  263105            xor [es:di],ax
0001EDAE  03F9              add di,cx
0001EDB0  AD                lodsw
0001EDB1  263105            xor [es:di],ax
0001EDB4  03F9              add di,cx
0001EDB6  AD                lodsw
0001EDB7  263105            xor [es:di],ax
0001EDBA  03F9              add di,cx
0001EDBC  AD                lodsw
0001EDBD  263105            xor [es:di],ax
0001EDC0  03F9              add di,cx
0001EDC2  AD                lodsw
0001EDC3  263105            xor [es:di],ax
0001EDC6  03F9              add di,cx
0001EDC8  AD                lodsw
0001EDC9  263105            xor [es:di],ax
0001EDCC  03F9              add di,cx
0001EDCE  AD                lodsw
0001EDCF  263105            xor [es:di],ax
0001EDD2  03FA              add di,dx
0001EDD4  AD                lodsw
0001EDD5  263105            xor [es:di],ax
0001EDD8  03F9              add di,cx
0001EDDA  AD                lodsw
0001EDDB  263105            xor [es:di],ax
0001EDDE  03F9              add di,cx
0001EDE0  AD                lodsw
0001EDE1  263105            xor [es:di],ax
0001EDE4  03F9              add di,cx
0001EDE6  AD                lodsw
0001EDE7  263105            xor [es:di],ax
0001EDEA  03F9              add di,cx
0001EDEC  AD                lodsw
0001EDED  263105            xor [es:di],ax
0001EDF0  03F9              add di,cx
0001EDF2  AD                lodsw
0001EDF3  263105            xor [es:di],ax
0001EDF6  03F9              add di,cx
0001EDF8  AD                lodsw
0001EDF9  263105            xor [es:di],ax
0001EDFC  03F9              add di,cx
0001EDFE  AD                lodsw
0001EDFF  263105            xor [es:di],ax
0001EE02  03FA              add di,dx
0001EE04  AD                lodsw
0001EE05  263105            xor [es:di],ax
0001EE08  03F9              add di,cx
0001EE0A  AD                lodsw
0001EE0B  263105            xor [es:di],ax
0001EE0E  03F9              add di,cx
0001EE10  AD                lodsw
0001EE11  263105            xor [es:di],ax
0001EE14  03F9              add di,cx
0001EE16  AD                lodsw
0001EE17  263105            xor [es:di],ax
0001EE1A  03F9              add di,cx
0001EE1C  AD                lodsw
0001EE1D  263105            xor [es:di],ax
0001EE20  03F9              add di,cx
0001EE22  AD                lodsw
0001EE23  263105            xor [es:di],ax
0001EE26  03F9              add di,cx
0001EE28  AD                lodsw
0001EE29  263105            xor [es:di],ax
0001EE2C  03F9              add di,cx
0001EE2E  AD                lodsw
0001EE2F  263105            xor [es:di],ax
0001EE32  03FA              add di,dx
0001EE34  AD                lodsw
0001EE35  263105            xor [es:di],ax
0001EE38  03F9              add di,cx
0001EE3A  AD                lodsw
0001EE3B  263105            xor [es:di],ax
0001EE3E  03F9              add di,cx
0001EE40  AD                lodsw
0001EE41  263105            xor [es:di],ax
0001EE44  03F9              add di,cx
0001EE46  AD                lodsw
0001EE47  263105            xor [es:di],ax
0001EE4A  03F9              add di,cx
0001EE4C  AD                lodsw
0001EE4D  263105            xor [es:di],ax
0001EE50  03F9              add di,cx
0001EE52  AD                lodsw
0001EE53  263105            xor [es:di],ax
0001EE56  03F9              add di,cx
0001EE58  AD                lodsw
0001EE59  263105            xor [es:di],ax
0001EE5C  03F9              add di,cx
0001EE5E  AD                lodsw
0001EE5F  263105            xor [es:di],ax
0001EE62  8BFD              mov di,bp
0001EE64  8E873889          mov es,[bx-0x76c8]
0001EE68  AD                lodsw
0001EE69  263105            xor [es:di],ax
0001EE6C  03F9              add di,cx
0001EE6E  AD                lodsw
0001EE6F  263105            xor [es:di],ax
0001EE72  03F9              add di,cx
0001EE74  AD                lodsw
0001EE75  263105            xor [es:di],ax
0001EE78  03F9              add di,cx
0001EE7A  AD                lodsw
0001EE7B  263105            xor [es:di],ax
0001EE7E  03F9              add di,cx
0001EE80  AD                lodsw
0001EE81  263105            xor [es:di],ax
0001EE84  03F9              add di,cx
0001EE86  AD                lodsw
0001EE87  263105            xor [es:di],ax
0001EE8A  03F9              add di,cx
0001EE8C  AD                lodsw
0001EE8D  263105            xor [es:di],ax
0001EE90  03F9              add di,cx
0001EE92  AD                lodsw
0001EE93  263105            xor [es:di],ax
0001EE96  03FA              add di,dx
0001EE98  AD                lodsw
0001EE99  263105            xor [es:di],ax
0001EE9C  03F9              add di,cx
0001EE9E  AD                lodsw
0001EE9F  263105            xor [es:di],ax
0001EEA2  03F9              add di,cx
0001EEA4  AD                lodsw
0001EEA5  263105            xor [es:di],ax
0001EEA8  03F9              add di,cx
0001EEAA  AD                lodsw
0001EEAB  263105            xor [es:di],ax
0001EEAE  03F9              add di,cx
0001EEB0  AD                lodsw
0001EEB1  263105            xor [es:di],ax
0001EEB4  03F9              add di,cx
0001EEB6  AD                lodsw
0001EEB7  263105            xor [es:di],ax
0001EEBA  03F9              add di,cx
0001EEBC  AD                lodsw
0001EEBD  263105            xor [es:di],ax
0001EEC0  03F9              add di,cx
0001EEC2  AD                lodsw
0001EEC3  263105            xor [es:di],ax
0001EEC6  03FA              add di,dx
0001EEC8  AD                lodsw
0001EEC9  263105            xor [es:di],ax
0001EECC  03F9              add di,cx
0001EECE  AD                lodsw
0001EECF  263105            xor [es:di],ax
0001EED2  03F9              add di,cx
0001EED4  AD                lodsw
0001EED5  263105            xor [es:di],ax
0001EED8  03F9              add di,cx
0001EEDA  AD                lodsw
0001EEDB  263105            xor [es:di],ax
0001EEDE  03F9              add di,cx
0001EEE0  AD                lodsw
0001EEE1  263105            xor [es:di],ax
0001EEE4  03F9              add di,cx
0001EEE6  AD                lodsw
0001EEE7  263105            xor [es:di],ax
0001EEEA  03F9              add di,cx
0001EEEC  AD                lodsw
0001EEED  263105            xor [es:di],ax
0001EEF0  03F9              add di,cx
0001EEF2  AD                lodsw
0001EEF3  263105            xor [es:di],ax
0001EEF6  03FA              add di,dx
0001EEF8  AD                lodsw
0001EEF9  263105            xor [es:di],ax
0001EEFC  03F9              add di,cx
0001EEFE  AD                lodsw
0001EEFF  263105            xor [es:di],ax
0001EF02  03F9              add di,cx
0001EF04  AD                lodsw
0001EF05  263105            xor [es:di],ax
0001EF08  03F9              add di,cx
0001EF0A  AD                lodsw
0001EF0B  263105            xor [es:di],ax
0001EF0E  03F9              add di,cx
0001EF10  AD                lodsw
0001EF11  263105            xor [es:di],ax
0001EF14  03F9              add di,cx
0001EF16  AD                lodsw
0001EF17  263105            xor [es:di],ax
0001EF1A  03F9              add di,cx
0001EF1C  AD                lodsw
0001EF1D  263105            xor [es:di],ax
0001EF20  03F9              add di,cx
0001EF22  AD                lodsw
0001EF23  263105            xor [es:di],ax
0001EF26  8BFD              mov di,bp
0001EF28  8E873A89          mov es,[bx-0x76c6]
0001EF2C  AD                lodsw
0001EF2D  263105            xor [es:di],ax
0001EF30  03F9              add di,cx
0001EF32  AD                lodsw
0001EF33  263105            xor [es:di],ax
0001EF36  03F9              add di,cx
0001EF38  AD                lodsw
0001EF39  263105            xor [es:di],ax
0001EF3C  03F9              add di,cx
0001EF3E  AD                lodsw
0001EF3F  263105            xor [es:di],ax
0001EF42  03F9              add di,cx
0001EF44  AD                lodsw
0001EF45  263105            xor [es:di],ax
0001EF48  03F9              add di,cx
0001EF4A  AD                lodsw
0001EF4B  263105            xor [es:di],ax
0001EF4E  03F9              add di,cx
0001EF50  AD                lodsw
0001EF51  263105            xor [es:di],ax
0001EF54  03F9              add di,cx
0001EF56  AD                lodsw
0001EF57  263105            xor [es:di],ax
0001EF5A  03FA              add di,dx
0001EF5C  AD                lodsw
0001EF5D  263105            xor [es:di],ax
0001EF60  03F9              add di,cx
0001EF62  AD                lodsw
0001EF63  263105            xor [es:di],ax
0001EF66  03F9              add di,cx
0001EF68  AD                lodsw
0001EF69  263105            xor [es:di],ax
0001EF6C  03F9              add di,cx
0001EF6E  AD                lodsw
0001EF6F  263105            xor [es:di],ax
0001EF72  03F9              add di,cx
0001EF74  AD                lodsw
0001EF75  263105            xor [es:di],ax
0001EF78  03F9              add di,cx
0001EF7A  AD                lodsw
0001EF7B  263105            xor [es:di],ax
0001EF7E  03F9              add di,cx
0001EF80  AD                lodsw
0001EF81  263105            xor [es:di],ax
0001EF84  03F9              add di,cx
0001EF86  AD                lodsw
0001EF87  263105            xor [es:di],ax
0001EF8A  03FA              add di,dx
0001EF8C  AD                lodsw
0001EF8D  263105            xor [es:di],ax
0001EF90  03F9              add di,cx
0001EF92  AD                lodsw
0001EF93  263105            xor [es:di],ax
0001EF96  03F9              add di,cx
0001EF98  AD                lodsw
0001EF99  263105            xor [es:di],ax
0001EF9C  03F9              add di,cx
0001EF9E  AD                lodsw
0001EF9F  263105            xor [es:di],ax
0001EFA2  03F9              add di,cx
0001EFA4  AD                lodsw
0001EFA5  263105            xor [es:di],ax
0001EFA8  03F9              add di,cx
0001EFAA  AD                lodsw
0001EFAB  263105            xor [es:di],ax
0001EFAE  03F9              add di,cx
0001EFB0  AD                lodsw
0001EFB1  263105            xor [es:di],ax
0001EFB4  03F9              add di,cx
0001EFB6  AD                lodsw
0001EFB7  263105            xor [es:di],ax
0001EFBA  03FA              add di,dx
0001EFBC  AD                lodsw
0001EFBD  263105            xor [es:di],ax
0001EFC0  03F9              add di,cx
0001EFC2  AD                lodsw
0001EFC3  263105            xor [es:di],ax
0001EFC6  03F9              add di,cx
0001EFC8  AD                lodsw
0001EFC9  263105            xor [es:di],ax
0001EFCC  03F9              add di,cx
0001EFCE  AD                lodsw
0001EFCF  263105            xor [es:di],ax
0001EFD2  03F9              add di,cx
0001EFD4  AD                lodsw
0001EFD5  263105            xor [es:di],ax
0001EFD8  03F9              add di,cx
0001EFDA  AD                lodsw
0001EFDB  263105            xor [es:di],ax
0001EFDE  03F9              add di,cx
0001EFE0  AD                lodsw
0001EFE1  263105            xor [es:di],ax
0001EFE4  03F9              add di,cx
0001EFE6  AD                lodsw
0001EFE7  263105            xor [es:di],ax
0001EFEA  8BFD              mov di,bp
0001EFEC  8CC8              mov ax,cs
0001EFEE  8EC0              mov es,ax
0001EFF0  C3                ret
0001EFF1  BE4E89            mov si,0x894e
0001EFF4  F6064E89FF        test byte [0x894e],0xff
0001EFF9  7803              js 0xeffe
0001EFFB  E80B00            call 0xf009
0001EFFE  BE8389            mov si,0x8983
0001F001  F6068389FF        test byte [0x8983],0xff
0001F006  7901              jns 0xf009
0001F008  C3                ret
0001F009  8A5C2B            mov bl,[si+0x2b]
0001F00C  32FF              xor bh,bh
0001F00E  56                push si
0001F00F  E810E6            call 0xd622
0001F012  5E                pop si
0001F013  F64432FF          test byte [si+0x32],0xff
0001F017  7413              jz 0xf02c
0001F019  FE4C32            dec byte [si+0x32]
0001F01C  C606FE7B50        mov byte [0x7bfe],0x50
0001F021  C606FF7B50        mov byte [0x7bff],0x50
0001F026  C706007C0000      mov word [0x7c00],0x0
0001F02C  8A4423            mov al,[si+0x23]
0001F02F  884424            mov [si+0x24],al
0001F032  98                cbw
0001F033  8BD8              mov bx,ax
0001F035  8B441D            mov ax,[si+0x1d]
0001F038  89441F            mov [si+0x1f],ax
0001F03B  0AC4              or al,ah
0001F03D  2401              and al,0x1
0001F03F  884425            mov [si+0x25],al
0001F042  33D2              xor dx,dx
0001F044  B402              mov ah,0x2
0001F046  32C0              xor al,al
0001F048  803EFF7B3C        cmp byte [0x7bff],0x3c
0001F04D  7703              ja 0xf052
0001F04F  B401              mov ah,0x1
0001F051  4A                dec dx
0001F052  803EFF7B64        cmp byte [0x7bff],0x64
0001F057  7205              jc 0xf05e
0001F059  B004              mov al,0x4
0001F05B  B4FF              mov ah,0xff
0001F05D  4A                dec dx
0001F05E  803EFE7B64        cmp byte [0x7bfe],0x64
0001F063  7203              jc 0xf068
0001F065  02C4              add al,ah
0001F067  4A                dec dx
0001F068  803EFE7B3C        cmp byte [0x7bfe],0x3c
0001F06D  7705              ja 0xf074
0001F06F  2AC4              sub al,ah
0001F071  2407              and al,0x7
0001F073  4A                dec dx
0001F074  0BD2              or dx,dx
0001F076  7915              jns 0xf08d
0001F078  D1E3              shl bx,1
0001F07A  D1E3              shl bx,1
0001F07C  D1E3              shl bx,1
0001F07E  81C32C8D          add bx,0x8d2c
0001F082  D7                xlatb
0001F083  884423            mov [si+0x23],al
0001F086  C6442A02          mov byte [si+0x2a],0x2
0001F08A  FE4425            inc byte [si+0x25]
0001F08D  F606007CFF        test byte [0x7c00],0xff
0001F092  7403              jz 0xf097
0001F094  FE442C            inc byte [si+0x2c]
0001F097  C3                ret
0001F098  BF4E89            mov di,0x894e
0001F09B  BE4D8A            mov si,0x8a4d
0001F09E  F6064E89FF        test byte [0x894e],0xff
0001F0A3  7803              js 0xf0a8
0001F0A5  E80E00            call 0xf0b6
0001F0A8  BF8389            mov di,0x8983
0001F0AB  BE198B            mov si,0x8b19
0001F0AE  F6068389FF        test byte [0x8983],0xff
0001F0B3  7901              jns 0xf0b6
0001F0B5  C3                ret
0001F0B6  F6452CFF          test byte [di+0x2c],0xff
0001F0BA  745A              jz 0xf116
0001F0BC  F74521FFFF        test word [di+0x21],0xffff
0001F0C1  7553              jnz 0xf116
0001F0C3  803CFF            cmp byte [si],0xff
0001F0C6  7408              jz 0xf0d0
0001F0C8  83C611            add si,byte +0x11
0001F0CB  803CFF            cmp byte [si],0xff
0001F0CE  7546              jnz 0xf116
0001F0D0  E8F3F1            call 0xe2c6
0001F0D3  8A4523            mov al,[di+0x23]
0001F0D6  884409            mov [si+0x9],al
0001F0D9  C6440603          mov byte [si+0x6],0x3
0001F0DD  8B4519            mov ax,[di+0x19]
0001F0E0  8904              mov [si],ax
0001F0E2  8B451D            mov ax,[di+0x1d]
0001F0E5  894404            mov [si+0x4],ax
0001F0E8  C6440AFF          mov byte [si+0xa],0xff
0001F0EC  B00A              mov al,0xa
0001F0EE  803D01            cmp byte [di],0x1
0001F0F1  7502              jnz 0xf0f5
0001F0F3  B003              mov al,0x3
0001F0F5  88440E            mov [si+0xe],al
0001F0F8  C6452C00          mov byte [di+0x2c],0x0
0001F0FC  B80200            mov ax,0x2
0001F0FF  E8FB60            call 0x51fd
0001F102  8A4401            mov al,[si+0x1]
0001F105  F626018E          mul byte [0x8e01]
0001F109  8A1C              mov bl,[si]
0001F10B  32FF              xor bh,bh
0001F10D  03D8              add bx,ax
0001F10F  81C3C05C          add bx,0x5cc0
0001F113  895C0B            mov [si+0xb],bx
0001F116  C3                ret
0001F117  BE4D8A            mov si,0x8a4d
0001F11A  BD4E89            mov bp,0x894e
0001F11D  C706D78D0200      mov word [0x8dd7],0x2
0001F123  E80C00            call 0xf132
0001F126  BE198B            mov si,0x8b19
0001F129  BD8389            mov bp,0x8983
0001F12C  C706D78D0200      mov word [0x8dd7],0x2
0001F132  803CFF            cmp byte [si],0xff
0001F135  7463              jz 0xf19a
0001F137  BF6F8A            mov di,0x8a6f
0001F13A  B90A00            mov cx,0xa
0001F13D  803DFF            cmp byte [di],0xff
0001F140  7453              jz 0xf195
0001F142  807D0803          cmp byte [di+0x8],0x3
0001F146  724D              jc 0xf195
0001F148  8A4404            mov al,[si+0x4]
0001F14B  2A4504            sub al,[di+0x4]
0001F14E  7902              jns 0xf152
0001F150  F6D8              neg al
0001F152  3C01              cmp al,0x1
0001F154  773F              ja 0xf195
0001F156  8A4405            mov al,[si+0x5]
0001F159  2A4505            sub al,[di+0x5]
0001F15C  7902              jns 0xf160
0001F15E  F6D8              neg al
0001F160  3C01              cmp al,0x1
0001F162  7731              ja 0xf195
0001F164  C604FF            mov byte [si],0xff
0001F167  C684F800FF        mov byte [si+0xf8],0xff
0001F16C  C6450801          mov byte [di+0x8],0x1
0001F170  C6450904          mov byte [di+0x9],0x4
0001F174  C6450E05          mov byte [di+0xe],0x5
0001F178  C6450603          mov byte [di+0x6],0x3
0001F17C  C6450AFF          mov byte [di+0xa],0xff
0001F180  C7450F0000        mov word [di+0xf],0x0
0001F185  C685F800FF        mov byte [di+0xf8],0xff
0001F18A  80462803          add byte [bp+0x28],0x3
0001F18E  33C0              xor ax,ax
0001F190  E86A60            call 0x51fd
0001F193  EB05              jmp short 0xf19a
0001F195  83C711            add di,byte +0x11
0001F198  E2A3              loop 0xf13d
0001F19A  83C611            add si,byte +0x11
0001F19D  FF0ED78D          dec word [0x8dd7]
0001F1A1  758F              jnz 0xf132
0001F1A3  C3                ret
0001F1A4  BD8389            mov bp,0x8983
0001F1A7  BF4E89            mov di,0x894e
0001F1AA  BE6F8A            mov si,0x8a6f
0001F1AD  F6064E89FF        test byte [0x894e],0xff
0001F1B2  7803              js 0xf1b7
0001F1B4  E81100            call 0xf1c8
0001F1B7  F6068389FF        test byte [0x8983],0xff
0001F1BC  7901              jns 0xf1bf
0001F1BE  C3                ret
0001F1BF  BF8389            mov di,0x8983
0001F1C2  BE4D8A            mov si,0x8a4d
0001F1C5  BD4E89            mov bp,0x894e
0001F1C8  B90C00            mov cx,0xc
0001F1CB  803CFF            cmp byte [si],0xff
0001F1CE  7422              jz 0xf1f2
0001F1D0  807C0801          cmp byte [si+0x8],0x1
0001F1D4  741C              jz 0xf1f2
0001F1D6  8A451D            mov al,[di+0x1d]
0001F1D9  2A4404            sub al,[si+0x4]
0001F1DC  7902              jns 0xf1e0
0001F1DE  F6D8              neg al
0001F1E0  3C01              cmp al,0x1
0001F1E2  770E              ja 0xf1f2
0001F1E4  8A451E            mov al,[di+0x1e]
0001F1E7  2A4405            sub al,[si+0x5]
0001F1EA  7902              jns 0xf1ee
0001F1EC  F6D8              neg al
0001F1EE  3C02              cmp al,0x2
0001F1F0  7206              jc 0xf1f8
0001F1F2  83C611            add si,byte +0x11
0001F1F5  E2D4              loop 0xf1cb
0001F1F7  C3                ret
0001F1F8  B80100            mov ax,0x1
0001F1FB  E8FF5F            call 0x51fd
0001F1FE  C6452D01          mov byte [di+0x2d],0x1
0001F202  E8C1F0            call 0xe2c6
0001F205  F605FF            test byte [di],0xff
0001F208  7405              jz 0xf20f
0001F20A  C6453214          mov byte [di+0x32],0x14
0001F20E  C3                ret
0001F20F  FE4D26            dec byte [di+0x26]
0001F212  7801              js 0xf215
0001F214  C3                ret
0001F215  C60501            mov byte [di],0x1
0001F218  8A4501            mov al,[di+0x1]
0001F21B  2C16              sub al,0x16
0001F21D  8A5D02            mov bl,[di+0x2]
0001F220  80C30C            add bl,0xc
0001F223  32E4              xor ah,ah
0001F225  32FF              xor bh,bh
0001F227  57                push di
0001F228  55                push bp
0001F229  BEB28C            mov si,0x8cb2
0001F22C  E823E2            call 0xd452
0001F22F  5D                pop bp
0001F230  5F                pop di
0001F231  F6452EFF          test byte [di+0x2e],0xff
0001F235  7501              jnz 0xf238
0001F237  C3                ret
0001F238  FE4D2E            dec byte [di+0x2e]
0001F23B  FE462E            inc byte [bp+0x2e]
0001F23E  C3                ret
0001F23F  BA0703            mov dx,0x307
0001F242  BE4E89            mov si,0x894e
0001F245  F6064E89FF        test byte [0x894e],0xff
0001F24A  7503              jnz 0xf24f
0001F24C  E80E00            call 0xf25d
0001F24F  BE8389            mov si,0x8983
0001F252  F6068389FF        test byte [0x8983],0xff
0001F257  7401              jz 0xf25a
0001F259  C3                ret
0001F25A  BA0605            mov dx,0x506
0001F25D  8A4426            mov al,[si+0x26]
0001F260  3A4427            cmp al,[si+0x27]
0001F263  7501              jnz 0xf266
0001F265  C3                ret
0001F266  8A4427            mov al,[si+0x27]
0001F269  C606CD8D3E        mov byte [0x8dcd],0x3e
0001F26E  770B              ja 0xf27b
0001F270  FEC8              dec al
0001F272  C606CD8D20        mov byte [0x8dcd],0x20
0001F277  806C2702          sub byte [si+0x27],0x2
0001F27B  FE4427            inc byte [si+0x27]
0001F27E  50                push ax
0001F27F  56                push si
0001F280  E88CE1            call 0xd40f
0001F283  5E                pop si
0001F284  58                pop ax
0001F285  8AE0              mov ah,al
0001F287  D0E0              shl al,1
0001F289  02C4              add al,ah
0001F28B  024401            add al,[si+0x1]
0001F28E  2C16              sub al,0x16
0001F290  8A5C02            mov bl,[si+0x2]
0001F293  80C30C            add bl,0xc
0001F296  32E4              xor ah,ah
0001F298  32FF              xor bh,bh
0001F29A  BECD8D            mov si,0x8dcd
0001F29D  E8B2E1            call 0xd452
0001F2A0  C3                ret
0001F2A1  BE4E89            mov si,0x894e
0001F2A4  F6064E89FF        test byte [0x894e],0xff
0001F2A9  7803              js 0xf2ae
0001F2AB  E82400            call 0xf2d2
0001F2AE  E81E03            call 0xf5cf
0001F2B1  BE8389            mov si,0x8983
0001F2B4  F6068389FF        test byte [0x8983],0xff
0001F2B9  7803              js 0xf2be
0001F2BB  E81400            call 0xf2d2
0001F2BE  E90E03            jmp 0xf5cf
0001F2C1  58                pop ax
0001F2C2  8A4424            mov al,[si+0x24]
0001F2C5  3A4423            cmp al,[si+0x23]
0001F2C8  7505              jnz 0xf2cf
0001F2CA  C6442500          mov byte [si+0x25],0x0
0001F2CE  C3                ret
0001F2CF  884423            mov [si+0x23],al
0001F2D2  F64425FF          test byte [si+0x25],0xff
0001F2D6  7501              jnz 0xf2d9
0001F2D8  C3                ret
0001F2D9  8B4419            mov ax,[si+0x19]
0001F2DC  89441B            mov [si+0x1b],ax
0001F2DF  8A5C23            mov bl,[si+0x23]
0001F2E2  32FF              xor bh,bh
0001F2E4  D1E3              shl bx,1
0001F2E6  FFA7C18E          jmp [bx-0x713f]
0001F2EA  F64421FF          test byte [si+0x21],0xff
0001F2EE  7402              jz 0xf2f2
0001F2F0  EBD0              jmp short 0xf2c2
0001F2F2  F64422FF          test byte [si+0x22],0xff
0001F2F6  751F              jnz 0xf317
0001F2F8  FE4C1C            dec byte [si+0x1c]
0001F2FB  7917              jns 0xf314
0001F2FD  A0008E            mov al,[0x8e00]
0001F300  FEC8              dec al
0001F302  88441A            mov [si+0x1a],al
0001F305  88441C            mov [si+0x1c],al
0001F308  FE4422            inc byte [si+0x22]
0001F30B  D0E0              shl al,1
0001F30D  FEC0              inc al
0001F30F  88441E            mov [si+0x1e],al
0001F312  EB03              jmp short 0xf317
0001F314  E8BD00            call 0xf3d4
0001F317  80742201          xor byte [si+0x22],0x1
0001F31B  7403              jz 0xf320
0001F31D  FE4C1A            dec byte [si+0x1a]
0001F320  FE4C1E            dec byte [si+0x1e]
0001F323  C3                ret
0001F324  F64422FF          test byte [si+0x22],0xff
0001F328  7402              jz 0xf32c
0001F32A  EB96              jmp short 0xf2c2
0001F32C  F64421FF          test byte [si+0x21],0xff
0001F330  751F              jnz 0xf351
0001F332  FE4C1B            dec byte [si+0x1b]
0001F335  7917              jns 0xf34e
0001F337  A0018E            mov al,[0x8e01]
0001F33A  FEC8              dec al
0001F33C  884419            mov [si+0x19],al
0001F33F  88441B            mov [si+0x1b],al
0001F342  FE4421            inc byte [si+0x21]
0001F345  D0E0              shl al,1
0001F347  FEC0              inc al
0001F349  88441D            mov [si+0x1d],al
0001F34C  EB03              jmp short 0xf351
0001F34E  E88300            call 0xf3d4
0001F351  80742101          xor byte [si+0x21],0x1
0001F355  7403              jz 0xf35a
0001F357  FE4C19            dec byte [si+0x19]
0001F35A  FE4C1D            dec byte [si+0x1d]
0001F35D  C3                ret
0001F35E  F64421FF          test byte [si+0x21],0xff
0001F362  7403              jz 0xf367
0001F364  E95BFF            jmp 0xf2c2
0001F367  F64422FF          test byte [si+0x22],0xff
0001F36B  751F              jnz 0xf38c
0001F36D  FE441C            inc byte [si+0x1c]
0001F370  A0008E            mov al,[0x8e00]
0001F373  38441C            cmp [si+0x1c],al
0001F376  7511              jnz 0xf389
0001F378  C6441AFF          mov byte [si+0x1a],0xff
0001F37C  C6441CFF          mov byte [si+0x1c],0xff
0001F380  FE4422            inc byte [si+0x22]
0001F383  C6441EFF          mov byte [si+0x1e],0xff
0001F387  EB03              jmp short 0xf38c
0001F389  E84800            call 0xf3d4
0001F38C  80742201          xor byte [si+0x22],0x1
0001F390  7503              jnz 0xf395
0001F392  FE441A            inc byte [si+0x1a]
0001F395  FE441E            inc byte [si+0x1e]
0001F398  C3                ret
0001F399  F64422FF          test byte [si+0x22],0xff
0001F39D  7403              jz 0xf3a2
0001F39F  E920FF            jmp 0xf2c2
0001F3A2  F64421FF          test byte [si+0x21],0xff
0001F3A6  751F              jnz 0xf3c7
0001F3A8  FE441B            inc byte [si+0x1b]
0001F3AB  A0018E            mov al,[0x8e01]
0001F3AE  38441B            cmp [si+0x1b],al
0001F3B1  7511              jnz 0xf3c4
0001F3B3  C64419FF          mov byte [si+0x19],0xff
0001F3B7  C6441BFF          mov byte [si+0x1b],0xff
0001F3BB  FE4421            inc byte [si+0x21]
0001F3BE  C6441DFF          mov byte [si+0x1d],0xff
0001F3C2  EB03              jmp short 0xf3c7
0001F3C4  E80D00            call 0xf3d4
0001F3C7  80742101          xor byte [si+0x21],0x1
0001F3CB  7503              jnz 0xf3d0
0001F3CD  FE4419            inc byte [si+0x19]
0001F3D0  FE441D            inc byte [si+0x1d]
0001F3D3  C3                ret
0001F3D4  32FF              xor bh,bh
0001F3D6  8A5C1B            mov bl,[si+0x1b]
0001F3D9  A0018E            mov al,[0x8e01]
0001F3DC  F6641C            mul byte [si+0x1c]
0001F3DF  03D8              add bx,ax
0001F3E1  81C3C05C          add bx,0x5cc0
0001F3E5  8A07              mov al,[bx]
0001F3E7  3C40              cmp al,0x40
0001F3E9  7501              jnz 0xf3ec
0001F3EB  C3                ret
0001F3EC  3C78              cmp al,0x78
0001F3EE  7501              jnz 0xf3f1
0001F3F0  C3                ret
0001F3F1  3C50              cmp al,0x50
0001F3F3  7303              jnc 0xf3f8
0001F3F5  EB1C              jmp short 0xf413
0001F3F7  90                nop
0001F3F8  3C72              cmp al,0x72
0001F3FA  7417              jz 0xf413
0001F3FC  7603              jna 0xf401
0001F3FE  E94701            jmp 0xf548
0001F401  3C54              cmp al,0x54
0001F403  7203              jc 0xf408
0001F405  E9B9FE            jmp 0xf2c1
0001F408  2C50              sub al,0x50
0001F40A  3A4423            cmp al,[si+0x23]
0001F40D  7503              jnz 0xf412
0001F40F  E9AFFE            jmp 0xf2c1
0001F412  C3                ret
0001F413  A2088E            mov [0x8e08],al
0001F416  3C41              cmp al,0x41
0001F418  7446              jz 0xf460
0001F41A  3C42              cmp al,0x42
0001F41C  7415              jz 0xf433
0001F41E  3C72              cmp al,0x72
0001F420  7503              jnz 0xf425
0001F422  E9D700            jmp 0xf4fc
0001F425  3C47              cmp al,0x47
0001F427  725C              jc 0xf485
0001F429  3C50              cmp al,0x50
0001F42B  7303              jnc 0xf430
0001F42D  E98700            jmp 0xf4b7
0001F430  E98EFE            jmp 0xf2c1
0001F433  F604FF            test byte [si],0xff
0001F436  7403              jz 0xf43b
0001F438  E986FE            jmp 0xf2c1
0001F43B  F6442EFF          test byte [si+0x2e],0xff
0001F43F  7403              jz 0xf444
0001F441  E97DFE            jmp 0xf2c1
0001F444  FE442E            inc byte [si+0x2e]
0001F447  FF0EF48D          dec word [0x8df4]
0001F44B  C60740            mov byte [bx],0x40
0001F44E  B80F00            mov ax,0xf
0001F451  004428            add [si+0x28],al
0001F454  E894EE            call 0xe2eb
0001F457  B80300            mov ax,0x3
0001F45A  E8A05D            call 0x51fd
0001F45D  E9AD00            jmp 0xf50d
0001F460  F6442EFF          test byte [si+0x2e],0xff
0001F464  7503              jnz 0xf469
0001F466  E958FE            jmp 0xf2c1
0001F469  C60740            mov byte [bx],0x40
0001F46C  B81900            mov ax,0x19
0001F46F  004428            add [si+0x28],al
0001F472  E876EE            call 0xe2eb
0001F475  FF0EF68D          dec word [0x8df6]
0001F479  FE4C2E            dec byte [si+0x2e]
0001F47C  B80400            mov ax,0x4
0001F47F  E87B5D            call 0x51fd
0001F482  E98800            jmp 0xf50d
0001F485  C60740            mov byte [bx],0x40
0001F488  8006DC8D0A        add byte [0x8ddc],0xa
0001F48D  A0DC8D            mov al,[0x8ddc]
0001F490  004428            add [si+0x28],al
0001F493  8AD8              mov bl,al
0001F495  80C314            add bl,0x14
0001F498  D0EB              shr bl,1
0001F49A  D0EB              shr bl,1
0001F49C  881ED58D          mov [0x8dd5],bl
0001F4A0  32E4              xor ah,ah
0001F4A2  F604FF            test byte [si],0xff
0001F4A5  7503              jnz 0xf4aa
0001F4A7  E841EE            call 0xe2eb
0001F4AA  FE06E18D          inc byte [0x8de1]
0001F4AE  B80500            mov ax,0x5
0001F4B1  E8495D            call 0x51fd
0001F4B4  EB57              jmp short 0xf50d
0001F4B6  90                nop
0001F4B7  C60740            mov byte [bx],0x40
0001F4BA  B063              mov al,0x63
0001F4BC  004428            add [si+0x28],al
0001F4BF  32E4              xor ah,ah
0001F4C1  F604FF            test byte [si],0xff
0001F4C4  7503              jnz 0xf4c9
0001F4C6  E822EE            call 0xe2eb
0001F4C9  FE06E18D          inc byte [0x8de1]
0001F4CD  B80700            mov ax,0x7
0001F4D0  E82A5D            call 0x51fd
0001F4D3  57                push di
0001F4D4  53                push bx
0001F4D5  A0DD8D            mov al,[0x8ddd]
0001F4D8  BF088E            mov di,0x8e08
0001F4DB  83C704            add di,byte +0x4
0001F4DE  3805              cmp [di],al
0001F4E0  75F9              jnz 0xf4db
0001F4E2  C7050100          mov word [di],0x1
0001F4E6  8B1E308E          mov bx,[0x8e30]
0001F4EA  FF06308E          inc word [0x8e30]
0001F4EE  D1E3              shl bx,1
0001F4F0  8B874460          mov ax,[bx+0x6044]
0001F4F4  894502            mov [di+0x2],ax
0001F4F7  5B                pop bx
0001F4F8  5F                pop di
0001F4F9  EB12              jmp short 0xf50d
0001F4FB  90                nop
0001F4FC  C60754            mov byte [bx],0x54
0001F4FF  C606088E54        mov byte [0x8e08],0x54
0001F504  FE4428            inc byte [si+0x28]
0001F507  E80300            call 0xf50d
0001F50A  E9B4FD            jmp 0xf2c1
0001F50D  8A541B            mov dl,[si+0x1b]
0001F510  32F6              xor dh,dh
0001F512  D1E2              shl dx,1
0001F514  D1E2              shl dx,1
0001F516  D1E2              shl dx,1
0001F518  D1E2              shl dx,1
0001F51A  8A441C            mov al,[si+0x1c]
0001F51D  F626018E          mul byte [0x8e01]
0001F521  D1E0              shl ax,1
0001F523  D1E0              shl ax,1
0001F525  D1E0              shl ax,1
0001F527  D1E0              shl ax,1
0001F529  D1E0              shl ax,1
0001F52B  D1E0              shl ax,1
0001F52D  8BF8              mov di,ax
0001F52F  03FA              add di,dx
0001F531  A0088E            mov al,[0x8e08]
0001F534  2C40              sub al,0x40
0001F536  B4C0              mov ah,0xc0
0001F538  F6E4              mul ah
0001F53A  56                push si
0001F53B  8BF0              mov si,ax
0001F53D  81C67009          add si,0x970
0001F541  33DB              xor bx,bx
0001F543  E84FF8            call 0xed95
0001F546  5E                pop si
0001F547  C3                ret
0001F548  803EDD8D01        cmp byte [0x8ddd],0x1
0001F54D  7532              jnz 0xf581
0001F54F  BB0100            mov bx,0x1
0001F552  8B4419            mov ax,[si+0x19]
0001F555  BD9260            mov bp,0x6092
0001F558  BF7960            mov di,0x6079
0001F55B  83C502            add bp,byte +0x2
0001F55E  43                inc bx
0001F55F  83FB16            cmp bx,byte +0x16
0001F562  7603              jna 0xf567
0001F564  E95AFD            jmp 0xf2c1
0001F567  F601FF            test byte [bx+di],0xff
0001F56A  78EF              js 0xf55b
0001F56C  3B4600            cmp ax,[bp+0x0]
0001F56F  75EA              jnz 0xf55b
0001F571  881EDD8D          mov [0x8ddd],bl
0001F575  FE067A60          inc byte [0x607a]
0001F579  80267A600F        and byte [0x607a],0xf
0001F57E  E9D3EA            jmp 0xe054
0001F581  8A1EDD8D          mov bl,[0x8ddd]
0001F585  32FF              xor bh,bh
0001F587  80FB19            cmp bl,0x19
0001F58A  7503              jnz 0xf58f
0001F58C  E9BFEA            jmp 0xe04e
0001F58F  80FB16            cmp bl,0x16
0001F592  771E              ja 0xf5b2
0001F594  81C37960          add bx,0x6079
0001F598  8A07              mov al,[bx]
0001F59A  FEC0              inc al
0001F59C  240F              and al,0xf
0001F59E  7502              jnz 0xf5a2
0001F5A0  FEC8              dec al
0001F5A2  8807              mov [bx],al
0001F5A4  7804              js 0xf5aa
0001F5A6  2403              and al,0x3
0001F5A8  7500              jnz 0xf5aa
0001F5AA  C606DD8D01        mov byte [0x8ddd],0x1
0001F5AF  E9A2EA            jmp 0xe054
0001F5B2  FEC3              inc bl
0001F5B4  881EDD8D          mov [0x8ddd],bl
0001F5B8  C706A88DD281      mov word [0x8da8],0x81d2
0001F5BE  80FB18            cmp bl,0x18
0001F5C1  7406              jz 0xf5c9
0001F5C3  C706A88D5282      mov word [0x8da8],0x8252
0001F5C9  E88FEB            call 0xe15b
0001F5CC  E982EA            jmp 0xe051
0001F5CF  8A441D            mov al,[si+0x1d]
0001F5D2  2A4417            sub al,[si+0x17]
0001F5D5  3A06AC8D          cmp al,[0x8dac]
0001F5D9  7E1A              jng 0xf5f5
0001F5DB  3A06AD8D          cmp al,[0x8dad]
0001F5DF  7D22              jnl 0xf603
0001F5E1  8A441E            mov al,[si+0x1e]
0001F5E4  2A4418            sub al,[si+0x18]
0001F5E7  3A06AE8D          cmp al,[0x8dae]
0001F5EB  7E3A              jng 0xf627
0001F5ED  3A06AF8D          cmp al,[0x8daf]
0001F5F1  7D40              jnl 0xf633
0001F5F3  EB5E              jmp short 0xf653
0001F5F5  8A441F            mov al,[si+0x1f]
0001F5F8  2A441D            sub al,[si+0x1d]
0001F5FB  74E4              jz 0xf5e1
0001F5FD  3CFF              cmp al,0xff
0001F5FF  74E0              jz 0xf5e1
0001F601  EB0C              jmp short 0xf60f
0001F603  8A441F            mov al,[si+0x1f]
0001F606  2A441D            sub al,[si+0x1d]
0001F609  74D6              jz 0xf5e1
0001F60B  3C01              cmp al,0x1
0001F60D  74D2              jz 0xf5e1
0001F60F  284417            sub [si+0x17],al
0001F612  7906              jns 0xf61a
0001F614  C6441700          mov byte [si+0x17],0x0
0001F618  EB39              jmp short 0xf653
0001F61A  A0AA8D            mov al,[0x8daa]
0001F61D  3A4417            cmp al,[si+0x17]
0001F620  7331              jnc 0xf653
0001F622  884417            mov [si+0x17],al
0001F625  EB2C              jmp short 0xf653
0001F627  8A4420            mov al,[si+0x20]
0001F62A  2A441E            sub al,[si+0x1e]
0001F62D  3CFF              cmp al,0xff
0001F62F  7422              jz 0xf653
0001F631  EB0A              jmp short 0xf63d
0001F633  8A4420            mov al,[si+0x20]
0001F636  2A441E            sub al,[si+0x1e]
0001F639  3C01              cmp al,0x1
0001F63B  7416              jz 0xf653
0001F63D  284418            sub [si+0x18],al
0001F640  7906              jns 0xf648
0001F642  C6441800          mov byte [si+0x18],0x0
0001F646  EB0B              jmp short 0xf653
0001F648  A0AB8D            mov al,[0x8dab]
0001F64B  3A4418            cmp al,[si+0x18]
0001F64E  7303              jnc 0xf653
0001F650  884418            mov [si+0x18],al
0001F653  32F6              xor dh,dh
0001F655  8A5417            mov dl,[si+0x17]
0001F658  D1E2              shl dx,1
0001F65A  D1E2              shl dx,1
0001F65C  D1E2              shl dx,1
0001F65E  8A4418            mov al,[si+0x18]
0001F661  F626018E          mul byte [0x8e01]
0001F665  D1E0              shl ax,1
0001F667  D1E0              shl ax,1
0001F669  D1E0              shl ax,1
0001F66B  D1E0              shl ax,1
0001F66D  D1E0              shl ax,1
0001F66F  03C2              add ax,dx
0001F671  89440D            mov [si+0xd],ax
0001F674  32F6              xor dh,dh
0001F676  8A541D            mov dl,[si+0x1d]
0001F679  D1E2              shl dx,1
0001F67B  D1E2              shl dx,1
0001F67D  D1E2              shl dx,1
0001F67F  8A441E            mov al,[si+0x1e]
0001F682  F626018E          mul byte [0x8e01]
0001F686  D1E0              shl ax,1
0001F688  D1E0              shl ax,1
0001F68A  D1E0              shl ax,1
0001F68C  D1E0              shl ax,1
0001F68E  D1E0              shl ax,1
0001F690  03C2              add ax,dx
0001F692  89440F            mov [si+0xf],ax
0001F695  F64425FF          test byte [si+0x25],0xff
0001F699  752B              jnz 0xf6c6
0001F69B  FE4C2A            dec byte [si+0x2a]
0001F69E  7801              js 0xf6a1
0001F6A0  C3                ret
0001F6A1  C6442A00          mov byte [si+0x2a],0x0
0001F6A5  FE4429            inc byte [si+0x29]
0001F6A8  8A4429            mov al,[si+0x29]
0001F6AB  8AE0              mov ah,al
0001F6AD  D0E8              shr al,1
0001F6AF  D0E8              shr al,1
0001F6B1  241F              and al,0x1f
0001F6B3  BB5C8D            mov bx,0x8d5c
0001F6B6  D7                xlatb
0001F6B7  BB7C8D            mov bx,0x8d7c
0001F6BA  D0E0              shl al,1
0001F6BC  D0E0              shl al,1
0001F6BE  80E403            and ah,0x3
0001F6C1  02C4              add al,ah
0001F6C3  D7                xlatb
0001F6C4  EB13              jmp short 0xf6d9
0001F6C6  A0CF8D            mov al,[0x8dcf]
0001F6C9  2403              and al,0x3
0001F6CB  32FF              xor bh,bh
0001F6CD  8A5C23            mov bl,[si+0x23]
0001F6D0  D0E3              shl bl,1
0001F6D2  D0E3              shl bl,1
0001F6D4  81C34C8D          add bx,0x8d4c
0001F6D8  D7                xlatb
0001F6D9  32E4              xor ah,ah
0001F6DB  D1E0              shl ax,1
0001F6DD  D1E0              shl ax,1
0001F6DF  D1E0              shl ax,1
0001F6E1  D1E0              shl ax,1
0001F6E3  D1E0              shl ax,1
0001F6E5  D1E0              shl ax,1
0001F6E7  8BD0              mov dx,ax
0001F6E9  D1E0              shl ax,1
0001F6EB  03C2              add ax,dx
0001F6ED  05302E            add ax,0x2e30
0001F6F0  894413            mov [si+0x13],ax
0001F6F3  C3                ret
0001F6F4  E8A700            call 0xf79e
0001F6F7  E8BDE0            call 0xd7b7
0001F6FA  C706D37B3089      mov word [0x7bd3],0x8930
0001F700  C606DA8D01        mov byte [0x8dda],0x1
0001F705  F606037CFF        test byte [0x7c03],0xff
0001F70A  7510              jnz 0xf71c
0001F70C  C606DA8D03        mov byte [0x8dda],0x3
0001F711  F606047CFF        test byte [0x7c04],0xff
0001F716  7504              jnz 0xf71c
0001F718  FE06DA8D          inc byte [0x8dda]
0001F71C  E81E00            call 0xf73d
0001F71F  33C0              xor ax,ax
0001F721  A3308E            mov [0x8e30],ax
0001F724  BF7A60            mov di,0x607a
0001F727  B91900            mov cx,0x19
0001F72A  F3AA              rep stosb
0001F72C  BF0C8E            mov di,0x8e0c
0001F72F  BE5660            mov si,0x6056
0001F732  B91200            mov cx,0x12
0001F735  F3A5              rep movsw
0001F737  C606D48D01        mov byte [0x8dd4],0x1
0001F73C  C3                ret
0001F73D  C6064E8900        mov byte [0x894e],0x0
0001F742  B0FF              mov al,0xff
0001F744  F606D98DFF        test byte [0x8dd9],0xff
0001F749  7401              jz 0xf74c
0001F74B  40                inc ax
0001F74C  A28389            mov [0x8983],al
0001F74F  BB4E89            mov bx,0x894e
0001F752  E80300            call 0xf758
0001F755  BB8389            mov bx,0x8983
0001F758  B90500            mov cx,0x5
0001F75B  B030              mov al,0x30
0001F75D  8D7F05            lea di,[bx+0x5]
0001F760  F3AA              rep stosb
0001F762  33C0              xor ax,ax
0001F764  894703            mov [bx+0x3],ax
0001F767  C647260A          mov byte [bx+0x26],0xa
0001F76B  884728            mov [bx+0x28],al
0001F76E  88472D            mov [bx+0x2d],al
0001F771  88472C            mov [bx+0x2c],al
0001F774  884731            mov [bx+0x31],al
0001F777  C3                ret
0001F778  E8775A            call 0x51f2
0001F77B  33C0              xor ax,ax
0001F77D  A3CF8D            mov [0x8dcf],ax
0001F780  A2D38D            mov [0x8dd3],al
0001F783  BF2B8C            mov di,0x8c2b
0001F786  B92800            mov cx,0x28
0001F789  F3AB              rep stosw
0001F78B  BE4D8A            mov si,0x8a4d
0001F78E  B90E00            mov cx,0xe
0001F791  51                push cx
0001F792  E831EB            call 0xe2c6
0001F795  59                pop cx
0001F796  83C611            add si,byte +0x11
0001F799  E2F6              loop 0xf791
0001F79B  E938EC            jmp 0xe3d6
0001F79E  B8A9AD            mov ax,0xada9
0001F7A1  8CCA              mov dx,cs
0001F7A3  D1E8              shr ax,1
0001F7A5  D1E8              shr ax,1
0001F7A7  D1E8              shr ax,1
0001F7A9  D1E8              shr ax,1
0001F7AB  40                inc ax
0001F7AC  03D0              add dx,ax
0001F7AE  89163689          mov [0x8936],dx
0001F7B2  89164889          mov [0x8948],dx
0001F7B6  81C2A005          add dx,0x5a0
0001F7BA  89163889          mov [0x8938],dx
0001F7BE  89163E89          mov [0x893e],dx
0001F7C2  89164C89          mov [0x894c],dx
0001F7C6  81C2A005          add dx,0x5a0
0001F7CA  89163A89          mov [0x893a],dx
0001F7CE  89164089          mov [0x8940],dx
0001F7D2  89164289          mov [0x8942],dx
0001F7D6  89164489          mov [0x8944],dx
0001F7DA  89164689          mov [0x8946],dx
0001F7DE  C3                ret
0001F7DF  BE4E89            mov si,0x894e
0001F7E2  F6064E89FF        test byte [0x894e],0xff
0001F7E7  7803              js 0xf7ec
0001F7E9  E80B00            call 0xf7f7
0001F7EC  BE8389            mov si,0x8983
0001F7EF  F6068389FF        test byte [0x8983],0xff
0001F7F4  7901              jns 0xf7f7
0001F7F6  C3                ret
0001F7F7  F6442DFF          test byte [si+0x2d],0xff
0001F7FB  740E              jz 0xf80b
0001F7FD  A13689            mov ax,[0x8936]
0001F800  87063889          xchg [0x8938],ax
0001F804  87063A89          xchg [0x893a],ax
0001F808  A33689            mov [0x8936],ax
0001F80B  8B2EB28D          mov bp,[0x8db2]
0001F80F  8B16B08D          mov dx,[0x8db0]
0001F813  8B7C0B            mov di,[si+0xb]
0001F816  56                push si
0001F817  8B740D            mov si,[si+0xd]
0001F81A  8BC6              mov ax,si
0001F81C  8BDF              mov bx,di
0001F81E  8BCD              mov cx,bp
0001F820  2E8E1E3689        mov ds,[cs:0x8936]
0001F825  2E8E063089        mov es,[cs:0x8930]
0001F82A  F3A5              rep movsw
0001F82C  8BF0              mov si,ax
0001F82E  8BFB              mov di,bx
0001F830  8BCD              mov cx,bp
0001F832  2E8E1E3889        mov ds,[cs:0x8938]
0001F837  2E8E063289        mov es,[cs:0x8932]
0001F83C  F3A5              rep movsw
0001F83E  8BF0              mov si,ax
0001F840  8BFB              mov di,bx
0001F842  8BCD              mov cx,bp
0001F844  2E8E1E3A89        mov ds,[cs:0x893a]
0001F849  2E8E063489        mov es,[cs:0x8934]
0001F84E  F3A5              rep movsw
0001F850  8CC8              mov ax,cs
0001F852  8ED8              mov ds,ax
0001F854  033EB48D          add di,[0x8db4]
0001F858  0336B68D          add si,[0x8db6]
0001F85C  4A                dec dx
0001F85D  75BB              jnz 0xf81a
0001F85F  8CC8              mov ax,cs
0001F861  8EC0              mov es,ax
0001F863  5E                pop si
0001F864  F6442DFF          test byte [si+0x2d],0xff
0001F868  7411              jz 0xf87b
0001F86A  A13A89            mov ax,[0x893a]
0001F86D  87063889          xchg [0x8938],ax
0001F871  87063689          xchg [0x8936],ax
0001F875  A33A89            mov [0x893a],ax
0001F878  FE4C2D            dec byte [si+0x2d]
0001F87B  C3                ret
0001F87C  33C0              xor ax,ax
0001F87E  A3FA8D            mov [0x8dfa],ax
0001F881  A2DC8D            mov [0x8ddc],al
0001F884  A2DF8D            mov [0x8ddf],al
0001F887  A2E08D            mov [0x8de0],al
0001F88A  C606E18D01        mov byte [0x8de1],0x1
0001F88F  A0DD8D            mov al,[0x8ddd]
0001F892  BB7960            mov bx,0x6079
0001F895  D7                xlatb
0001F896  A2DE8D            mov [0x8dde],al
0001F899  8AD8              mov bl,al
0001F89B  803EDD8D01        cmp byte [0x8ddd],0x1
0001F8A0  750C              jnz 0xf8ae
0001F8A2  32C0              xor al,al
0001F8A4  A2DE8D            mov [0x8dde],al
0001F8A7  D0E3              shl bl,1
0001F8A9  D0E3              shl bl,1
0001F8AB  80E30C            and bl,0xc
0001F8AE  D0E8              shr al,1
0001F8B0  D016DF8D          rcl byte [0x8ddf],1
0001F8B4  D0E8              shr al,1
0001F8B6  D016E08D          rcl byte [0x8de0],1
0001F8BA  32E4              xor ah,ah
0001F8BC  8AC3              mov al,bl
0001F8BE  D0E8              shr al,1
0001F8C0  D0E8              shr al,1
0001F8C2  8BF0              mov si,ax
0001F8C4  D1E6              shl si,1
0001F8C6  8BB46379          mov si,[si+0x7963]
0001F8CA  A0DD8D            mov al,[0x8ddd]
0001F8CD  48                dec ax
0001F8CE  D1E0              shl ax,1
0001F8D0  8BD8              mov bx,ax
0001F8D2  D1E0              shl ax,1
0001F8D4  03F0              add si,ax
0001F8D6  03F3              add si,bx
0001F8D8  AD                lodsw
0001F8D9  A3E28D            mov [0x8de2],ax
0001F8DC  AD                lodsw
0001F8DD  A3E48D            mov [0x8de4],ax
0001F8E0  AD                lodsw
0001F8E1  A3E68D            mov [0x8de6],ax
0001F8E4  8A1EDD8D          mov bl,[0x8ddd]
0001F8E8  32FF              xor bh,bh
0001F8EA  D1E3              shl bx,1
0001F8EC  8B872F79          mov ax,[bx+0x792f]
0001F8F0  A3E88D            mov [0x8de8],ax
0001F8F3  8B872C68          mov ax,[bx+0x682c]
0001F8F7  A3EA8D            mov [0x8dea],ax
0001F8FA  8B875664          mov ax,[bx+0x6456]
0001F8FE  A3EC8D            mov [0x8dec],ax
0001F901  8B871E66          mov ax,[bx+0x661e]
0001F905  A3EE8D            mov [0x8dee],ax
0001F908  8B872667          mov ax,[bx+0x6726]
0001F90C  A3F08D            mov [0x8df0],ax
0001F90F  8BB74E58          mov si,[bx+0x584e]
0001F913  E8A901            call 0xfabf
0001F916  E891F3            call 0xecaa
0001F919  E82F03            call 0xfc4b
0001F91C  8936FC8D          mov [0x8dfc],si
0001F920  E8EA03            call 0xfd0d
0001F923  BD1E8D            mov bp,0x8d1e
0001F926  E822DE            call 0xd74b
0001F929  8B36EA8D          mov si,[0x8dea]
0001F92D  A1E48D            mov ax,[0x8de4]
0001F930  BF0A61            mov di,0x610a
0001F933  E86401            call 0xfa9a
0001F936  890EF28D          mov [0x8df2],cx
0001F93A  BE0A61            mov si,0x610a
0001F93D  C606088E43        mov byte [0x8e08],0x43
0001F942  FE060B8E          inc byte [0x8e0b]
0001F946  E81E01            call 0xfa67
0001F949  FE0E0B8E          dec byte [0x8e0b]
0001F94D  8B36EC8D          mov si,[0x8dec]
0001F951  A1E68D            mov ax,[0x8de6]
0001F954  BF0A61            mov di,0x610a
0001F957  E84001            call 0xfa9a
0001F95A  890EF88D          mov [0x8df8],cx
0001F95E  BE0A61            mov si,0x610a
0001F961  BFE960            mov di,0x60e9
0001F964  F3A5              rep movsw
0001F966  8B36EE8D          mov si,[0x8dee]
0001F96A  A1E28D            mov ax,[0x8de2]
0001F96D  BF0A61            mov di,0x610a
0001F970  E82701            call 0xfa9a
0001F973  890EF68D          mov [0x8df6],cx
0001F977  890EF48D          mov [0x8df4],cx
0001F97B  BE0A61            mov si,0x610a
0001F97E  C606088E42        mov byte [0x8e08],0x42
0001F983  E8E100            call 0xfa67
0001F986  8B36F08D          mov si,[0x8df0]
0001F98A  B80000            mov ax,0x0
0001F98D  8B0EF68D          mov cx,[0x8df6]
0001F991  F9                stc
0001F992  D1D0              rcl ax,1
0001F994  E2FB              loop 0xf991
0001F996  BF0A61            mov di,0x610a
0001F999  E8FE00            call 0xfa9a
0001F99C  BE0A61            mov si,0x610a
0001F99F  C606088E41        mov byte [0x8e08],0x41
0001F9A4  E8C000            call 0xfa67
0001F9A7  BF9460            mov di,0x6094
0001F9AA  BEBE60            mov si,0x60be
0001F9AD  BB7B60            mov bx,0x607b
0001F9B0  B91500            mov cx,0x15
0001F9B3  8A07              mov al,[bx]
0001F9B5  43                inc bx
0001F9B6  0AC0              or al,al
0001F9B8  780C              js 0xf9c6
0001F9BA  AC                lodsb
0001F9BB  E86D02            call 0xfc2b
0001F9BE  AA                stosb
0001F9BF  AC                lodsb
0001F9C0  E87802            call 0xfc3b
0001F9C3  AA                stosb
0001F9C4  EB0A              jmp short 0xf9d0
0001F9C6  C705FFFF          mov word [di],0xffff
0001F9CA  83C702            add di,byte +0x2
0001F9CD  83C602            add si,byte +0x2
0001F9D0  E2E1              loop 0xf9b3
0001F9D2  BB99AD            mov bx,0xad99
0001F9D5  E80603            call 0xfcde
0001F9D8  33FF              xor di,di
0001F9DA  BE4E89            mov si,0x894e
0001F9DD  F6064E89FF        test byte [0x894e],0xff
0001F9E2  7803              js 0xf9e7
0001F9E4  E80E00            call 0xf9f5
0001F9E7  BE8389            mov si,0x8983
0001F9EA  F6068389FF        test byte [0x8983],0xff
0001F9EF  7901              jns 0xf9f2
0001F9F1  C3                ret
0001F9F2  BF0200            mov di,0x2
0001F9F5  8A1EDD8D          mov bl,[0x8ddd]
0001F9F9  32FF              xor bh,bh
0001F9FB  D1E3              shl bx,1
0001F9FD  D1E3              shl bx,1
0001F9FF  8B819269          mov ax,[bx+di+0x6992]
0001FA03  E82502            call 0xfc2b
0001FA06  884419            mov [si+0x19],al
0001FA09  D0E0              shl al,1
0001FA0B  88441D            mov [si+0x1d],al
0001FA0E  88441F            mov [si+0x1f],al
0001FA11  2C08              sub al,0x8
0001FA13  7902              jns 0xfa17
0001FA15  32C0              xor al,al
0001FA17  3A06AA8D          cmp al,[0x8daa]
0001FA1B  7603              jna 0xfa20
0001FA1D  A0AA8D            mov al,[0x8daa]
0001FA20  884417            mov [si+0x17],al
0001FA23  8AC4              mov al,ah
0001FA25  E81302            call 0xfc3b
0001FA28  88441A            mov [si+0x1a],al
0001FA2B  D0E0              shl al,1
0001FA2D  88441E            mov [si+0x1e],al
0001FA30  884420            mov [si+0x20],al
0001FA33  2C04              sub al,0x4
0001FA35  7902              jns 0xfa39
0001FA37  32C0              xor al,al
0001FA39  3A06AB8D          cmp al,[0x8dab]
0001FA3D  7603              jna 0xfa42
0001FA3F  A0AB8D            mov al,[0x8dab]
0001FA42  884418            mov [si+0x18],al
0001FA45  33C0              xor ax,ax
0001FA47  894421            mov [si+0x21],ax
0001FA4A  894423            mov [si+0x23],ax
0001FA4D  C6442E00          mov byte [si+0x2e],0x0
0001FA51  884429            mov [si+0x29],al
0001FA54  884427            mov [si+0x27],al
0001FA57  E8F9FB            call 0xf653
0001FA5A  8B440F            mov ax,[si+0xf]
0001FA5D  894411            mov [si+0x11],ax
0001FA60  8B4413            mov ax,[si+0x13]
0001FA63  894415            mov [si+0x15],ax
0001FA66  C3                ret
0001FA67  BFC05C            mov di,0x5cc0
0001FA6A  AC                lodsb
0001FA6B  32E4              xor ah,ah
0001FA6D  03F8              add di,ax
0001FA6F  AC                lodsb
0001FA70  F626018E          mul byte [0x8e01]
0001FA74  03F8              add di,ax
0001FA76  8A26088E          mov ah,[0x8e08]
0001FA7A  F6060B8EFF        test byte [0x8e0b],0xff
0001FA7F  7414              jz 0xfa95
0001FA81  56                push si
0001FA82  57                push di
0001FA83  51                push cx
0001FA84  E82CDB            call 0xd5b3
0001FA87  D1EA              shr dx,1
0001FA89  81E20300          and dx,0x3
0001FA8D  80C243            add dl,0x43
0001FA90  59                pop cx
0001FA91  5F                pop di
0001FA92  5E                pop si
0001FA93  8AE2              mov ah,dl
0001FA95  8825              mov [di],ah
0001FA97  E2CE              loop 0xfa67
0001FA99  C3                ret
0001FA9A  33C9              xor cx,cx
0001FA9C  57                push di
0001FA9D  D1E8              shr ax,1
0001FA9F  7314              jnc 0xfab5
0001FAA1  50                push ax
0001FAA2  8A04              mov al,[si]
0001FAA4  E88401            call 0xfc2b
0001FAA7  AA                stosb
0001FAA8  8A4401            mov al,[si+0x1]
0001FAAB  E88D01            call 0xfc3b
0001FAAE  AA                stosb
0001FAAF  58                pop ax
0001FAB0  41                inc cx
0001FAB1  0BC0              or ax,ax
0001FAB3  7405              jz 0xfaba
0001FAB5  83C602            add si,byte +0x2
0001FAB8  EBE3              jmp short 0xfa9d
0001FABA  5E                pop si
0001FABB  884CFF            mov [si-0x1],cl
0001FABE  C3                ret
0001FABF  8BD6              mov dx,si
0001FAC1  A0DD8D            mov al,[0x8ddd]
0001FAC4  B405              mov ah,0x5
0001FAC6  F6E4              mul ah
0001FAC8  8BF0              mov si,ax
0001FACA  81C6D663          add si,0x63d6
0001FACE  32E4              xor ah,ah
0001FAD0  AC                lodsb
0001FAD1  A2018E            mov [0x8e01],al
0001FAD4  48                dec ax
0001FAD5  D1E0              shl ax,1
0001FAD7  D1E0              shl ax,1
0001FAD9  D1E0              shl ax,1
0001FADB  D1E0              shl ax,1
0001FADD  A3048E            mov [0x8e04],ax
0001FAE0  33C0              xor ax,ax
0001FAE2  AC                lodsb
0001FAE3  A2008E            mov [0x8e00],al
0001FAE6  AC                lodsb
0001FAE7  A2DB8D            mov [0x8ddb],al
0001FAEA  AC                lodsb
0001FAEB  F606D98DFF        test byte [0x8dd9],0xff
0001FAF0  7503              jnz 0xfaf5
0001FAF2  A2DB8D            mov [0x8ddb],al
0001FAF5  AC                lodsb
0001FAF6  A2FE8D            mov [0x8dfe],al
0001FAF9  B303              mov bl,0x3
0001FAFB  B403              mov ah,0x3
0001FAFD  3C55              cmp al,0x55
0001FAFF  7418              jz 0xfb19
0001FB01  80C302            add bl,0x2
0001FB04  3C58              cmp al,0x58
0001FB06  7411              jz 0xfb19
0001FB08  80C302            add bl,0x2
0001FB0B  B401              mov ah,0x1
0001FB0D  3C5B              cmp al,0x5b
0001FB0F  7408              jz 0xfb19
0001FB11  B404              mov ah,0x4
0001FB13  3C6D              cmp al,0x6d
0001FB15  7402              jz 0xfb19
0001FB17  32E4              xor ah,ah
0001FB19  8826098E          mov [0x8e09],ah
0001FB1D  881EFF8D          mov [0x8dff],bl
0001FB21  8BF2              mov si,dx
0001FB23  A0008E            mov al,[0x8e00]
0001FB26  F626018E          mul byte [0x8e01]
0001FB2A  A3028E            mov [0x8e02],ax
0001FB2D  33C9              xor cx,cx
0001FB2F  32E4              xor ah,ah
0001FB31  32C0              xor al,al
0001FB33  50                push ax
0001FB34  E81700            call 0xfb4e
0001FB37  52                push dx
0001FB38  E81F00            call 0xfb5a
0001FB3B  5A                pop dx
0001FB3C  58                pop ax
0001FB3D  41                inc cx
0001FB3E  40                inc ax
0001FB3F  3A06018E          cmp al,[0x8e01]
0001FB43  72EE              jc 0xfb33
0001FB45  FEC4              inc ah
0001FB47  3A26008E          cmp ah,[0x8e00]
0001FB4B  72E4              jc 0xfb31
0001FB4D  C3                ret
0001FB4E  F7C10700          test cx,0x7
0001FB52  7503              jnz 0xfb57
0001FB54  8A14              mov dl,[si]
0001FB56  46                inc si
0001FB57  D0E2              shl dl,1
0001FB59  C3                ret
0001FB5A  9C                pushf
0001FB5B  E8CD00            call 0xfc2b
0001FB5E  8AD8              mov bl,al
0001FB60  8AC4              mov al,ah
0001FB62  E8D600            call 0xfc3b
0001FB65  F626018E          mul byte [0x8e01]
0001FB69  32FF              xor bh,bh
0001FB6B  03D8              add bx,ax
0001FB6D  B440              mov ah,0x40
0001FB6F  9D                popf
0001FB70  732A              jnc 0xfb9c
0001FB72  51                push cx
0001FB73  53                push bx
0001FB74  E83CDA            call 0xd5b3
0001FB77  803E098E00        cmp byte [0x8e09],0x0
0001FB7C  750B              jnz 0xfb89
0001FB7E  B472              mov ah,0x72
0001FB80  80E606            and dh,0x6
0001FB83  7515              jnz 0xfb9a
0001FB85  B454              mov ah,0x54
0001FB87  EB11              jmp short 0xfb9a
0001FB89  D1EA              shr dx,1
0001FB8B  D1EA              shr dx,1
0001FB8D  8BC2              mov ax,dx
0001FB8F  251F00            and ax,0x1f
0001FB92  F636098E          div byte [0x8e09]
0001FB96  0226FE8D          add ah,[0x8dfe]
0001FB9A  5B                pop bx
0001FB9B  59                pop cx
0001FB9C  88A7C05C          mov [bx+0x5cc0],ah
0001FBA0  C3                ret
0001FBA1  F606E08DFF        test byte [0x8de0],0xff
0001FBA6  741B              jz 0xfbc3
0001FBA8  E88000            call 0xfc2b
0001FBAB  8A26088E          mov ah,[0x8e08]
0001FBAF  80FC71            cmp ah,0x71
0001FBB2  7410              jz 0xfbc4
0001FBB4  80FC5E            cmp ah,0x5e
0001FBB7  740D              jz 0xfbc6
0001FBB9  80FC68            cmp ah,0x68
0001FBBC  7408              jz 0xfbc6
0001FBBE  80FC62            cmp ah,0x62
0001FBC1  7405              jz 0xfbc8
0001FBC3  C3                ret
0001FBC4  FEC8              dec al
0001FBC6  FEC8              dec al
0001FBC8  FEC8              dec al
0001FBCA  C3                ret
0001FBCB  F606DF8DFF        test byte [0x8ddf],0xff
0001FBD0  7420              jz 0xfbf2
0001FBD2  E86600            call 0xfc3b
0001FBD5  8A26088E          mov ah,[0x8e08]
0001FBD9  80FC5E            cmp ah,0x5e
0001FBDC  7415              jz 0xfbf3
0001FBDE  80FC68            cmp ah,0x68
0001FBE1  7410              jz 0xfbf3
0001FBE3  80FC71            cmp ah,0x71
0001FBE6  740B              jz 0xfbf3
0001FBE8  80FC62            cmp ah,0x62
0001FBEB  7408              jz 0xfbf5
0001FBED  80FC66            cmp ah,0x66
0001FBF0  7403              jz 0xfbf5
0001FBF2  C3                ret
0001FBF3  FEC8              dec al
0001FBF5  FEC8              dec al
0001FBF7  C3                ret
0001FBF8  F606E08DFF        test byte [0x8de0],0xff
0001FBFD  7412              jz 0xfc11
0001FBFF  3C51              cmp al,0x51
0001FC01  7505              jnz 0xfc08
0001FC03  C606088E53        mov byte [0x8e08],0x53
0001FC08  3C53              cmp al,0x53
0001FC0A  7505              jnz 0xfc11
0001FC0C  C606088E51        mov byte [0x8e08],0x51
0001FC11  F606DF8DFF        test byte [0x8ddf],0xff
0001FC16  7412              jz 0xfc2a
0001FC18  3C52              cmp al,0x52
0001FC1A  7505              jnz 0xfc21
0001FC1C  C606088E50        mov byte [0x8e08],0x50
0001FC21  3C50              cmp al,0x50
0001FC23  7505              jnz 0xfc2a
0001FC25  C606088E52        mov byte [0x8e08],0x52
0001FC2A  C3                ret
0001FC2B  F606E08DFF        test byte [0x8de0],0xff
0001FC30  7408              jz 0xfc3a
0001FC32  2A06018E          sub al,[0x8e01]
0001FC36  FEC0              inc al
0001FC38  F6D8              neg al
0001FC3A  C3                ret
0001FC3B  F606DF8DFF        test byte [0x8ddf],0xff
0001FC40  7408              jz 0xfc4a
0001FC42  2A06008E          sub al,[0x8e00]
0001FC46  FEC0              inc al
0001FC48  F6D8              neg al
0001FC4A  C3                ret
0001FC4B  8B36E88D          mov si,[0x8de8]
0001FC4F  AC                lodsb
0001FC50  3C40              cmp al,0x40
0001FC52  74F6              jz 0xfc4a
0001FC54  7224              jc 0xfc7a
0001FC56  A2088E            mov [0x8e08],al
0001FC59  E89CFF            call 0xfbf8
0001FC5C  3C73              cmp al,0x73
0001FC5E  75EF              jnz 0xfc4f
0001FC60  803EDD8D01        cmp byte [0x8ddd],0x1
0001FC65  74E8              jz 0xfc4f
0001FC67  8A04              mov al,[si]
0001FC69  E8BFFF            call 0xfc2b
0001FC6C  A2068E            mov [0x8e06],al
0001FC6F  8A4401            mov al,[si+0x1]
0001FC72  E8C6FF            call 0xfc3b
0001FC75  A2078E            mov [0x8e07],al
0001FC78  EBD5              jmp short 0xfc4f
0001FC7A  BFC05C            mov di,0x5cc0
0001FC7D  E821FF            call 0xfba1
0001FC80  32E4              xor ah,ah
0001FC82  03F8              add di,ax
0001FC84  AC                lodsb
0001FC85  E843FF            call 0xfbcb
0001FC88  F626018E          mul byte [0x8e01]
0001FC8C  03F8              add di,ax
0001FC8E  A0088E            mov al,[0x8e08]
0001FC91  3C77              cmp al,0x77
0001FC93  750A              jnz 0xfc9f
0001FC95  E81BD9            call 0xd5b3
0001FC98  80E660            and dh,0x60
0001FC9B  B040              mov al,0x40
0001FC9D  75B0              jnz 0xfc4f
0001FC9F  8805              mov [di],al
0001FCA1  BB328E            mov bx,0x8e32
0001FCA4  8A07              mov al,[bx]
0001FCA6  0AC0              or al,al
0001FCA8  74A5              jz 0xfc4f
0001FCAA  3A06088E          cmp al,[0x8e08]
0001FCAE  7405              jz 0xfcb5
0001FCB0  83C303            add bx,byte +0x3
0001FCB3  EBEF              jmp short 0xfca4
0001FCB5  8B5F01            mov bx,[bx+0x1]
0001FCB8  8A17              mov dl,[bx]
0001FCBA  0AD2              or dl,dl
0001FCBC  7491              jz 0xfc4f
0001FCBE  32E4              xor ah,ah
0001FCC0  8A4701            mov al,[bx+0x1]
0001FCC3  8BE8              mov bp,ax
0001FCC5  8A4702            mov al,[bx+0x2]
0001FCC8  F626018E          mul byte [0x8e01]
0001FCCC  03E8              add bp,ax
0001FCCE  8813              mov [bp+di],dl
0001FCD0  83C303            add bx,byte +0x3
0001FCD3  EBE3              jmp short 0xfcb8
0001FCD5  59                pop cx
0001FCD6  81F983AB          cmp cx,0xab83
0001FCDA  741B              jz 0xfcf7
0001FCDC  FFE1              jmp cx
0001FCDE  8B4F0C            mov cx,[bx+0xc]
0001FCE1  FE4F0E            dec byte [bx+0xe]
0001FCE4  E0FB              loopne 0xfce1
0001FCE6  E3ED              jcxz 0xfcd5
0001FCE8  51                push cx
0001FCE9  8B5706            mov dx,[bx+0x6]
0001FCEC  8B4F0A            mov cx,[bx+0xa]
0001FCEF  2B4F08            sub cx,[bx+0x8]
0001FCF2  D1E9              shr cx,1
0001FCF4  8B7708            mov si,[bx+0x8]
0001FCF7  D1CA              ror dx,1
0001FCF9  AD                lodsw
0001FCFA  03D0              add dx,ax
0001FCFC  E2F9              loop 0xfcf7
0001FCFE  58                pop ax
0001FCFF  2B5704            sub dx,[bx+0x4]
0001FD02  74D1              jz 0xfcd5
0001FD04  C7069EABAB00      mov word [0xab9e],0xab
0001FD0A  EBE8              jmp short 0xfcf4
0001FD0C  C3                ret
0001FD0D  BE0C8E            mov si,0x8e0c
0001FD10  8A16DD8D          mov dl,[0x8ddd]
0001FD14  8A36DE8D          mov dh,[0x8dde]
0001FD18  B90900            mov cx,0x9
0001FD1B  8B1E308E          mov bx,[0x8e30]
0001FD1F  80C347            add bl,0x47
0001FD22  80FA01            cmp dl,0x1
0001FD25  7501              jnz 0xfd28
0001FD27  4B                dec bx
0001FD28  3B14              cmp dx,[si]
0001FD2A  7503              jnz 0xfd2f
0001FD2C  E80600            call 0xfd35
0001FD2F  83C604            add si,byte +0x4
0001FD32  E2F4              loop 0xfd28
0001FD34  C3                ret
0001FD35  BFC05C            mov di,0x5cc0
0001FD38  8A4402            mov al,[si+0x2]
0001FD3B  E8EDFE            call 0xfc2b
0001FD3E  32E4              xor ah,ah
0001FD40  03F8              add di,ax
0001FD42  8A4403            mov al,[si+0x3]
0001FD45  E8F3FE            call 0xfc3b
0001FD48  F626018E          mul byte [0x8e01]
0001FD4C  03F8              add di,ax
0001FD4E  881D              mov [di],bl
0001FD50  4B                dec bx
0001FD51  C3                ret
0001FD52  FA                cli
0001FD53  33C0              xor ax,ax
0001FD55  8EC0              mov es,ax
0001FD57  B90001            mov cx,0x100
0001FD5A  33FF              xor di,di
0001FD5C  FC                cld
0001FD5D  33C0              xor ax,ax
0001FD5F  AB                stosw
0001FD60  B84000            mov ax,0x40
0001FD63  AB                stosw
0001FD64  E2F7              loop 0xfd5d
0001FD66  B88386            mov ax,0x8683
0001FD69  BFEC03            mov di,0x3ec
0001FD6C  AB                stosw
0001FD6D  B84000            mov ax,0x40
0001FD70  AB                stosw
0001FD71  5D                pop bp
0001FD72  33FF              xor di,di
0001FD74  33F6              xor si,si
0001FD76  8EC0              mov es,ax
0001FD78  B9A9AD            mov cx,0xada9
0001FD7B  F3A4              rep movsb
0001FD7D  8ED8              mov ds,ax
0001FD7F  8ED0              mov ss,ax
0001FD81  50                push ax
0001FD82  55                push bp
0001FD83  FB                sti
0001FD84  CB                retf
0001FD85  BEC05C            mov si,0x5cc0
0001FD88  33FF              xor di,di
0001FD8A  8B16048E          mov dx,[0x8e04]
0001FD8E  BB3689            mov bx,0x8936
0001FD91  32E4              xor ah,ah
0001FD93  32C0              xor al,al
0001FD95  50                push ax
0001FD96  AC                lodsb
0001FD97  3C72              cmp al,0x72
0001FD99  7222              jc 0xfdbd
0001FD9B  7502              jnz 0xfd9f
0001FD9D  B040              mov al,0x40
0001FD9F  3C78              cmp al,0x78
0001FDA1  7502              jnz 0xfda5
0001FDA3  B040              mov al,0x40
0001FDA5  3C73              cmp al,0x73
0001FDA7  7502              jnz 0xfdab
0001FDA9  B040              mov al,0x40
0001FDAB  3C74              cmp al,0x74
0001FDAD  7502              jnz 0xfdb1
0001FDAF  B055              mov al,0x55
0001FDB1  3C75              cmp al,0x75
0001FDB3  7502              jnz 0xfdb7
0001FDB5  B058              mov al,0x58
0001FDB7  3C76              cmp al,0x76
0001FDB9  7502              jnz 0xfdbd
0001FDBB  B05B              mov al,0x5b
0001FDBD  3C71              cmp al,0x71
0001FDBF  7502              jnz 0xfdc3
0001FDC1  B068              mov al,0x68
0001FDC3  56                push si
0001FDC4  E82200            call 0xfde9
0001FDC7  5E                pop si
0001FDC8  58                pop ax
0001FDC9  83C710            add di,byte +0x10
0001FDCC  40                inc ax
0001FDCD  3A06018E          cmp al,[0x8e01]
0001FDD1  72C2              jc 0xfd95
0001FDD3  83C730            add di,byte +0x30
0001FDD6  03FA              add di,dx
0001FDD8  03FA              add di,dx
0001FDDA  03FA              add di,dx
0001FDDC  FEC4              inc ah
0001FDDE  3A26008E          cmp ah,[0x8e00]
0001FDE2  72AF              jc 0xfd93
0001FDE4  8CC8              mov ax,cs
0001FDE6  8EC0              mov es,ax
0001FDE8  C3                ret
0001FDE9  BE7009            mov si,0x970
0001FDEC  2C40              sub al,0x40
0001FDEE  32E4              xor ah,ah
0001FDF0  D1E0              shl ax,1
0001FDF2  D1E0              shl ax,1
0001FDF4  D1E0              shl ax,1
0001FDF6  D1E0              shl ax,1
0001FDF8  D1E0              shl ax,1
0001FDFA  D1E0              shl ax,1
0001FDFC  03F0              add si,ax
0001FDFE  D1E0              shl ax,1
0001FE00  03F0              add si,ax
0001FE02  8E07              mov es,[bx]
0001FE04  8BEF              mov bp,di
0001FE06  B90800            mov cx,0x8
0001FE09  F3A5              rep movsw
0001FE0B  03FA              add di,dx
0001FE0D  B90800            mov cx,0x8
0001FE10  F3A5              rep movsw
0001FE12  03FA              add di,dx
0001FE14  B90800            mov cx,0x8
0001FE17  F3A5              rep movsw
0001FE19  03FA              add di,dx
0001FE1B  B90800            mov cx,0x8
0001FE1E  F3A5              rep movsw
0001FE20  8BFD              mov di,bp
0001FE22  8E4702            mov es,[bx+0x2]
0001FE25  B90800            mov cx,0x8
0001FE28  F3A5              rep movsw
0001FE2A  03FA              add di,dx
0001FE2C  B90800            mov cx,0x8
0001FE2F  F3A5              rep movsw
0001FE31  03FA              add di,dx
0001FE33  B90800            mov cx,0x8
0001FE36  F3A5              rep movsw
0001FE38  03FA              add di,dx
0001FE3A  B90800            mov cx,0x8
0001FE3D  F3A5              rep movsw
0001FE3F  8BFD              mov di,bp
0001FE41  8E4704            mov es,[bx+0x4]
0001FE44  B90800            mov cx,0x8
0001FE47  F3A5              rep movsw
0001FE49  03FA              add di,dx
0001FE4B  B90800            mov cx,0x8
0001FE4E  F3A5              rep movsw
0001FE50  03FA              add di,dx
0001FE52  B90800            mov cx,0x8
0001FE55  F3A5              rep movsw
0001FE57  03FA              add di,dx
0001FE59  B90800            mov cx,0x8
0001FE5C  F3A5              rep movsw
0001FE5E  8BFD              mov di,bp
0001FE60  8CC9              mov cx,cs
0001FE62  8EC1              mov es,cx
0001FE64  C3                ret
0001FE65  BE4E89            mov si,0x894e
0001FE68  BA0703            mov dx,0x307
0001FE6B  F6064E89FF        test byte [0x894e],0xff
0001FE70  7803              js 0xfe75
0001FE72  E80E00            call 0xfe83
0001FE75  BA0605            mov dx,0x506
0001FE78  BE8389            mov si,0x8983
0001FE7B  F6068389FF        test byte [0x8983],0xff
0001FE80  7901              jns 0xfe83
0001FE82  C3                ret
0001FE83  F64428FF          test byte [si+0x28],0xff
0001FE87  7501              jnz 0xfe8a
0001FE89  C3                ret
0001FE8A  FE4C28            dec byte [si+0x28]
0001FE8D  833ECF8D00        cmp word [0x8dcf],byte +0x0
0001FE92  7405              jz 0xfe99
0001FE94  F604FF            test byte [si],0xff
0001FE97  753D              jnz 0xfed6
0001FE99  FF4403            inc word [si+0x3]
0001FE9C  837C03FF          cmp word [si+0x3],byte -0x1
0001FEA0  7503              jnz 0xfea5
0001FEA2  FF4C03            dec word [si+0x3]
0001FEA5  8D5C0A            lea bx,[si+0xa]
0001FEA8  B90500            mov cx,0x5
0001FEAB  4B                dec bx
0001FEAC  FE07              inc byte [bx]
0001FEAE  803F3A            cmp byte [bx],0x3a
0001FEB1  7523              jnz 0xfed6
0001FEB3  C60730            mov byte [bx],0x30
0001FEB6  83F904            cmp cx,byte +0x4
0001FEB9  7509              jnz 0xfec4
0001FEBB  807C260F          cmp byte [si+0x26],0xf
0001FEBF  7303              jnc 0xfec4
0001FEC1  FE4426            inc byte [si+0x26]
0001FEC4  E2E5              loop 0xfeab
0001FEC6  8A4401            mov al,[si+0x1]
0001FEC9  8A5C02            mov bl,[si+0x2]
0001FECC  32E4              xor ah,ah
0001FECE  32FF              xor bh,bh
0001FED0  BEA58C            mov si,0x8ca5
0001FED3  E97CD5            jmp 0xd452
0001FED6  56                push si
0001FED7  E835D5            call 0xd40f
0001FEDA  5E                pop si
0001FEDB  8A4401            mov al,[si+0x1]
0001FEDE  8A5C02            mov bl,[si+0x2]
0001FEE1  32E4              xor ah,ah
0001FEE3  32FF              xor bh,bh
0001FEE5  8D7404            lea si,[si+0x4]
0001FEE8  B90500            mov cx,0x5
0001FEEB  46                inc si
0001FEEC  803C30            cmp byte [si],0x30
0001FEEF  E1FA              loope 0xfeeb
0001FEF1  E95ED5            jmp 0xd452
0001FEF4  4C                dec sp
0001FEF5  41                inc cx
0001FEF6  53                push bx
0001FEF7  54                push sp
0001FEF8  B558              mov ch,0x58
0001FEFA  A5                movsw
0001FEFB  F9                stc
0001FEFC  D2811987          rol byte [bx+di-0x78e7],cl
0001FF00  AF                scasw
0001FF01  00C3              add bl,al
0001FF03  0000              add [bx+si],al
0001FF05  0000              add [bx+si],al
0001FF07  0000              add [bx+si],al
0001FF09  0000              add [bx+si],al
0001FF0B  0000              add [bx+si],al
0001FF0D  0000              add [bx+si],al
0001FF0F  0000              add [bx+si],al
0001FF11  0000              add [bx+si],al
0001FF13  0000              add [bx+si],al
0001FF15  0000              add [bx+si],al
0001FF17  0000              add [bx+si],al
0001FF19  0000              add [bx+si],al
0001FF1B  0000              add [bx+si],al
0001FF1D  0000              add [bx+si],al
0001FF1F  0000              add [bx+si],al
0001FF21  0000              add [bx+si],al
0001FF23  0000              add [bx+si],al
0001FF25  0000              add [bx+si],al
0001FF27  0000              add [bx+si],al
0001FF29  0000              add [bx+si],al
0001FF2B  0000              add [bx+si],al
0001FF2D  0000              add [bx+si],al
0001FF2F  0000              add [bx+si],al
0001FF31  0000              add [bx+si],al
0001FF33  0000              add [bx+si],al
0001FF35  0000              add [bx+si],al
0001FF37  0000              add [bx+si],al
0001FF39  0000              add [bx+si],al
0001FF3B  0000              add [bx+si],al
0001FF3D  0000              add [bx+si],al
0001FF3F  0000              add [bx+si],al
0001FF41  0000              add [bx+si],al
0001FF43  0000              add [bx+si],al
0001FF45  0000              add [bx+si],al
0001FF47  0000              add [bx+si],al
0001FF49  0000              add [bx+si],al
0001FF4B  0000              add [bx+si],al
0001FF4D  0000              add [bx+si],al
0001FF4F  0000              add [bx+si],al
0001FF51  0000              add [bx+si],al
0001FF53  0000              add [bx+si],al
0001FF55  0000              add [bx+si],al
0001FF57  0000              add [bx+si],al
0001FF59  0000              add [bx+si],al
