     1                                  org 0
     2                                  cpu 8086
     3                                  
     4                                  H equ 50      ; 50x4 lines = 200px
     5                                  W equ 72    ; =COLS
     6                                  WH equ W*H
     7                                  ; RED   equ 0xf000
     8                                  ; GREEN_1 equ 0x1c00  ;; 4=0x0c00 5=0x1c00, 6=0x2c00, 7=0x3c00 ????
     9                                  
    10                                  ; BLUE  equ 0xf400
    11                                  
    12 00000000 EB18                    jmp setup
    13                                  
    14 00000002 53616E796F312E32            db 'Sanyo1.2'
    15 0000000A 0002                        dw 512     ; Number of bytes per sector
    16 0000000C 02                          db 2       ; Number of sectors per cluster
    17 0000000D 01                          db 1       ; Number of FAT copies
    18 0000000E 0002                        dw 512     ; Number of root directory entries
    19 00000010 70                          db 112     ; Total number of sectors in the filesystem
    20 00000011 00                          db 0       ; Media descriptor type
    21 00000012 0002                        dw 512     ; Number of sectors per FAT
    22 00000014 FD02                        dw 765     ; ? Number of sectors per track
    23 00000016 00                          db 0     ; ? Number of heads   (now first byte of sine table)
    24 00000017 09                          db 9     ; ? Number of heads  
    25 00000018 0002                        dw 512   ; Number of hidden sectors
    26                                  
    27                                  
    28                                  setup:
    29 0000001A B8001C                      mov ax,0x1c00
    30 0000001D 50                          push ax
    31 0000001E 07                          pop es
    32                                  
    33 0000001F B8000C                      mov ax,0x0c00
    34 00000022 50                          push ax
    35 00000023 1F                          pop ds
    36                                  
    37                                     
    38                                  doublebuf:
    39 00000024 E82700                      call initCells
    40 00000027 B005                        mov al,5        ; 0x0c00
    41 00000029 E610                        out 0x10,al
    42                                  
    43                                      ; swap es,ds
    44 0000002B 1E                          push ds
    45 0000002C 06                          push es
    46 0000002D 1F                          pop ds
    47 0000002E 07                          pop es
    48                                  
    49 0000002F E84400                      call initCells2
    50                                  
    51 00000032 B004                        mov al,4         ; 0x1c00
    52 00000034 E610                        out 0x10,al
    53                                  
    54                                      ; swap es,ds
    55 00000036 1E                          push ds
    56 00000037 06                          push es
    57 00000038 1F                          pop ds
    58 00000039 07                          pop es
    59                                  
    60 0000003A EBE8                        jmp doublebuf
    61                                  
    62 0000003C F4                          hlt
    63                                  
    64                                  ; setDot: 
    65                                  
    66                                  countNeighbours:  ;bh=x, bl=y
    67                                  ; .countNeighbours: ; input si, returns dl
    68                                  ;     mov dl,0    ; n
    69                                  ;     mov bx,0    ; bx 8..0  i<len(nb)
    70                                  ; .1: mov bp,[cs:nb+bx]
    71 0000003D C3                          ret
    72                                  
    73                                  ; nextgen:
    74                                  ;     ;calculate next generation
    75                                  ;     xor si,si
    76                                  ; .calc_cells:
    77                                  ;     ; call countNeighbours
    78                                  ;     ; int3
    79                                  
    80                                  ; .countNeighbours: ; input si, returns dl
    81                                  ;     mov dl,0    ; n
    82                                  ;     mov bx,0    ; bx 8..0  i<len(nb)
    83                                  ; .1: mov bp,[cs:nb+bx]
    84                                  ;     mov al,[es:si+bp]   ; read value of neighbouring pixel
    85                                  ;     test al,128
    86                                  ;     jz .2
    87                                  ;     inc dl
    88                                  ;     ; int3
    89                                  ; .2: inc bx
    90                                  ;     inc bx
    91                                  ;     cmp bx,16
    92                                  ;     jne .1
    93                                  ; ;------
    94                                  
    95                                  
    96                                  ;     mov al,0
    97                                  
    98                                  ;     cmp dl,2 
    99                                  ;     je .j32  
   100                                  ;     cmp dl,3
   101                                  ;     jne .set      ; not 2 and not 3 neighbours
   102                                  ; .j64: add al,32   ; 3 neighbours
   103                                  ; .j32: add al,32   ; 2 neighbours
   104                                  ; .set: 
   105                                  
   106                                  ;     ; mov al,dl
   107                                  ;     ; mov cl,64
   108                                  ;     ; mul cl
   109                                  
   110                                  ;     xor [es:si],al
   111                                  ;     add si,4
   112                                  ;     cmp si,WH*4
   113                                  ;     jl .calc_cells
   114                                  
   115                                  ; ; hlt
   116                                  
   117                                  ; ;redraw cells
   118                                  ;     ; mov cx,4*WH
   119                                  ;     ; xor si,si
   120                                  ;     xor di,di
   121                                  ; .redraw_cells:
   122                                  ;     mov al,[es:di]
   123                                  ;     test al,128    ; alive?
   124                                  ;     jz .dead
   125                                  ; .alive:
   126                                  ;     test al,64
   127                                  ;     jz .survive
   128                                  ;     test al,32
   129                                  ;     jz .survive
   130                                  ; .die:
   131                                  ; .stay_dead:
   132                                  ;     xor al,al
   133                                  ;     jmp .copy
   134                                  ; .dead:
   135                                  ;     test al,64
   136                                  ;     jz .stay_dead
   137                                  ; .birth:
   138                                  ; .survive:
   139                                  ;     mov al,255
   140                                  ; .copy:
   141                                  
   142                                  ;     mov [es:di+0],al
   143                                  ;     mov [es:di+1],al
   144                                  ;     mov [es:di+2],al
   145                                  ;     mov [es:di+3],al
   146                                  ;     add di,4
   147                                  
   148                                      
   149                                  ;     cmp di,WH*4
   150                                  ;     jl .redraw_cells
   151                                  
   152                                  
   153                                  ;     jmp nextgen
   154                                  
   155                                     
   156                                  
   157                                      ; ret
   158                                  
   159                                      ;checkme
   160 0000003E FFFF00FF01FFFF0001-     nb: db -1,-1, 0,-1, 1,-1, -1,0, 1,0, -1,1, 0,1, 1,1
   160 00000047 00FF0100010101     
   161                                  ; dw -4,4,-W*4,W*4,-W*4-4,-W*4+4,W*4-4,W*4+4
   162                                  
   163                                  ;nb: db -1,1,-W,W,-W-1,-W+1,W-1,W+1
   164                                      
   165                                  
   166                                  initCells:
   167 0000004E 31FF                        xor di,di
   168 00000050 B9100E                      mov cx,WH   
   169 00000053 BD0400                      mov bp,4
   170 00000056 BB1027                      mov bx,10000  ; probability (signed)
   171 00000059 B85562                  .1: mov ax,25173  ; LCG Multiplier
   172 0000005C F7E5                        mul bp        ; DX:AX = LCG multiplier * seed
   173 0000005E 051936                      add ax,13849  ; Add LCG increment value ; Modulo 65536, AX = (multiplier*seed+increment) mod 65536
   174 00000061 89C5                        mov bp,ax     ; Update seed = return value
   175 00000063 39D8                        cmp ax,bx
   176 00000065 B8FF00                      mov ax,255
   177 00000068 7F02                        jg .2
   178 0000006A 31C0                        xor ax,ax
   179 0000006C 51                      .2: push cx
   180 0000006D B90400                      mov cx,4
   181 00000070 F3AA                        rep stosb
   182 00000072 59                          pop cx
   183 00000073 E2E4                        loop .1
   184 00000075 C3                          ret
   185                                   
   186                                  
   187                                   initCells2:
   188 00000076 31FF                        xor di,di
   189 00000078 B9100E                      mov cx,WH   
   190 0000007B BD0500                      mov bp,5
   191 0000007E BB1027                      mov bx,10000  ; probability (signed)
   192 00000081 B85562                  .1: mov ax,25173  ; LCG Multiplier
   193 00000084 F7E5                        mul bp        ; DX:AX = LCG multiplier * seed
   194 00000086 051936                      add ax,13849  ; Add LCG increment value ; Modulo 65536, AX = (multiplier*seed+increment) mod 65536
   195 00000089 89C5                        mov bp,ax     ; Update seed = return value
   196 0000008B 39D8                        cmp ax,bx
   197 0000008D B8FF00                      mov ax,255
   198 00000090 7F02                        jg .2
   199 00000092 31C0                        xor ax,ax
   200 00000094 51                      .2: push cx
   201 00000095 B90400                      mov cx,4
   202 00000098 F3AA                        rep stosb
   203 0000009A 59                          pop cx
   204 0000009B E2E4                        loop .1
   205 0000009D C3                          ret
   206                                  
   207                                  
   208                                  data:
   209                                  
   210                                  
   211                                  
   212 0000009E 000000000000000000-     rnd: db 0,0,0,0,0,0,0,0,0,0,0,0,0,255,255,255,0,0,255,0,0,255,0,0,0,0,255,0,0,255,255,0,0,0,0,0,0,0,0,0,0,0,0,255,0,0,0,255,0,0,0,0,0,0,0,0,255,0,0,0,0,0,0,0,255,0,0,255,0,0,0,0,0,255,255,0,255,0,0,0,0,255,0,0,0,255,0,0,0,0,255,0,0,0,0,0,0,0,255,255,0,0,255,0,0,0,0,0,0,0,0,0,0,0,0,0,0,0,0,255,0,0,0,0,0,0,0,255,0,0,0,255,0,0,0,0,255,255,255,0,0,255,0,0,0,0,255,0,0,0,0,0,0,0,0,0,0,0,0,0,0,255,0,0,0,0,0,0,255,0,0,0,255,0,0,0,0,0,0,0,0,0,0,255,0,0,0,0,255,0,0,0,255,0,0,0,0,255,0,255,0,0,0,255,0,0,255,0,255,0,255,0,0,0,255,0,0,255,0,255,255,0,0,0,0,0,0,0,0,0,0,255,0,0,0,0,0,255,0,0,0,0,255,0,0,0,0,0,0,0,0,255,0,0,0,0,255,0,0,255,0,0,255,0,0,255,0,0,255,255,0,0,0,0,255,255,0,0,0,0,0,0,0,0,0,0,0,0,0,0,0,255,0,0,0,0,0,0,0,0,0,255,0,255,255,0,0,0,0,0,255,0,0,0,255,255,255,0,255,0,0,0,0,0,0,0,0,0,0,0,255,0,255,0,255,0,0,0,0,0,255,0,0,0,0,255,0,0,0,0,255,0,0,0,255,0,0,255,0,0,0,0,255,0,255,0,0,0,255,0,0,255,0,0,0,0,0,0,0,255,0,0,255,255,0,0,255,0,0,0,255,0,0,0,0,0,0,0,0,0,0,255,0,0,0,255,0,0,0,0,0,0,255,0,0,255,0,0,...
   212 000000A7 00000000FFFFFF0000-
   212 000000B0 FF0000FF00000000FF-
   212 000000B9 0000FFFF0000000000-
   212 000000C2 00000000000000FF00-
   212 000000CB 0000FF000000000000-
   212 000000D4 0000FF000000000000-
   212 000000DD 00FF0000FF00000000-
   212 000000E6 00FFFF00FF00000000-
   212 000000EF FF000000FF00000000-
   212 000000F8 FF00000000000000FF-
   212 00000101 FF0000FF0000000000-
   212 0000010A 000000000000000000-
   212 00000113 0000FF000000000000-
   212 0000011C 00FF000000FF000000-
   212 00000125 00FFFFFF0000FF0000-
   212 0000012E 0000FF000000000000-
   212 00000137 0000000000000000FF-
   212 00000140 000000000000FF0000-
   212 00000149 00FF00000000000000-
   212 00000152 000000FF00000000FF-
   212 0000015B 000000FF00000000FF-
   212 00000164 00FF000000FF0000FF-
   212 0000016D 00FF00FF000000FF00-
   212 00000176 00FF00FFFF00000000-
   212 0000017F 000000000000FF0000-
   212 00000188 000000FF00000000FF-
   212 00000191 0000000000000000FF-
   212 0000019A 00000000FF0000FF00-
   212 000001A3 00FF0000FF0000FFFF-
   212 000001AC 00000000FFFF000000-
   212 000001B5 000000000000000000-
   212 000001BE 000000FF0000000000-
   212 000001C7 00000000FF00FFFF00-
   212 000001D0 00000000FF000000FF-
   212 000001D9 FFFF00FF0000000000-
   212 000001E2 000000000000FF00FF-
   212 000001EB 00FF0000000000FF00-
   212 000001F4 000000FF00000000FF-
   212 000001FD 000000FF0000FF0000-
   212 00000206 0000FF00FF000000FF-
   212 0000020F 0000FF000000000000-
   212 00000218 00FF0000FFFF0000FF-
   212 00000221 000000FF0000000000-
   212 0000022A 0000000000FF000000-
   212 00000233 FF000000000000FF00-
   212 0000023C 00FF00000000000000-
   212 00000245 000000000000000000-
   212 0000024E 00FF00FF00FF000000-
   212 00000257 FF0000000000000000-
   212 00000260 FF000000FFFF000000-
   212 00000269 0000000000000000FF-
   212 00000272 0000FF000000FF00FF-
   212 0000027B 000000000000FF0000-
   212 00000284 FF0000000000FFFF00-
   212 0000028D FF000000000000FFFF-
   212 00000296 FF0000000000000000-
   212 0000029F 00FF000000FF000000-
   212 000002A8 000000000000000000-
   212 000002B1 FFFF00000000FF00FF-
   212 000002BA 000000000000FF0000-
   212 000002C3 00FF000000FFFFFFFF-
   212 000002CC FF000000000000FF00-
   212 000002D5 00FF0000FF00000000-
   212 000002DE FF000000000000FFFF-
   212 000002E7 0000FF000000000000-
   212 000002F0 FFFF00FF0000000000-
   212 000002F9 FF0000000000FF0000-
   212 00000302 0000000000FF000000-
   212 0000030B FF0000FF0000FF00FF-
   212 00000314 FF000000FF00FF0000-
   212 0000031D FF0000000000000000-
   212 00000326 FF000000000000FF00-
   212 0000032F 0000000000FF000000-
   212 00000338 000000FF00FFFF0000-
   212 00000341 000000000000FF0000-
   212 0000034A FF00FF0000FF000000-
   212 00000353 0000000000FF000000-
   212 0000035C 0000FF00000000FF00-
   212 00000365 FFFF0000FF00FF0000-
   212 0000036E 00FF00000000FF0000-
   212 00000377 000000000000000000-
   212 00000380 00000000000000FF00-
   212 00000389 00000000FF00FF00FF-
   212 00000392 0000FFFF000000FF00-
   212 0000039B 00FF00000000000000-
   212 000003A4 000000FF00FF000000-
   212 000003AD FF000000FF000000FF-
   212 000003B6 0000FF0000FF000000-
   212 000003BF FFFFFFFF00FF00FF00-
   212 000003C8 FF00000000FF000000-
   212 000003D1 FF000000FF00000000-
   212 000003DA 0000FF00FF00000000-
   212 000003E3 000000FF00000000FF-
   212 000003EC 00FF00000000000000-
   212 000003F5 00000000000000FFFF-
   212 000003FE 00000000FF00000000-
   212 00000407 0000FF000000000000-
   212 00000410 000000000000FF0000-
   212 00000419 000000000000FF0000-
   212 00000422 00FF0000FF00000000-
   212 0000042B FF000000FF0000FFFF-
   212 00000434 FF000000FF00000000-
   212 0000043D FF00FF0000000000FF-
   212 00000446 00FFFF000000000000-
   212 0000044F 000000000000000000-
   212 00000458 00000000000000FF00-
   212 00000461 00000000FF00000000-
   212 0000046A 00000000000000FFFF-
   212 00000473 000000000000000000-
   212 0000047C 0000FFFF0000000000-
   212 00000485 FF0000FF0000000000-
   212 0000048E 00FF00000000000000-
   212 00000497 0000FF00FF00000000-
   212 000004A0 000000FF000000FF00-
   212 000004A9 000000000000000000-
   212 000004B2 000000000000FFFF00-
   212 000004BB 00FF00FFFF00FF0000-
   212 000004C4 0000000000000000FF-
   212 000004CD FF000000FFFFFF0000-
   212 000004D6 FF000000000000FF00-
   212 000004DF FF0000FF0000000000-
   212 000004E8 00FF00000000000000-
   212 000004F1 000000000000FF0000-
   212 000004FA FF0000000000FF0000-
   212 00000503 00000000FFFF000000-
   212 0000050C FFFF00FF00FF00FF00-
   212 00000515 000000FF000000FF00-
   212 0000051E 000000000000FF0000-
   212 00000527 FF0000FF00FFFFFF00-
   212 00000530 00FF00000000000000-
   212 00000539 000000000000FF0000-
   212 00000542 000000000000FF0000-
   212 0000054B 0000000000000000FF-
   212 00000554 FFFF0000FF000000FF-
   212 0000055D 00FF0000FF00000000-
   212 00000566 00FFFF000000000000-
   212 0000056F 000000FF000000FF00-
   212 00000578 FFFF00FF00FF0000FF-
   212 00000581 0000000000FFFFFF00-
   212 0000058A 0000FF000000000000-
   212 00000593 00FF00000000000000-
   212 0000059C 000000FFFF00000000-
   212 000005A5 00FF000000FF00FF00-
   212 000005AE FF00FF000000FF0000-
   212 000005B7 0000FF000000000000-
   212 000005C0 FF00FF0000000000FF-
   212 000005C9 FF0000FF00FFFF0000-
   212 000005D2 000000FFFF0000FFFF-
   212 000005DB 00000000FFFF0000FF-
   212 000005E4 000000FF000000FF00-
   212 000005ED 00000000FFFF000000-
   212 000005F6 FF0000FF0000FFFF00-
   212 000005FF 000000000000000000-
   212 00000608 00FF00FF0000000000-
   212 00000611 FF00FF0000FF00FF00-
   212 0000061A 00000000FF0000FFFF-
   212 00000623 000000000000000000-
   212 0000062C 000000000000FFFFFF-
   212 00000635 000000000000FF0000-
   212 0000063E 0000FF00FF00FF0000-
   212 00000647 000000000000000000-
   212 00000650 000000000000FF0000-
   212 00000659 000000FFFF0000FFFF-
   212 00000662 00000000FF0000FF00-
   212 0000066B 000000000000000000-
   212 00000674 FF0000000000000000-
   212 0000067D 00000000FF0000FF00-
   212 00000686 000000000000000000-
   212 0000068F 0000FF0000FF0000FF-
   212 00000698 000000000000000000-
   212 000006A1 0000000000000000FF-
   212 000006AA 00000000000000FFFF-
   212 000006B3 000000000000000000-
   212 000006BC 000000FFFF00000000-
   212 000006C5 000000000000FFFF00-
   212 000006CE 00FF00FF0000FFFF00-
   212 000006D7 000000FFFF0000FF00-
   212 000006E0 0000FF00000000FF00-
   212 000006E9 00FF00FFFF00000000-
   212 000006F2 00000000FF00000000-
   212 000006FB 000000000000000000-
   212 00000704 FF000000FFFF00FF00-
   212 0000070D 0000FF00FF00000000-
   212 00000716 00000000000000FF00-
   212 0000071F 00000000FF0000FF00-
   212 00000728 FF000000000000FF00-
   212 00000731 000000000000000000-
   212 0000073A FF000000FF00000000-
   212 00000743 000000000000000000-
   212 0000074C 0000000000FF0000FF-
   212 00000755 0000FF00000000FF00-
   212 0000075E 00FF000000FFFF0000-
   212 00000767 FF0000FF00000000FF-
   212 00000770 00000000FF00000000-
   212 00000779 00FF00000000000000-
   212 00000782 0000FF00FF00000000-
   212 0000078B 00000000FF000000FF-
   212 00000794 0000FF00FF00000000-
   212 0000079D 00FFFF0000000000FF-
   212 000007A6 000000FF0000000000-
   212 000007AF 000000000000000000-
   212 000007B8 FF00FFFF0000000000-
   212 000007C1 0000FF00FF00000000-
   212 000007CA 0000000000FFFFFF00-
   212 000007D3 FFFF0000FF0000FF00-
   212 000007DC 0000FF00000000FF00-
   212 000007E5 000000FF00FF000000-
   212 000007EE 0000FFFF0000000000-
   212 000007F7 FF000000FFFF00FF00-
   212 00000800 0000FF00FF0000FF00-
   212 00000809 000000000000000000-
   212 00000812 00000000FF00000000-
   212 0000081B 0000FFFF0000000000-
   212 00000824 FFFFFF000000000000-
   212 0000082D 00000000000000FF00-
   212 00000836 0000000000FF000000-
   212 0000083F 000000000000FF0000-
   212 00000848 00FF00FF0000000000-
   212 00000851 FF0000000000000000-
   212 0000085A FF0000FF0000000000-
   212 00000863 000000000000000000-
   212 0000086C 000000FF0000000000-
   212 00000875 00FF00000000FF0000-
   212 0000087E 000000FF0000000000-
   212 00000887 0000000000FF000000-
   212 00000890 000000000000FF0000-
   212 00000899 000000FF0000000000-
   212 000008A2 000000000000000000-
   212 000008AB 000000FF0000FF0000-
   212 000008B4 000000000000000000-
   212 000008BD FF000000000000FF00-
   212 000008C6 0000000000FF000000-
   212 000008CF FF0000000000000000-
   212 000008D8 000000000000000000-
   212 000008E1 000000000000000000-
   212 000008EA FF00FFFF0000FF0000-
   212 000008F3 00FF00000000000000-
   212 000008FC FF0000000000000000-
   212 00000905 000000000000000000-
   212 0000090E 000000000000000000-
   212 00000917 00FF00000000000000-
   212 00000920 000000000000FF0000-
   212 00000929 000000000000000000-
   212 00000932 FF000000FF00000000-
   212 0000093B 00000000FF0000FF00-
   212 00000944 00FF00000000000000-
   212 0000094D 000000FF0000000000-
   212 00000956 000000FFFF00000000-
   212 0000095F 000000FF0000000000-
   212 00000968 00000000FF00000000-
   212 00000971 0000000000FF000000-
   212 0000097A 00000000FF00000000-
   212 00000983 000000FF00FF000000-
   212 0000098C 000000FF00000000FF-
   212 00000995 00000000FF00000000-
   212 0000099E FFFFFF00FF000000FF-
   212 000009A7 0000000000FF000000-
   212 000009B0 00000000000000FF00-
   212 000009B9 0000000000FF000000-
   212 000009C2 FF0000000000FF00FF-
   212 000009CB 00FF00FF0000000000-
   212 000009D4 0000FFFF0000000000-
   212 000009DD 000000000000000000-
   212 000009E6 0000FF0000000000FF-
   212 000009EF 0000000000000000FF-
   212 000009F8 FF0000000000000000-
   212 00000A01 FF00FF000000000000-
   212 00000A0A 000000000000000000-
   212 00000A13 0000FF0000000000FF-
   212 00000A1C 00FF00000000000000-
   212 00000A25 00000000FF00FF0000-
   212 00000A2E FF0000000000FF0000-
   212 00000A37 FF0000000000000000-
   212 00000A40 0000000000000000FF-
   212 00000A49 00FF0000FFFF000000-
   212 00000A52 FF00000000000000FF-
   212 00000A5B 000000000000000000-
   212 00000A64 00FF000000FFFF0000-
   212 00000A6D 0000000000000000FF-
   212 00000A76 00FF0000000000FF00-
   212 00000A7F 00000000FF00000000-
   212 00000A88 000000000000000000-
   212 00000A91 00FF00000000000000-
   212 00000A9A 000000000000000000-
   212 00000AA3 000000000000000000-
   212 00000AAC 00FF000000FF000000-
   212 00000AB5 000000000000000000-
   212 00000ABE 00FF00FF000000FF00-
   212 00000AC7 0000000000000000FF-
   212 00000AD0 FF00FF000000000000-
   212 00000AD9 00FF00000000000000-
   212 00000AE2 000000000000000000-
   212 00000AEB FF0000000000000000-
   212 00000AF4 00FF00FF0000000000-
   212 00000AFD 0000FF000000000000-
   212 00000B06 0000FFFFFF000000FF-
   212 00000B0F 0000FF00FF00000000-
   212 00000B18 00FF00000000FFFFFF-
   212 00000B21 000000000000000000-
   212 00000B2A 000000000000000000-
   212 00000B33 FF0000000000000000-
   212 00000B3C FF00FF000000FF0000-
   212 00000B45 FF000000FFFF000000-
   212 00000B4E 000000000000000000-
   212 00000B57 0000000000FFFF0000-
   212 00000B60 000000FFFF000000FF-
   212 00000B69 00000000000000FF00-
   212 00000B72 000000FF0000000000-
   212 00000B7B FF000000000000FF00-
   212 00000B84 000000FF000000FF00-
   212 00000B8D 00FF0000000000FF00-
   212 00000B96 000000FF000000FF00-
   212 00000B9F 00FFFFFF0000000000-
   212 00000BA8 0000000000FF00FF00-
   212 00000BB1 000000000000000000-
   212 00000BBA 0000000000FF000000-
   212 00000BC3 0000FF000000000000-
   212 00000BCC 0000000000FF000000-
   212 00000BD5 000000000000000000-
   212 00000BDE FF000000FFFF0000FF-
   212 00000BE7 000000FF0000FF0000-
   212 00000BF0 FF0000000000000000-
   212 00000BF9 000000000000FF0000-
   212 00000C02 FF000000000000FF00-
   212 00000C0B 00FF00FF0000000000-
   212 00000C14 00FF00000000000000-
   212 00000C1D 00000000FF00000000-
   212 00000C26 0000FF00FF00FF0000-
   212 00000C2F 00FF00FF0000000000-
   212 00000C38 000000000000000000-
   212 00000C41 0000FF0000FF00FF00-
   212 00000C4A 000000FF0000FF0000-
   212 00000C53 00FF00FF0000FF0000-
   212 00000C5C 000000FF0000000000-
   212 00000C65 FFFF000000FF000000-
   212 00000C6E 0000000000FF000000-
   212 00000C77 0000000000FF0000FF-
   212 00000C80 000000000000FF0000-
   212 00000C89 000000000000000000-
   212 00000C92 FF00FFFF00000000FF-
   212 00000C9B 000000FF00FF000000-
   212 00000CA4 FF00FF00FF00000000-
   212 00000CAD 00FF00000000000000-
   212 00000CB6 000000FF000000FF00-
   212 00000CBF 000000000000000000-
   212 00000CC8 000000000000FF0000-
   212 00000CD1 000000000000000000-
   212 00000CDA 00FF0000000000FFFF-
   212 00000CE3 00FF00000000FF0000-
   212 00000CEC FF0000FFFFFF000000-
   212 00000CF5 000000000000FF0000-
   212 00000CFE 000000000000FFFF00-
   212 00000D07 000000FFFF00000000-
   212 00000D10 00FF00FF0000000000-
   212 00000D19 FF00FF000000FFFF00-
   212 00000D22 00000000FF000000FF-
   212 00000D2B 00FFFF000000000000-
   212 00000D34 000000000000000000-
   212 00000D3D 00000000000000FF00-
   212 00000D46 0000000000FF000000-
   212 00000D4F 000000FF000000FF00-
   212 00000D58 000000000000FF0000-
   212 00000D61 0000000000FF000000-
   212 00000D6A 00000000000000FF00-
   212 00000D73 00FF000000000000FF-
   212 00000D7C 0000FF00FF000000FF-
   212 00000D85 FF0000000000000000-
   212 00000D8E FF0000000000000000-
   212 00000D97 000000000000000000-
   212 00000DA0 000000000000FF0000-
   212 00000DA9 00FF00FF000000FF00-
   212 00000DB2 00000000FF00000000-
   212 00000DBB FF0000FF00FF000000-
   212 00000DC4 0000FF000000000000-
   212 00000DCD 0000000000FFFF0000-
   212 00000DD6 00FF00000000000000-
   212 00000DDF 00FF0000FF00000000-
   212 00000DE8 000000000000000000-
   212 00000DF1 0000FFFF0000FFFF00-
   212 00000DFA FF0000FF00000000FF-
   212 00000E03 000000000000000000-
   212 00000E0C 00000000FF00FF0000-
   212 00000E15 FF0000000000000000-
   212 00000E1E FF0000FF0000000000-
   212 00000E27 000000000000000000-
   212 00000E30 000000000000000000-
   212 00000E39 000000000000FF0000-
   212 00000E42 FF0000FF0000000000-
   212 00000E4B 0000FF000000FFFF00-
   212 00000E54 00FFFF000000000000-
   212 00000E5D FFFF0000000000FFFF-
   212 00000E66 0000FF00000000FFFF-
   212 00000E6F 0000000000000000FF-
   212 00000E78 FF0000000000000000-
   212 00000E81 000000000000000000-
   212 00000E8A FF0000FF00FFFF0000-
   212 00000E93 0000000000FF00FF00-
   212 00000E9C 0000FF00000000FF00-
   212 00000EA5 00FF0000000000FF00 
   213                                  
   214 00000EAE 00<rep 59152h>          times 368640-($-$$) db 0   ;fill up floppy
   215                                  
